
web_server.elf:     file format elf32-littlenios2
web_server.elf
architecture: nios2, flags 0x00000112:
EXEC_P, HAS_SYMS, D_PAGED
start address 0x07000000

Program Header:
    LOAD off    0x00001000 vaddr 0x01bc0000 paddr 0x01bc0000 align 2**12
         filesz 0x00000000 memsz 0x00000000 flags r-x
    LOAD off    0x00001000 vaddr 0x07000000 paddr 0x07000000 align 2**12
         filesz 0x0006203c memsz 0x00090114 flags rwx
    LOAD off    0x00064020 vaddr 0x08200020 paddr 0x08200020 align 2**12
         filesz 0x0000019c memsz 0x0000019c flags r-x

Sections:
Idx Name          Size      VMA       LMA       File off  Algn
  0 .entry        00000000  01bc0000  01bc0000  00001000  2**5
                  CONTENTS, ALLOC, LOAD, READONLY, CODE
  1 .exceptions   0000019c  08200020  08200020  00064020  2**2
                  CONTENTS, ALLOC, LOAD, READONLY, CODE
  2 .text         000583a4  07000000  07000000  00001000  2**2
                  CONTENTS, ALLOC, LOAD, READONLY, CODE
  3 .rodata       00007968  070583a4  070583a4  000593a4  2**2
                  CONTENTS, ALLOC, LOAD, READONLY, DATA
  4 .rwdata       00002330  0705fd0c  0705fd0c  00060d0c  2**2
                  CONTENTS, ALLOC, LOAD, DATA, SMALL_DATA
  5 .bss          0002e0d8  0706203c  0706203c  0006303c  2**2
                  ALLOC, SMALL_DATA
  6 .comment      00000026  00000000  00000000  000641bc  2**0
                  CONTENTS, READONLY
  7 .debug_aranges 00001ef0  00000000  00000000  000641e8  2**3
                  CONTENTS, READONLY, DEBUGGING
  8 .debug_pubnames 000063ca  00000000  00000000  000660d8  2**0
                  CONTENTS, READONLY, DEBUGGING
  9 .debug_info   00094cee  00000000  00000000  0006c4a2  2**0
                  CONTENTS, READONLY, DEBUGGING
 10 .debug_abbrev 0001519f  00000000  00000000  00101190  2**0
                  CONTENTS, READONLY, DEBUGGING
 11 .debug_line   0004d2da  00000000  00000000  0011632f  2**0
                  CONTENTS, READONLY, DEBUGGING
 12 .debug_frame  000079c0  00000000  00000000  0016360c  2**2
                  CONTENTS, READONLY, DEBUGGING
 13 .debug_str    00004542  00000000  00000000  0016afcc  2**0
                  CONTENTS, READONLY, DEBUGGING
 14 .debug_loc    0001ba73  00000000  00000000  0016f50e  2**0
                  CONTENTS, READONLY, DEBUGGING
 15 .debug_alt_sim_info 00000050  00000000  00000000  0018af84  2**2
                  CONTENTS, READONLY, DEBUGGING
 16 .debug_ranges 00000ce0  00000000  00000000  0018afd8  2**3
                  CONTENTS, READONLY, DEBUGGING
 17 .thread_model 00000006  00000000  00000000  00197ead  2**0
                  CONTENTS, READONLY
 18 .cpu          00000003  00000000  00000000  00197eb3  2**0
                  CONTENTS, READONLY
 19 .qsys         00000001  00000000  00000000  00197eb6  2**0
                  CONTENTS, READONLY
 20 .simulation_enabled 00000001  00000000  00000000  00197eb7  2**0
                  CONTENTS, READONLY
 21 .sysid_hash   00000004  00000000  00000000  00197eb8  2**0
                  CONTENTS, READONLY
 22 .sysid_base   00000004  00000000  00000000  00197ebc  2**0
                  CONTENTS, READONLY
 23 .sysid_time   00000004  00000000  00000000  00197ec0  2**0
                  CONTENTS, READONLY
 24 .stderr_dev   00000009  00000000  00000000  00197ec4  2**0
                  CONTENTS, READONLY
 25 .stdin_dev    00000009  00000000  00000000  00197ecd  2**0
                  CONTENTS, READONLY
 26 .stdout_dev   00000009  00000000  00000000  00197ed6  2**0
                  CONTENTS, READONLY
 27 .sopc_system_name 00000014  00000000  00000000  00197edf  2**0
                  CONTENTS, READONLY
 28 .jdi          00005ae0  00000000  00000000  00197ef3  2**0
                  CONTENTS, READONLY
 29 .sopcinfo     000d300f  00000000  00000000  0019d9d3  2**0
                  CONTENTS, READONLY
SYMBOL TABLE:
01bc0000 l    d  .entry	00000000 .entry
08200020 l    d  .exceptions	00000000 .exceptions
07000000 l    d  .text	00000000 .text
070583a4 l    d  .rodata	00000000 .rodata
0705fd0c l    d  .rwdata	00000000 .rwdata
0706203c l    d  .bss	00000000 .bss
00000000 l    d  .comment	00000000 .comment
00000000 l    d  .debug_aranges	00000000 .debug_aranges
00000000 l    d  .debug_pubnames	00000000 .debug_pubnames
00000000 l    d  .debug_info	00000000 .debug_info
00000000 l    d  .debug_abbrev	00000000 .debug_abbrev
00000000 l    d  .debug_line	00000000 .debug_line
00000000 l    d  .debug_frame	00000000 .debug_frame
00000000 l    d  .debug_str	00000000 .debug_str
00000000 l    d  .debug_loc	00000000 .debug_loc
00000000 l    d  .debug_alt_sim_info	00000000 .debug_alt_sim_info
00000000 l    d  .debug_ranges	00000000 .debug_ranges
07000044 l       .text	00000000 alt_after_alt_main
00000000 l    df *ABS*	00000000 alt_irq_handler.c
00000000 l    df *ABS*	00000000 flash_intel_p30.c
07000048 l     F .text	00000060 flash_program_stats_init
070000a8 l     F .text	0000013c flash_program_stats_add_sample
070001e4 l     F .text	00000020 flash_program_stats_print
07000204 l     F .text	00000174 flash_init_block_map
07000378 l     F .text	000000a0 flash_find_previous_block_boundary
07000418 l     F .text	0000009c flash_find_next_block_boundary
070004b4 l     F .text	00000030 flash_clear_status_register
070004e4 l     F .text	0000004c flash_restore_read_mode
07000530 l     F .text	00000074 flash_read_device_id_reg
070005a4 l     F .text	0000008c flash_unlock_erase_block
07000630 l     F .text	000000cc flash_acquire_write_buffer
070006fc l     F .text	0000008c flash_fill_write_buffer
07000788 l     F .text	000000b4 flash_wait_for_operation_done
0700083c l     F .text	0000011c flash_program_buffer
07000958 l     F .text	00000174 flash_program_within_erase_block
07000acc l     F .text	00000140 flash_program_across_blocks
07000c9c l     F .text	000000b0 flash_erase_block
07000d4c l     F .text	000000f4 flash_erase_across_blocks
00000000 l    df *ABS*	00000000 main.c
00000000 l    df *ABS*	00000000 os_utils.c
00000000 l    df *ABS*	00000000 reconfig_utils.c
00000000 l    df *ABS*	00000000 srec.c
0705fe2c l     O .rwdata	00000100 ctab
0705ff2c l     O .rwdata	00000028 ltab
00000000 l    df *ABS*	00000000 tse_my_system.c
00000000 l    df *ABS*	00000000 webserver.c
07058af0 l     O .rodata	0000015f canned_http_response
07058c50 l     O .rodata	000000eb canned_response2
0706204c l     O .bss	00000004 last_percent_done.6547
07061ebc l     O .rwdata	00000004 flash_base.6544
07061ec0 l     O .rwdata	00000004 flash_offset.6543
07062050 l     O .bss	00000004 start_time.6541
0706225c l     O .bss	0000d7b8 conn.7829
00000000 l    df *ABS*	00000000 lib2-divmod.c
07006e30 l     F .text	0000007c udivmodsi4
00000000 l    df *ABS*	00000000 atoi.c
00000000 l    df *ABS*	00000000 calloc.c
00000000 l    df *ABS*	00000000 mallocr.c
00000000 l    df *ABS*	00000000 ctype_.c
07059d55 l     O .rodata	00000180 _ctype_b
00000000 l    df *ABS*	00000000 fclose.c
00000000 l    df *ABS*	00000000 fflush.c
00000000 l    df *ABS*	00000000 fgetpos.c
00000000 l    df *ABS*	00000000 findfp.c
07007400 l     F .text	00000058 std
0700750c l     F .text	00000008 __fp_lock
07007514 l     F .text	00000008 __fp_unlock
00000000 l    df *ABS*	00000000 fopen.c
00000000 l    df *ABS*	00000000 fread.c
00000000 l    df *ABS*	00000000 mallocr.c
00000000 l    df *ABS*	00000000 fseek.c
00000000 l    df *ABS*	00000000 fstatr.c
00000000 l    df *ABS*	00000000 ftell.c
00000000 l    df *ABS*	00000000 fwalk.c
00000000 l    df *ABS*	00000000 fwrite.c
00000000 l    df *ABS*	00000000 getc.c
00000000 l    df *ABS*	00000000 impure.c
0705ff6c l     O .rwdata	00000400 impure_data
00000000 l    df *ABS*	00000000 int_errno.c
00000000 l    df *ABS*	00000000 makebuf.c
00000000 l    df *ABS*	00000000 malloc.c
00000000 l    df *ABS*	00000000 mallocr.c
00000000 l    df *ABS*	00000000 memchr.c
00000000 l    df *ABS*	00000000 memcmp.c
00000000 l    df *ABS*	00000000 memcpy.c
00000000 l    df *ABS*	00000000 memmove.c
00000000 l    df *ABS*	00000000 memset.c
00000000 l    df *ABS*	00000000 openr.c
00000000 l    df *ABS*	00000000 perror.c
00000000 l    df *ABS*	00000000 putc.c
00000000 l    df *ABS*	00000000 puts.c
00000000 l    df *ABS*	00000000 refill.c
07009978 l     F .text	0000001c lflush
00000000 l    df *ABS*	00000000 rget.c
00000000 l    df *ABS*	00000000 sbrkr.c
00000000 l    df *ABS*	00000000 sprintf.c
00000000 l    df *ABS*	00000000 sscanf.c
07009b38 l     F .text	00000008 eofread
00000000 l    df *ABS*	00000000 stdio.c
00000000 l    df *ABS*	00000000 strcasecmp.c
00000000 l    df *ABS*	00000000 strchr.c
00000000 l    df *ABS*	00000000 strcmp.c
00000000 l    df *ABS*	00000000 strcpy.c
00000000 l    df *ABS*	00000000 strerror.c
00000000 l    df *ABS*	00000000 strlen.c
00000000 l    df *ABS*	00000000 strncmp.c
00000000 l    df *ABS*	00000000 strncpy.c
00000000 l    df *ABS*	00000000 strstr.c
0700a904 l     F .text	00000134 critical_factorization
00000000 l    df *ABS*	00000000 strtok.c
00000000 l    df *ABS*	00000000 strtok_r.c
00000000 l    df *ABS*	00000000 strtol.c
00000000 l    df *ABS*	00000000 u_strerr.c
00000000 l    df *ABS*	00000000 vfprintf.c
0700b3cc l     F .text	00000058 __sprint_r
0705a6f6 l     O .rodata	00000010 blanks.3452
0705a6e6 l     O .rodata	00000010 zeroes.3453
00000000 l    df *ABS*	00000000 vfscanf.c
0705a70e l     O .rodata	00000022 basefix.3357
00000000 l    df *ABS*	00000000 vsprintf.c
00000000 l    df *ABS*	00000000 wbuf.c
00000000 l    df *ABS*	00000000 writer.c
00000000 l    df *ABS*	00000000 wsetup.c
00000000 l    df *ABS*	00000000 closer.c
00000000 l    df *ABS*	00000000 dtoa.c
0700ee58 l     F .text	00000218 quorem
00000000 l    df *ABS*	00000000 flags.c
00000000 l    df *ABS*	00000000 fputc.c
00000000 l    df *ABS*	00000000 fputs.c
00000000 l    df *ABS*	00000000 fvwrite.c
00000000 l    df *ABS*	00000000 isattyr.c
00000000 l    df *ABS*	00000000 iswspace.c
00000000 l    df *ABS*	00000000 locale.c
07061efc l     O .rwdata	00000004 charset
0705a750 l     O .rodata	00000030 lconv
00000000 l    df *ABS*	00000000 lseekr.c
00000000 l    df *ABS*	00000000 mbrtowc.c
00000000 l    df *ABS*	00000000 mbtowc_r.c
00000000 l    df *ABS*	00000000 mprec.c
0705a898 l     O .rodata	0000000c p05.2458
00000000 l    df *ABS*	00000000 readr.c
00000000 l    df *ABS*	00000000 mallocr.c
00000000 l    df *ABS*	00000000 s_isinfd.c
00000000 l    df *ABS*	00000000 s_isnand.c
00000000 l    df *ABS*	00000000 sccl.c
00000000 l    df *ABS*	00000000 sf_nan.c
00000000 l    df *ABS*	00000000 strtod.c
0701271c l     F .text	00000048 match
07060794 l     O .rwdata	00000014 fpi.1950
0705a8b4 l     O .rodata	00000028 tinytens
07060780 l     O .rwdata	00000014 fpinan.1986
00000000 l    df *ABS*	00000000 strtoll_r.c
00000000 l    df *ABS*	00000000 strtoul.c
00000000 l    df *ABS*	00000000 strtoull_r.c
00000000 l    df *ABS*	00000000 ungetc.c
00000000 l    df *ABS*	00000000 gdtoa-gethex.c
07014878 l     F .text	00000024 htinit
07014904 l     F .text	000000b0 rshift
00000000 l    df *ABS*	00000000 gdtoa-hexnan.c
0701516c l     F .text	0000004c L_shift
00000000 l    df *ABS*	00000000 libgcc2.c
00000000 l    df *ABS*	00000000 libgcc2.c
00000000 l    df *ABS*	00000000 libgcc2.c
00000000 l    df *ABS*	00000000 libgcc2.c
00000000 l    df *ABS*	00000000 fp-bit.c
00000000 l    df *ABS*	00000000 fp-bit.c
00000000 l    df *ABS*	00000000 fp-bit.c
00000000 l    df *ABS*	00000000 dp-bit.c
07016230 l     F .text	00000410 _fpadd_parts
00000000 l    df *ABS*	00000000 dp-bit.c
00000000 l    df *ABS*	00000000 dp-bit.c
00000000 l    df *ABS*	00000000 dp-bit.c
00000000 l    df *ABS*	00000000 dp-bit.c
00000000 l    df *ABS*	00000000 dp-bit.c
00000000 l    df *ABS*	00000000 dp-bit.c
00000000 l    df *ABS*	00000000 dp-bit.c
00000000 l    df *ABS*	00000000 dp-bit.c
00000000 l    df *ABS*	00000000 dp-bit.c
00000000 l    df *ABS*	00000000 dp-bit.c
00000000 l    df *ABS*	00000000 dp-bit.c
00000000 l    df *ABS*	00000000 dp-bit.c
00000000 l    df *ABS*	00000000 dp-bit.c
00000000 l    df *ABS*	00000000 libgcc2.c
00000000 l    df *ABS*	00000000 libgcc2.c
00000000 l    df *ABS*	00000000 fp-bit.c
00000000 l    df *ABS*	00000000 fp-bit.c
00000000 l    df *ABS*	00000000 fp-bit.c
00000000 l    df *ABS*	00000000 dp-bit.c
00000000 l    df *ABS*	00000000 dp-bit.c
00000000 l    df *ABS*	00000000 dp-bit.c
00000000 l    df *ABS*	00000000 fp-bit.c
00000000 l    df *ABS*	00000000 alt_fstat.c
07017dbc l     F .text	00000060 alt_get_errno
00000000 l    df *ABS*	00000000 alt_isatty.c
07017edc l     F .text	00000060 alt_get_errno
00000000 l    df *ABS*	00000000 alt_lseek.c
0701802c l     F .text	00000060 alt_get_errno
00000000 l    df *ABS*	00000000 alt_main.c
00000000 l    df *ABS*	00000000 alt_open.c
07018154 l     F .text	000000dc alt_file_locked
070183b8 l     F .text	00000060 alt_get_errno
00000000 l    df *ABS*	00000000 alt_release_fd.c
00000000 l    df *ABS*	00000000 alt_sbrk.c
07061f00 l     O .rwdata	00000004 heap_end
00000000 l    df *ABS*	00000000 alt_tick.c
00000000 l    df *ABS*	00000000 alt_usleep.c
00000000 l    df *ABS*	00000000 alt_env_lock.c
07061f0c l     O .rwdata	00000004 lockid
0706208c l     O .bss	00000004 locks
00000000 l    df *ABS*	00000000 alt_malloc_lock.c
07061f10 l     O .rwdata	00000004 lockid
07062094 l     O .bss	00000004 locks
00000000 l    df *ABS*	00000000 os_core.c
0701a1cc l     F .text	00000044 OS_InitMisc
0701a210 l     F .text	0000006c OS_InitRdyList
0701a374 l     F .text	000000e0 OS_InitTCBList
0701a0f0 l     F .text	000000dc OS_InitEventList
0701a27c l     F .text	0000007c OS_InitTaskIdle
0701a2f8 l     F .text	0000007c OS_InitTaskStat
0701a5e8 l     F .text	00000070 OS_SchedNew
00000000 l    df *ABS*	00000000 os_dbg.c
00000000 l    df *ABS*	00000000 os_flag.c
0701c508 l     F .text	00000110 OS_FlagTaskRdy
0701c260 l     F .text	000001c4 OS_FlagBlock
00000000 l    df *ABS*	00000000 os_mbox.c
00000000 l    df *ABS*	00000000 os_mem.c
00000000 l    df *ABS*	00000000 os_q.c
00000000 l    df *ABS*	00000000 os_sem.c
00000000 l    df *ABS*	00000000 os_task.c
00000000 l    df *ABS*	00000000 os_time.c
00000000 l    df *ABS*	00000000 alt_sys_init.c
070607a8 l     O .rwdata	000000d8 ext_flash
07060880 l     O .rwdata	0000106c jtag_uart
070618ec l     O .rwdata	00000124 lcd
07061a10 l     O .rwdata	00000030 sgdma_rx
07061a40 l     O .rwdata	00000030 sgdma_tx
07061a70 l     O .rwdata	00000030 altera_ro_zipfs
07021cf4 l     F .text	00000038 alt_dev_reg
00000000 l    df *ABS*	00000000 altera_avalon_cfi_flash.c
07021dc8 l     F .text	00000038 alt_flash_device_register
00000000 l    df *ABS*	00000000 altera_avalon_cfi_flash_table.c
07022bb8 l     F .text	0000007c alt_read_16bit_query_entry
00000000 l    df *ABS*	00000000 altera_avalon_jtag_uart_fd.c
00000000 l    df *ABS*	00000000 altera_avalon_jtag_uart_init.c
07023d1c l     F .text	000002c4 altera_avalon_jtag_uart_irq
07023fe0 l     F .text	00000114 altera_avalon_jtag_uart_timeout
00000000 l    df *ABS*	00000000 altera_avalon_jtag_uart_ioctl.c
00000000 l    df *ABS*	00000000 altera_avalon_jtag_uart_read.c
00000000 l    df *ABS*	00000000 altera_avalon_jtag_uart_write.c
00000000 l    df *ABS*	00000000 altera_avalon_lcd_16207.c
07061f8c l     O .rwdata	00000004 colstart
070247f8 l     F .text	000000b8 lcd_write_command
070248b0 l     F .text	000000d4 lcd_write_data
07024984 l     F .text	000000c4 lcd_clear_screen
07024a48 l     F .text	000001ec lcd_repaint_screen
07024c34 l     F .text	000000c8 lcd_scroll_up
07024cfc l     F .text	000002d0 lcd_handle_escape
07025504 l     F .text	000000cc alt_lcd_16207_timeout
00000000 l    df *ABS*	00000000 altera_avalon_lcd_16207_fd.c
00000000 l    df *ABS*	00000000 altera_avalon_sgdma.c
07025e5c l     F .text	00000060 alt_get_errno
07026404 l     F .text	000000c0 alt_avalon_sgdma_irq
00000000 l    df *ABS*	00000000 altera_avalon_timer_sc.c
07026570 l     F .text	00000070 alt_avalon_timer_sc_irq
00000000 l    df *ABS*	00000000 altera_avalon_tse.c
070620ee l     O .bss	00000001 tse_system_count.4487
070620ef l     O .bss	00000001 is_init.4851
00000000 l    df *ABS*	00000000 altera_ro_zipfs.c
0702b9b0 l     F .text	00000074 read_word
0702ba24 l     F .text	00000050 read_word_inc
0702ba74 l     F .text	00000048 read_half_word
0702babc l     F .text	00000050 read_half_word_inc
0702bb0c l     F .text	00000118 check_file_header
0702bd50 l     F .text	000000a0 check_directory_table
0702bdf0 l     F .text	000000ac find_directory_entry
0702be9c l     F .text	00000160 find_file_entry_by_name
0702bffc l     F .text	00000180 find_file_entry
00000000 l    df *ABS*	00000000 ins_tse_mac.c
00000000 l    df *ABS*	00000000 alt_iniche_close.c
00000000 l    df *ABS*	00000000 alt_iniche_dev.c
00000000 l    df *ABS*	00000000 alt_iniche_read.c
00000000 l    df *ABS*	00000000 alt_iniche_write.c
00000000 l    df *ABS*	00000000 ipnet.c
00000000 l    df *ABS*	00000000 ipstart.c
07062104 l     O .bss	00000004 nclosers
0706fa3c l     O .bss	0000003c closers
00000000 l    df *ABS*	00000000 igmp_cmn.c
00000000 l    df *ABS*	00000000 bsdsock.c
00000000 l    df *ABS*	00000000 cksum.c
07061fa8 l     O .rwdata	00000004 cksum_select
00000000 l    df *ABS*	00000000 in_utils.c
0706fa78 l     O .bss	00000018 tistring
00000000 l    df *ABS*	00000000 netmain.c
00000000 l    df *ABS*	00000000 tk_crnos.c
00000000 l    df *ABS*	00000000 dhcpclnt.c
07061ad0 l     O .rwdata	00000028 dhc_state_str
07034320 l     F .text	000000cc dh_getlong
00000000 l    df *ABS*	00000000 dhcputil.c
00000000 l    df *ABS*	00000000 pktalloc.c
00000000 l    df *ABS*	00000000 q.c
00000000 l    df *ABS*	00000000 udp_open.c
07036544 l       .text	00000000 done
070363d4 l       .text	00000000 asm1
07036500 l       .text	00000000 loop0
070363fc l       .text	00000000 loop
0703651c l       .text	00000000 fold
00000000 l    df *ABS*	00000000 brdutils.c
07062164 l     O .bss	00000004 kbd_init.3746
07062170 l     O .bss	00000004 cpu_statusreg
00000000 l    df *ABS*	00000000 osportco.c
00000000 l    df *ABS*	00000000 targnios.c
00000000 l    df *ABS*	00000000 nptcp.c
070621a4 l     O .bss	00000004 in_tcptick
00000000 l    df *ABS*	00000000 rawsock.c
00000000 l    df *ABS*	00000000 sockcall.c
0703b7a8 l     F .text	00000098 sockargs
0703a9e4 l     F .text	000001fc t_getname
00000000 l    df *ABS*	00000000 socket.c
00000000 l    df *ABS*	00000000 socket2.c
00000000 l    df *ABS*	00000000 soselect.c
00000000 l    df *ABS*	00000000 tcp_in.c
00000000 l    df *ABS*	00000000 tcp_out.c
07043adc l     F .text	000000e8 bld_options
00000000 l    df *ABS*	00000000 tcp_subr.c
00000000 l    df *ABS*	00000000 tcp_timr.c
00000000 l    df *ABS*	00000000 tcp_usr.c
00000000 l    df *ABS*	00000000 tcpport.c
00000000 l    df *ABS*	00000000 udpsock.c
00000000 l    df *ABS*	00000000 alt_alarm_start.c
00000000 l    df *ABS*	00000000 alt_busy_sleep.c
00000000 l    df *ABS*	00000000 alt_close.c
07046838 l     F .text	00000060 alt_get_errno
00000000 l    df *ABS*	00000000 alt_dcache_flush.c
00000000 l    df *ABS*	00000000 alt_dev.c
07046910 l     F .text	0000002c alt_dev_null_write
00000000 l    df *ABS*	00000000 alt_dev_llist_insert.c
070469f0 l     F .text	00000060 alt_get_errno
00000000 l    df *ABS*	00000000 alt_do_ctors.c
00000000 l    df *ABS*	00000000 alt_do_dtors.c
00000000 l    df *ABS*	00000000 alt_errno.c
00000000 l    df *ABS*	00000000 alt_find_dev.c
00000000 l    df *ABS*	00000000 alt_find_file.c
00000000 l    df *ABS*	00000000 alt_flash_dev.c
00000000 l    df *ABS*	00000000 alt_fs_reg.c
00000000 l    df *ABS*	00000000 alt_get_fd.c
00000000 l    df *ABS*	00000000 alt_iic.c
00000000 l    df *ABS*	00000000 alt_iic_isr_register.c
00000000 l    df *ABS*	00000000 alt_io_redirect.c
070471ec l     F .text	000000c4 alt_open_fd
00000000 l    df *ABS*	00000000 alt_irq_vars.c
00000000 l    df *ABS*	00000000 alt_read.c
07047448 l     F .text	00000060 alt_get_errno
00000000 l    df *ABS*	00000000 alt_remap_cached.c
00000000 l    df *ABS*	00000000 alt_remap_uncached.c
00000000 l    df *ABS*	00000000 alt_uncached_malloc.c
00000000 l    df *ABS*	00000000 alt_write.c
070476a4 l     F .text	00000060 alt_get_errno
00000000 l    df *ABS*	00000000 altera_nios2_qsys_irq.c
00000040 l       *ABS*	00000000 OSCtxSw_SWITCH_PC
00000000 l    df *ABS*	00000000 os_cpu_c.c
00000014 l       *ABS*	00000000 OSTCBNext_OFFSET
00000032 l       *ABS*	00000000 OSTCBPrio_OFFSET
00000000 l       *ABS*	00000000 OSTCBStkPtr_OFFSET
00000000 l    df *ABS*	00000000 altera_avalon_cfi_flash_amd.c
07047fbc l     F .text	000000bc alt_write_word_amd
07047e98 l     F .text	00000124 alt_wait_for_command_to_complete_amd
00000000 l    df *ABS*	00000000 altera_avalon_cfi_flash_intel.c
07048270 l     F .text	0000018c alt_unlock_block_intel
070483fc l     F .text	000000dc alt_write_word_intel
00000000 l    df *ABS*	00000000 allports.c
070621d4 l     O .bss	00000004 inside_pktdemux
00000000 l    df *ABS*	00000000 timeouts.c
07048974 l     F .text	00000198 check_interval_timers
070621e0 l     O .bss	00000004 numtimers
00000000 l    df *ABS*	00000000 tk_misc.c
00000000 l    df *ABS*	00000000 alt_iniche_fcntl.c
00000000 l    df *ABS*	00000000 et_arp.c
070621e4 l     O .bss	00000004 arp_timer
070621fc l     O .bss	00000004 cachetime
00000000 l    df *ABS*	00000000 iface.c
00000000 l    df *ABS*	00000000 ip.c
07062024 l     O .rwdata	00000004 uid
00000000 l    df *ABS*	00000000 ip_reasm.c
00000000 l    df *ABS*	00000000 ipdemux.c
00000000 l    df *ABS*	00000000 ipmc.c
00000000 l    df *ABS*	00000000 ipport.c
00000000 l    df *ABS*	00000000 ipraw.c
00000000 l    df *ABS*	00000000 iproute.c
00000000 l    df *ABS*	00000000 udp.c
0706222c l     O .bss	00000002 usocket
0706222e l     O .bss	00000002 sbindlist
00000000 l    df *ABS*	00000000 igmp.c
00000000 l    df *ABS*	00000000 igmp2.c
00000000 l    df *ABS*	00000000 ipopt.c
00000000 l    df *ABS*	00000000 u_mctest.c
0706202c l     O .rwdata	00000004 iCounter.4504
00000000 l    df *ABS*	00000000 dhcsetup.c
00000000 l    df *ABS*	00000000 memdev.c
00000000 l    df *ABS*	00000000 parseip.c
0706fa90 l     O .bss	0000001e nearBuf.4182
00000000 l    df *ABS*	00000000 tcpcksum.c
00000000 l    df *ABS*	00000000 in_pcb.c
00000000 l    df *ABS*	00000000 vfsfiles.c
00000000 l    df *ABS*	00000000 vfsport.c
00000000 l    df *ABS*	00000000 alt_fcntl.c
07056a44 l     F .text	00000060 alt_get_errno
00000000 l    df *ABS*	00000000 icmp.c
07061ea4 l     O .rwdata	00000018 dsts
00000000 l    df *ABS*	00000000 atexit.c
00000000 l    df *ABS*	00000000 exit.c
00000000 l    df *ABS*	00000000 vprintf.c
00000000 l    df *ABS*	00000000 __atexit.c
00000000 l    df *ABS*	00000000 __call_atexit.c
07058180 l     F .text	00000004 register_fini
00000000 l    df *ABS*	00000000 alt_exit.c
07058334 l     F .text	00000040 alt_sim_halt
0708fa80 g     O .bss	00000014 soq
07011390 g     F .text	00000094 _mprec_log10
07027944 g     F .text	000000e0 alt_tse_get_mac_info
07061f5e g     O .rwdata	00000002 OSTaskNameSize
0701147c g     F .text	00000088 __any_on
07010cac g     F .text	00000070 _isatty_r
0705a870 g     O .rodata	00000028 __mprec_tinytens
0704aacc g     F .text	00000780 ip_write_internal
0701808c g     F .text	000000c8 alt_main
07009fe4 g     F .text	0000008c strcpy
0706203c g     O .bss	00000004 WebserverStatusMbox
07035c98 g     F .text	000000ac pk_free
07009700 g     F .text	000000a0 _puts_r
07022678 g     F .text	00000048 alt_read_query_entry_32bit
0708fc2c g     O .bss	00000100 alt_irq
07003ff4 g     F .text	000001ac http_send_file_chunk
07061d44 g     O .rwdata	00000009 rtp_priority
07010e0c g     F .text	00000078 _lseek_r
07057a28 g     F .text	00000334 icmp_timex
07037624 g     F .text	00000044 m_freem
070563a8 g     F .text	00000048 vgetc
070366c0 g     F .text	0000001c clock_c
070621bc g     O .bss	00000004 tcp_optionbuf
0704a594 g     F .text	00000084 if_getbynum
0701da88 g     F .text	000000d0 OS_MemInit
0706215c g     O .bss	00000004 dsc_rlyerrs
0706214c g     O .bss	00000004 dsc_releases
07021e00 g     F .text	000002c0 alt_flash_cfi_write
07031ec8 g     F .text	00000074 TK_OSTaskQuery
070363b4 g       .text	00000000 asm_cksum
0702b830 g     F .text	00000100 marvell_cfg_rgmii
070219cc g     F .text	00000064 OSTimeSet
07056288 g     F .text	00000120 vgetc_locked
07036f00 g     F .text	00000020 post_task_setup
0704e4c4 g     F .text	00000354 ipr_stats
07045448 g     F .text	00000134 tcp_attach
07061fb8 g     O .rwdata	00000004 reqlist_len
07039630 g     F .text	00000084 tcp_tick
07031114 g     F .text	00000074 print_ipad
07031dc4 g     F .text	00000104 tcp_wakeup
07010624 g     F .text	000000a0 __sflags
07016d50 g     F .text	00000088 __eqdf2
07062108 g     O .bss	00000004 igmp_timers_are_running
07042368 g     F .text	0000012c tcp_pulloutofband
07028eb0 g     F .text	000001f0 alt_tse_phy_print_profile
07018d48 g     F .text	000006b4 OSEventPendMulti
07002310 g     F .text	00000030 print
07090114 g       *ABS*	00000000 __alt_heap_start
07047b04 g     F .text	00000020 OSTaskCreateHook
0700b154 g     F .text	00000008 strtok_r
07035484 g     F .text	00000074 dhc_ifacedone
0702b5a0 g     F .text	000000a8 marvell_phy_cfg
0704e86c g     F .text	00000400 ip_rcv
07055fd8 g     F .text	0000017c vfseek
0703e1c8 g     F .text	00000120 soqremque
07050890 g     F .text	00000858 udpdemux
0702dba0 g     F .text	00000104 tse_mac_close
07001130 g     F .text	00000114 printf
07062200 g     O .bss	00000004 rt_mib
07061f36 g     O .rwdata	00000002 OSMboxEn
07035394 g     F .text	00000060 dhc_state_init
0700eac4 g     F .text	00000024 vsprintf
070258c8 g     F .text	00000124 alt_avalon_sgdma_do_sync_transfer
07019450 g     F .text	0000007c OSIntEnter
07003560 g     F .text	00000128 http_handle_accept
07001fb0 g     F .text	00000250 srec_encode
07009c54 g     F .text	00000068 __sseek
07007468 g     F .text	000000a4 __sinit
0704f9e4 g     F .text	00000118 in_delmulti
0700eae8 g     F .text	00000130 __swbuf_r
07062218 g     O .bss	00000004 so_evtmap_create
07061f46 g     O .rwdata	00000002 OSQEn
07054558 g     F .text	00000094 in_pcballoc
07061fd4 g     O .rwdata	00000002 socket_defaults
07010d6c g     F .text	00000084 _setlocale_r
07049150 g     F .text	00000498 send_arp
07007568 g     F .text	00000068 __sfmoreglue
07055044 g     F .text	00000368 vfopen_locked
0701485c g     F .text	0000001c ungetc
07018a04 g     F .text	000000d0 __malloc_unlock
07047b60 g     F .text	0000001c OSTaskStatHook
07048858 g     F .text	00000058 prep_modules
07071ab0 g     O .bss	0000002a board_funcs
0703064c g     F .text	000001b8 bsd_i_sockoptlen
0706209c g     O .bss	00000001 OSLockNesting
07061fb0 g     O .rwdata	00000004 xids
07012764 g     F .text	000014e4 _strtod_r
0700a070 g     F .text	00000674 strerror
07071ada g     O .bss	00000100 ws_msg_string
07027ba8 g     F .text	00000e08 getPHYSpeed
070555a4 g     F .text	00000040 vfclose
0708fb20 g     O .bss	0000002c tcb
07061f84 g     O .rwdata	00000002 OSDataSize
070474a8 g     F .text	00000038 alt_remap_cached
0706209d g     O .bss	00000001 OSRunning
0704a2c8 g     F .text	000002cc grat_arp
07006ddc g     F .text	00000054 get_ip_addr
07053f70 g     F .text	000000ac inet_pton
0704a6f8 g     F .text	0000009c reg_type
0708f624 g     O .bss	000000f0 dhc_states
0702f458 g     F .text	00000198 igmp_fasttimo
07055768 g     F .text	0000005c vunlink_flag_open_files
0703513c g     F .text	00000088 dhc_halt
0702601c g     F .text	000003e8 alt_avalon_sgdma_construct_descriptor_burst
07062140 g     O .bss	00000004 dsc_acks
0708fb4c g     O .bss	000000e0 tcpstat
0704dd74 g     F .text	0000035c ip_reasm_copy_queued_fragments_into_reassy_buffer
07037bb4 g     F .text	000000a8 dtom
070439e0 g     F .text	000000fc tcp_setpersist
0703adbc g     F .text	000001a4 t_getsockopt
070092a4 g     F .text	000000e0 memmove
07062150 g     O .bss	00000004 dsc_naks
07038058 g     F .text	000005f8 ip_output
07047ba4 g     F .text	0000001c OSInitHookBegin
07057d5c g     F .text	00000054 icmp_du
07061fac g     O .rwdata	00000004 num_net_tasks
0706223c g     O .bss	00000004 vfiles
07061f7c g     O .rwdata	00000002 OSTmrSize
0705366c g     F .text	00000104 dhc_main_ipset
07007558 g     F .text	00000010 _cleanup
0704ce6c g     F .text	000002e0 ip_reasm_process_first_fragment
07011504 g     F .text	000000bc _Balloc
0700b0b0 g     F .text	000000a4 __strtok_r
07006c40 g     F .text	00000168 get_board_mac_addr
070620a0 g     O .bss	00000004 OSIdleCtr
0702a864 g     F .text	00000194 alt_tse_phy_set_adv_1000
07061f98 g     O .rwdata	00000001 max_mac_system
07052588 g     F .text	000005f0 ip_setmoptions
07002880 g     F .text	000003b0 process_uploaded_data
070388bc g     F .text	00000160 tcp_bsdconnstat
07026ba8 g     F .text	00000a14 alt_tse_system_add_sys
07016e60 g     F .text	00000088 __gtdf2
07053a30 g     F .text	0000002c md_fseek
070477d0 g       .text	00000000 OSStartTsk
00000000  w      *UND*	00000000 __errno
0701a91c g     F .text	000002e0 OS_TCBInit
0704d14c g     F .text	000000a0 ip_reassm
070351c4 g     F .text	000001d0 dhc_reclaim
07022804 g     F .text	00000048 alt_write_flash_command_32bit_device_16bit_mode
0708ff0c g     O .bss	00000010 udp_mib
01bc0000 g     F .entry	00000000 __reset
0703b5f4 g     F .text	000000e4 t_shutdown
0703b050 g     F .text	00000150 t_recvfrom
070032c4 g     F .text	000000f0 http_reset_connection
07061f82 g     O .rwdata	00000002 OSTmrWheelTblSize
07052d6c g     F .text	0000067c u_mctest_run
07025b30 g     F .text	00000070 alt_avalon_sgdma_construct_stream_to_mem_desc_burst
0704fb6c g     F .text	00000094 prep_ifaces
07062124 g     O .bss	00000001 to_netmain
07035904 g     F .text	000000dc pk_alloc
07061f22 g     O .rwdata	00000002 OSEventSize
070620a4 g     O .bss	00000001 OSPrioHighRdy
070082ac g     F .text	00000074 _fstat_r
0705fd0c g     O .rwdata	00000120 tse_mac_device
07031b3c g     F .text	0000004c tk_nettick
07047b24 g     F .text	00000020 OSTaskDelHook
0702231c g     F .text	000002d8 alt_flash_program_block
0706205c g     O .bss	00000004 errno
070099e0 g     F .text	00000014 __srget
0703f4f4 g     F .text	000000cc in_pcbnotify
0700e974 g     F .text	00000024 __svfscanf
070477b0 g       .text	00000000 OSStartHighRdy
0708f714 g     O .bss	00000014 lilfreeq
070012c0 g     F .text	00000624 alt_uCOSIIErrorHandler
0704fc28 g     F .text	00000028 evtmap_setup
0702019c g     F .text	00000200 OSTaskCreateExt
07062128 g     O .bss	00000004 tcp_sleep_timeout
0703ebf4 g     F .text	000001d0 sbdrop
07062214 g     O .bss	00000004 net_system_exit
0708ff1c g     O .bss	00000068 icmp_mib
07044534 g     F .text	00000078 tcp_getseq
07050038 g     F .text	000000cc ip_raw_alloc
0702b0bc g     F .text	000004e4 alt_tse_phy_set_common_speed
0701bd7c g     F .text	00000068 OSFlagPendGetFlagsRdy
07061f62 g     O .rwdata	00000002 OSTaskStatStkSize
0708f0f8 g     O .bss	00000010 pmac_groups
07033368 g     F .text	00000b3c dhc_request
0703c880 g     F .text	000007e4 soreceive
07017648 g     F .text	0000002c __make_fp
0701ad88 g     F .text	00000334 OSFlagAccept
0701e1c0 g     F .text	000000c8 OSQFlush
0701db58 g     F .text	00000154 OSQAccept
0706207c g     O .bss	00000004 alt_argv
07069ebc g       *ABS*	00000000 _gp
0704e818 g     F .text	00000054 ip_reasm_send_icmp_timex
070186dc g     F .text	00000118 usleep
070555e4 g     F .text	00000048 vfflush
0708fa28 g     O .bss	00000040 resid_semaphore
07030fcc g     F .text	00000148 hexdump
0704cd24 g     F .text	000000a8 ip_reasm_incr_mem_useage
07036f58 g     F .text	00000034 calloc2
0702fb04 g     F .text	0000007c igmp_leavegroup
0701ffc8 g     F .text	000001d4 OSTaskCreate
0701fa54 g     F .text	00000574 OSTaskChangePrio
07062098 g     O .bss	00000004 alt_heapsem
07044380 g     F .text	000000e8 tcp_close
0701abfc g     F .text	0000018c OSDebugInit
0702039c g     F .text	0000040c OSTaskDel
07056804 g     F .text	0000006c vferror
07047520 g     F .text	00000064 alt_uncached_malloc
07061b40 g     O .rwdata	0000002c tcpstates
0702669c g     F .text	00000060 tse_mac_initTransInfo2
070515a0 g     F .text	000000c0 udp_alloc
07061bac g     O .rwdata	00000180 alt_fd_list
0708bdf4 g     O .bss	00000370 OSFlagTbl
07005bdc g     F .text	00000190 NetManTask
070621a8 g     O .bss	00000008 mbstat
07008720 g     F .text	00000090 _getc_r
07008688 g     F .text	00000098 getc
07019ecc g     F .text	000000b8 OS_EventTaskRemove
07052178 g     F .text	00000158 igmpv2_chk_set_timer
07031b88 g     F .text	0000002c TK_OSTimeDly
07046b18 g     F .text	00000094 alt_find_dev
07009204 g     F .text	000000a0 memcpy
07026924 g     F .text	00000058 tse_mac_setMIImode
07062158 g     O .bss	00000004 dsc_rebind
070151b8 g     F .text	00000248 __hexnan
07048d54 g     F .text	00000080 task_stats
0703a0e0 g     F .text	0000004c DOMAIN_CHECK
07038650 g     F .text	00000040 in_broadcast
07061f4c g     O .rwdata	00000002 OSRdyTblSize
070289b0 g     F .text	00000048 alt_tse_phy_rd_mdio_addr
07062238 g     O .bss	00000004 vfsystems
070514d0 g     F .text	000000d0 udp_socket
07002cd8 g     F .text	000005ec file_upload
070620f8 g     O .bss	00000004 MaxMtu
0703f188 g     F .text	00000158 sock_selscan
0702c520 g     F .text	0000015c triple_speed_ethernet_init
0700754c g     F .text	0000000c _cleanup_r
07017080 g     F .text	000000f8 __floatsidf
0704cad0 g     F .text	000000d0 ip_reasm_match_frag_with_ire
0703e338 g     F .text	00000050 socantrcvmore
070266fc g     F .text	000000f0 tse_mac_sTxWrite
07009500 g     F .text	00000014 perror
07046d9c g     F .text	00000090 alt_fs_reg
070472b0 g     F .text	00000078 alt_io_redirect
07016f70 g     F .text	00000088 __ltdf2
07062184 g     O .bss	00000004 netq_intmask
07053f00 g     F .text	00000070 hextoa
070583a4 g       *ABS*	00000000 __DTOR_END__
0703b3cc g     F .text	00000228 t_send
0704673c g     F .text	000000fc alt_close
07000f88 g     F .text	00000140 InitialTask
07071bdc g     O .bss	00002000 netman_task_stk
070621b0 g     O .bss	00000002 select_wait
070097a0 g     F .text	00000014 puts
07031660 g     F .text	00000044 std_out
0702c17c g     F .text	00000098 alt_ro_zipfs_open
0708f118 g     O .bss	00000030 tse_iniche_dev_driver_data
070563f0 g     F .text	00000138 vfslookup_locked
0703c068 g     F .text	0000009c soaccept
07018ad4 g     F .text	00000130 OSEventNameGet
07061f30 g     O .rwdata	00000002 OSFlagMax
07010f04 g     F .text	00000040 mbrtowc
0708fa94 g     O .bss	0000003c tcpmib
0703b840 g     F .text	0000009c t_errno
0704fc50 g     F .text	000000f0 ip_raw_open
0700e998 g     F .text	00000068 _vfscanf_r
07034208 g     F .text	00000118 dhc_decline
070112e0 g     F .text	000000b0 __ratio
070194cc g     F .text	00000100 OSIntExit
07062028 g     O .rwdata	00000004 ipRoutes
07055710 g     F .text	00000058 vfeof
0704484c g     F .text	0000005c tcp_canceltimers
07032b30 g     F .text	0000021c dhc_buildheader
07061f6a g     O .rwdata	00000002 OSTCBSize
07025c14 g     F .text	00000084 alt_avalon_sgdma_construct_mem_to_stream_desc_burst
070620a5 g     O .bss	00000001 OSPrioCur
0702425c g     F .text	000002c0 altera_avalon_jtag_uart_read
07008958 g     F .text	00000014 malloc
07062234 g     O .bss	00000004 inpcb_cachemiss
07054108 g     F .text	000000c4 inet46_addr
07062230 g     O .bss	00000004 inpcb_cachehits
07006f6c g     F .text	00000008 __udivsi3
07061b6c g     O .rwdata	0000000b tcp_outflags
0708f148 g     O .bss	00000130 tse
07017e1c g     F .text	000000c0 isatty
070275bc g     F .text	00000178 alt_tse_sys_enable_mdio_sharing
07061f50 g     O .rwdata	00000002 OSStkWidth
07010d1c g     F .text	0000002c iswspace
0705a780 g     O .rodata	000000c8 __mprec_tens
07054ea0 g     F .text	0000007c vf_alloc_and_link_vop
07061f44 g     O .rwdata	00000002 OSPtrSize
07062204 g     O .bss	00000004 ipr_curr_mem
0702f0e4 g     F .text	0000006c exit_hook
0706210c g     O .bss	00000004 igmp_cticks
070278b8 g     F .text	0000008c alt_tse_get_mac_info_index
07057db0 g     F .text	0000021c icmp_stats
07062198 g     O .bss	00000004 mheap_sem_ptr
07042700 g     F .text	00000048 ip4_tcpmss
07010d48 g     F .text	00000008 __locale_charset
070050d4 g     F .text	000003d4 http_handle_receive
07061f24 g     O .rwdata	00000002 OSEventTblSize
0708fe90 g     O .bss	00000014 netlist
0703d064 g     F .text	000000a8 soshutdown
07015498 g     F .text	000000a4 __fixunsdfsi
07047724 g       .text	00000000 OSCtxSw
070487e8 g     F .text	0000004c packet_check
07033ea4 g     F .text	00000280 dhc_setip
0708fad0 g     O .bss	00000014 mbufq
0703c018 g     F .text	00000050 soabort
07062060 g     O .bss	00000004 __malloc_top_pad
0700382c g     F .text	00000224 http_process_headers
070620a8 g     O .bss	00000004 OSTCBList
07035f88 g     F .text	00000110 qdel
0704865c g     F .text	00000150 station_state
070501a0 g     F .text	00000184 rt_lookup
070621c8 g     O .bss	00000004 alt_fd_list_lock
070142d0 g     F .text	00000024 strtoul
07061ef8 g     O .rwdata	00000004 __mb_cur_max
0702fb80 g     F .text	0000035c igmp_validate
07010d50 g     F .text	0000000c _localeconv_r
0702ee00 g     F .text	000002e4 ip_startup
070142f4 g     F .text	000002f0 _strtoull_r
0703a41c g     F .text	00000298 t_accept
0703ddb8 g     F .text	0000008c soisdisconnecting
07011bfc g     F .text	0000003c __i2b
07010810 g     F .text	0000049c __sfvwrite_r
07025d3c g     F .text	00000058 alt_avalon_sgdma_stop
07000c0c g     F .text	00000090 flash_intel_p30_write
0702e7b8 g     F .text	000003d4 pktdemux
0708c164 g     O .bss	00000c30 OSMemTbl
070620ac g     O .bss	00000001 OSTickStepState
07038e94 g     F .text	000000a0 mbuf_list
07028a4c g     F .text	00000128 alt_tse_phy_wr_mdio_reg
07036578 g     F .text	000000ac kbhit
0703abe0 g     F .text	000001dc t_setsockopt
070099f4 g     F .text	00000070 _sbrk_r
07048078 g     F .text	00000084 alt_program_intel
07061d2c g     O .rwdata	00000018 icmpdu_types
070290a0 g     F .text	0000070c alt_tse_mac_group_init
070557c4 g     F .text	00000220 vunlink
0702c8e0 g     F .text	00000ae8 tse_mac_init
07062054 g     O .bss	00000004 line_count
07061f48 g     O .rwdata	00000002 OSQMax
07030e0c g     F .text	000000b0 ccksum
07054f1c g     F .text	000000d8 vf_alloc_buffer
07062228 g     O .bss	00000004 cachedRoute
07061fbc g     O .rwdata	00000004 lilbufs
0708cd94 g     O .bss	00000800 OSTaskStatStk
07053a5c g     F .text	00000024 md_ftell
07030ebc g     F .text	00000068 cksum
07002200 g     F .text	00000110 srec_strerror
0701d670 g     F .text	0000010c OSMemNameGet
0703bbf4 g     F .text	00000130 sofree
07062100 g     O .bss	00000004 ifNumber
07061f28 g     O .rwdata	00000002 OSFlagEn
07011f78 g     F .text	00000078 _read_r
07061f6e g     O .rwdata	00000002 OSTimeTickHookEn
07046898 g     F .text	00000078 alt_dcache_flush
0701e724 g     F .text	00000180 OSQPost
0701c618 g     F .text	000000ac OS_FlagUnlink
07060774 g     O .rwdata	0000000c __lc_ctype
07061ffc g     O .rwdata	00000004 alt_max_fd
070225f4 g     F .text	00000040 alt_read_query_entry_8bit
0701a4a8 g     F .text	0000006c OS_MemCopy
07061fc4 g     O .rwdata	00000004 bigbufs
0704557c g     F .text	000000d4 tcp_disconnect
0701a514 g     F .text	000000d4 OS_Sched
07017988 g     F .text	00000138 __unpack_d
07007064 g     F .text	00000110 _fclose_r
0701d56c g     F .text	00000104 OSMemGet
07004974 g     F .text	00000314 http_find_file
0701d220 g     F .text	00000130 OSMboxQuery
07020ad0 g     F .text	000001c4 OSTaskNameSet
07002534 g     F .text	00000258 http_parse_multipart_header
070480fc g     F .text	00000174 alt_erase_block_intel
07007384 g     F .text	00000034 fflush
07062064 g     O .bss	00000004 __malloc_max_sbrked_mem
070620b0 g     O .bss	00000004 OSCtxSwCtr
0708f59c g     O .bss	00000064 igmpstats
07047b7c g     F .text	00000028 OSTimeTickHook
07033264 g     F .text	00000104 dhc_rx_offer
07030804 g     F .text	00000120 bsd_getsockopt
07061f32 g     O .rwdata	00000002 OSFlagNameSize
0708fef4 g     O .bss	00000018 ire_stats
070457ec g     F .text	000001b8 udp_soinput
07035ed8 g     F .text	000000b0 putq
0706fab0 g     O .bss	00001000 lcd_task_stk
070516cc g     F .text	00000090 udp_stats
07019f84 g     F .text	00000104 OS_EventTaskRemoveMulti
07062120 g     O .bss	00000004 iniche_net_ready
070166c0 g     F .text	00000074 __adddf3
070160c8 g     F .text	00000078 __nesf2
07019d78 g     F .text	00000154 OS_EventTaskWaitMulti
070567bc g     F .text	00000048 isvfile
0703d20c g     F .text	000004c0 sosetopt
070319c0 g     F .text	000000f4 netmain
07042748 g     F .text	0000011c tcp_mss
070111c0 g     F .text	00000120 __b2d
07053b7c g     F .text	0000031c parse_ipad
07054e80 g     F .text	00000020 get_vfopen_error
07061f4a g     O .rwdata	00000002 OSQSize
07015b18 g     F .text	000005b0 __umoddi3
07017f3c g     F .text	000000f0 lseek
070488b0 g     F .text	000000c4 inet_timer
0701f300 g     F .text	0000027c OSSemPend
070058a0 g     F .text	00000060 resume_network_tasks
07028c38 g     F .text	00000278 alt_tse_phy_add_profile_default
0702a324 g     F .text	00000540 alt_tse_phy_get_cap
07061eec g     O .rwdata	00000004 _global_impure_ptr
070312f8 g     F .text	00000164 print_eth
070553ac g     F .text	00000050 vfopen
07047328 g     F .text	00000120 alt_read
07011ff0 g     F .text	000005f4 _realloc_r
07061f34 g     O .rwdata	00000002 OSLowestPrio
07090114 g       *ABS*	00000000 __bss_end
070470f4 g     F .text	000000f8 alt_iic_isr_register
0702578c g     F .text	0000013c alt_avalon_sgdma_do_async_transfer
070374f0 g     F .text	00000134 m_free
07047bf8 g     F .text	00000020 OSTCBInitHook
0702db60 g     F .text	00000040 tse_mac_stats
070359e0 g     F .text	000002b8 pk_validate
07061f7a g     O .rwdata	00000002 OSTmrCfgTicksPerSec
070185cc g     F .text	00000110 alt_tick
07054bfc g     F .text	0000025c in_pcblookup
070355a8 g     F .text	000000cc find_opt
0701cf60 g     F .text	00000134 OSMboxPost
0708bcf4 g     O .bss	00000100 __hexdig
0701553c g     F .text	000005dc __udivdi3
07037348 g     F .text	000001a8 m_getnbuf
07035d64 g     F .text	000000ac dump_buf_estats
0702a1e0 g     F .text	00000144 alt_tse_phy_check_link
070621f8 g     O .bss	00000004 arpRepsOut
07061f1c g     O .rwdata	00000002 OSEventEn
0705a848 g     O .rodata	00000028 __mprec_bigtens
07011e58 g     F .text	00000120 __s2b
07061f76 g     O .rwdata	00000002 OSTmrCfgNameSize
070172c4 g     F .text	00000194 __floatunsidf
070484d8 g     F .text	000000fc netmain_init
0702b73c g     F .text	000000f4 marvell_cfg_sgmii
0702a030 g     F .text	000001b0 alt_tse_phy_restart_an
070110e0 g     F .text	00000060 __mcmp
0706213c g     O .bss	00000004 dsc_requests
07043d34 g     F .text	00000488 tcp_respond
07045c28 g     F .text	0000033c udp4_sockbind
07061ee4 g     O .rwdata	00000004 __ctype_ptr
07062188 g     O .bss	00000004 old_mode
0702f898 g     F .text	0000026c igmp_joingroup
070392d8 g     F .text	00000358 so_icmpdu
07007534 g     F .text	00000018 __fp_lock_all
07062248 g     O .bss	00000004 vfs_dir_stale
070470ac g     F .text	00000048 alt_ic_irq_enabled
0708f108 g     O .bss	00000010 pphy_profiles
0704e0d0 g     F .text	000000e4 ip_reasm_process_timer_tick
07056870 g     F .text	0000005c vclearerr
07030d20 g     F .text	000000ec bsd_setsockopt
07037b5c g     F .text	00000058 mbuf_len
0701c424 g     F .text	000000e4 OS_FlagInit
07018534 g     F .text	00000098 alt_alarm_stop
07056570 g     F .text	000001e8 strippath
07061fb4 g     O .rwdata	00000004 reqlist
07031c24 g     F .text	000001a0 tcp_sleep
0700b3a0 g     F .text	00000024 strtol
07032300 g     F .text	00000830 dhc_upcall
07045650 g     F .text	000000e0 tcp_usrclosed
08000000 g       *ABS*	00000000 __alt_mem_descriptor_memory
07062174 g     O .bss	00000004 cticks_factor
07061f58 g     O .rwdata	00000002 OSTaskIdleStkSize
07054640 g     F .text	00000254 in_pcbbind
070621cc g     O .bss	00000004 alt_irq_active
0701ee8c g     F .text	000000c0 OSSemAccept
0701d89c g     F .text	000000f0 OSMemPut
0702c310 g     F .text	00000148 alt_ro_zipfs_seek
0701d350 g     F .text	0000021c OSMemCreate
070620b4 g     O .bss	00000004 OSIdleCtrMax
082000ec g     F .exceptions	000000d0 alt_irq_handler
07061b84 g     O .rwdata	00000028 alt_dev_null
07061fd6 g     O .rwdata	00000001 tcprexmtthresh
07061f6c g     O .rwdata	00000002 OSTicksPerSec
0704a794 g     F .text	00000098 if_killsocks
0704b24c g     F .text	00000248 ip_write
0704ec6c g     F .text	0000060c ip_rcv_phase2
0703a9a0 g     F .text	00000044 t_getsockname
0703a6b4 g     F .text	000002a8 t_connect
07061fd0 g     O .rwdata	00000004 TCPTV_MSL
0708f728 g     O .bss	00000010 memestats
070033b4 g     F .text	000001ac http_manage_connection
07029f1c g     F .text	00000114 alt_tse_phy_init
07036624 g     F .text	00000060 getch
070174d8 g     F .text	000000c8 __unpack_f
07022b0c g     F .text	000000ac alt_set_flash_algorithm_func
07061e24 g     O .rwdata	00000080 vfs_root_path
0703a95c g     F .text	00000044 t_getpeername
07025d94 g     F .text	00000070 alt_avalon_sgdma_check_descriptor_status
0704cdcc g     F .text	000000a0 ip_reasm_decr_mem_useage
0703e4c4 g     F .text	00000080 soreserve
07047724 g       .text	00000000 OSIntCtxSw
07005060 g     F .text	00000074 http_prepare_response
07036f8c g     F .text	000000f4 npalloc
070073b8 g     F .text	0000002c _fgetpos_r
07010fac g     F .text	00000070 __hi0bits
07062224 g     O .bss	00000004 ipraw_eps
07035674 g     F .text	00000290 pk_init
07053830 g     F .text	00000180 md_fread
0702d3c8 g     F .text	000002f8 tse_mac_raw_send
07017178 g     F .text	000000d8 __fixdfsi
07006f94 g     F .text	0000001c calloc
0708fd2c g     O .bss	00000064 intimers
0703e5a4 g     F .text	00000048 sbrelease
0703f628 g     F .text	000000f0 ifd_clr
070018e4 g     F .text	00000110 InitializePFLOptionBits
0703eed4 g     F .text	00000094 sbdroprecord
0703145c g     F .text	00000080 uslash
07047584 g     F .text	00000120 alt_write
070226c0 g     F .text	0000003c alt_write_flash_command_8bit_device_8bit_mode
070621f4 g     O .bss	00000004 arpRepsIn
07032170 g     F .text	00000090 dhc_get_srv_ipaddr
07048b0c g     F .text	0000017c in_timerset
07013d6c g     F .text	0000001c strtod
070620b8 g     O .bss	00000004 OSTCBFreeList
0701f57c g     F .text	0000017c OSSemPendAbort
07042864 g     F .text	0000117c tcp_output
070621d0 g     O .bss	00000004 activehost
07061ff4 g     O .rwdata	00000008 alt_dev_list
07031794 g     F .text	0000022c parse_args
0706218c g     O .bss	00000004 global_TCPwakeup_setIndx
07010728 g     F .text	00000058 _fputc_r
0702deb4 g     F .text	00000070 write
07025f44 g     F .text	0000007c alt_avalon_sgdma_enable_desc_poll
07037080 g     F .text	000000b8 npfree
07009618 g     F .text	000000e8 _putc_r
070498a4 g     F .text	00000294 arpReply
07030f50 g     F .text	0000007c nextarg
07061f70 g     O .rwdata	00000002 OSVersionNbr
0704d77c g     F .text	00000594 ip_reasm_process_subsequent_fragments
07062034 g     O .rwdata	00000004 pton_error
07062130 g     O .bss	00000004 dsc_errors
07016140 g     F .text	00000078 __gtsf2
07006204 g     F .text	000001d0 in_chars
0708f278 g     O .bss	00000014 rcvdq
0703f5c0 g     F .text	00000068 tcp_notify
07017ce8 g     F .text	000000d4 fstat
07001244 g     F .text	0000007c fprintf
0703c104 g     F .text	000000d4 soconnect
07050144 g     F .text	0000005c ip_raw_maxalloc
07073bdc g     O .bss	0000c000 http_rx_buffer
07016ff8 g     F .text	00000088 __ledf2
0702b930 g     F .text	00000080 DP83848C_link_status_read
07032d4c g     F .text	00000518 dhc_discover
070239c0 g     F .text	000000dc alt_check_primary_table
07054b80 g     F .text	0000007c in_setpeeraddr
07061f18 g     O .rwdata	00000004 OSEndiannessTest
07036684 g     F .text	0000003c clock_init
0705562c g     F .text	000000e4 vfgets
07048ed8 g     F .text	0000017c et_send
07011d38 g     F .text	00000120 __pow5mult
0706206c g     O .bss	00000004 __nlocale_changed
07006f74 g     F .text	00000008 __umodsi3
07022150 g     F .text	00000068 alt_flash_cfi_read
07022894 g     F .text	00000034 alt_write_native_8bit
07053e98 g     F .text	00000068 inet_addr
0704cc8c g     F .text	00000098 ip_reasm_check_mem_useage
0703d10c g     F .text	00000100 sorflush
0705802c g     F .text	00000020 vprintf
0708f83c g     O .bss	000000fc global_tcb_ext
0704b91c g     F .text	00000488 ip_fragment_lc
0708f28c g     O .bss	00000300 netstatic
0703a1bc g     F .text	0000017c t_bind
07025ba0 g     F .text	00000074 alt_avalon_sgdma_construct_mem_to_stream_desc
07061f2a g     O .rwdata	00000002 OSFlagGrpSize
070362d0 g     F .text	000000e4 udp_close
07025c98 g     F .text	00000050 alt_avalon_sgdma_register_callback
07036c70 g     F .text	0000021c alt_iniche_init
07090114 g       *ABS*	00000000 end
070368a8 g     F .text	00000088 UNLOCK_NET_RESOURCE
0702c67c g     F .text	00000264 prep_tse_mac
0703af60 g     F .text	000000f0 t_recv
07017b88 g     F .text	00000160 __pack_f
070226fc g     F .text	0000007c alt_write_flash_command_16bit_device_8bit_mode
07024fcc g     F .text	00000538 altera_avalon_lcd_16207_write
07000000 g       *ABS*	00000000 __alt_mem_ssram
070559e4 g     F .text	000001ac vfread
0702e6d0 g     F .text	000000e8 netclose
07006f7c g     F .text	0000000c _atoi_r
070269d0 g     F .text	000001d8 alt_tse_phy_add_profile
07008288 g     F .text	00000024 fseek
07022c34 g     F .text	000005e0 alt_read_cfi_table
07061fe0 g     O .rwdata	00000004 tcp_keepintvl
07038f34 g     F .text	0000025c sock_list
07023be4 g     F .text	00000138 altera_avalon_jtag_uart_init
0701a78c g     F .text	000000c8 OS_TaskStat
07062134 g     O .bss	00000004 dsc_discovers
07061f88 g     O .rwdata	00000004 tse_mac_name
07062044 g     O .bss	00000004 OSPrintfSem
07061af8 g     O .rwdata	00000018 tcp_protosw
070583a0 g       *ABS*	00000000 __CTOR_LIST__
07062244 g     O .bss	00000004 vfopen_error
07200000 g       *ABS*	00000000 __alt_stack_pointer
070621c0 g     O .bss	00000004 tcp_maxidle
07062160 g     O .bss	00000004 firstudp
07025fc0 g     F .text	0000005c alt_avalon_sgdma_disable_desc_poll
070265e0 g     F .text	00000090 alt_avalon_timer_sc_init
07017458 g     F .text	00000080 __clzsi2
0702451c g     F .text	000002dc altera_avalon_jtag_uart_write
070259ec g     F .text	00000070 alt_avalon_sgdma_construct_mem_to_mem_desc
07021d2c g     F .text	0000009c alt_flash_cfi_init
07007458 g     F .text	00000004 __sfp_lock_acquire
070090ac g     F .text	000000e4 memchr
0701a454 g     F .text	00000054 OS_MemClr
0700b424 g     F .text	00001eac ___vfprintf_internal_r
070477f4 g     F .text	00000310 OSTaskStkInit
07009ad8 g     F .text	00000060 _sprintf_r
07025adc g     F .text	00000054 alt_avalon_sgdma_construct_stream_to_mem_desc
07007b38 g     F .text	00000314 _free_r
070522d0 g     F .text	00000170 igmpv2_chk4_rtr_alert_opt
07005508 g     F .text	00000230 send_ip_addr
070054a8 g     F .text	00000060 http_handle_transmit
0703b6d8 g     F .text	000000d0 t_socketclose
07019ad4 g     F .text	00000194 OS_EventTaskRdy
07058184 g     F .text	000001b0 __call_exitprocs
07009994 g     F .text	0000004c __srget_r
07003734 g     F .text	000000f8 http_parse_type_boundary
0702d6c0 g     F .text	000000a8 tse_sgdmaRx_isr
070620bc g     O .bss	00000001 OSCPUUsage
0708f58c g     O .bss	00000010 nets
070367e8 g     F .text	000000c0 LOCK_NET_RESOURCE
07034124 g     F .text	000000e4 dhc_resetip
07062070 g     O .bss	00000004 __mlocale_changed
0702d910 g     F .text	00000250 tse_mac_rcv
0703a12c g     F .text	00000090 t_socket
07061ef4 g     O .rwdata	00000004 __malloc_sbrk_base
07000f04 g     F .text	00000084 LCDTask
07000000 g     F .text	00000048 _start
07048e84 g     F .text	00000054 etainit
07062084 g     O .bss	00000004 _alt_tick_rate
07048834 g     F .text	00000024 mcastlist
0701e288 g     F .text	00000320 OSQPend
0700aa38 g     F .text	00000660 strstr
0708f738 g     O .bss	000000f0 pktlog
07013d88 g     F .text	00000318 _strtoll_r
07051de0 g     F .text	0000014c igmpv2_process_report
0703f78c g     F .text	00000080 ifd_isset
0705074c g     F .text	00000144 del_route
07025e04 g     F .text	00000058 alt_avalon_sgdma_open
0700b3c4 g     F .text	00000008 _user_strerror
07021494 g     F .text	0000014c OSTimeDly
07006da8 g     F .text	00000034 get_mac_addr
0703bb04 g     F .text	000000f0 solisten
07005e4c g     F .text	00000388 WSTask
070118c8 g     F .text	0000014c __lshift
07062088 g     O .bss	00000004 _alt_nticks
07028b74 g     F .text	000000c4 alt_tse_phy_rd_mdio_reg
0702de3c g     F .text	00000078 read
07021a64 g     F .text	00000290 alt_sys_init
07038b10 g     F .text	00000200 tcp_bsdrcvstat
07044468 g     F .text	0000004c tcp_quench
0707fbdc g     O .bss	00000104 frag
070314dc g     F .text	00000184 ns_printf
0700941c g     F .text	00000078 _open_r
0704a618 g     F .text	000000e0 isbcast
07036930 g     F .text	00000214 TK_NEWTASK
0705804c g     F .text	00000134 __register_exitproc
070620bd g     O .bss	00000001 OSTaskCtr
0704cba0 g     F .text	000000ec ip_reasm_determine_type_of_frag
070620ec g     O .bss	00000001 phy_profile_count
070391f4 g     F .text	000000e4 socket_queue_name
0700a758 g     F .text	000000f0 strncmp
07027838 g     F .text	00000080 alt_tse_get_mac_group_index
07005b58 g     F .text	00000084 net_init
07022634 g     F .text	00000044 alt_read_query_entry_16bit
070215e0 g     F .text	00000178 OSTimeDlyHMSM
070474e0 g     F .text	00000040 alt_remap_uncached
0705175c g     F .text	0000023c udpsock_list
0704fd40 g     F .text	000000c0 ip_raw_close
07011a14 g     F .text	000001e8 __multiply
07061d74 g     O .rwdata	000000b0 mdlist
070240f4 g     F .text	00000074 altera_avalon_jtag_uart_close
0702f360 g     F .text	000000f8 igmp_input
0704b844 g     F .text	000000d8 ip_raw_write
07055b90 g     F .text	000003e8 vfwrite_locked
0700a848 g     F .text	000000bc strncpy
07062138 g     O .bss	00000004 dsc_offers
0706fa14 g     O .bss	00000028 __malloc_current_mallinfo
07061f1e g     O .rwdata	00000002 OSEventMax
070541cc g     F .text	00000074 inet_setport
0702292c g     F .text	000001e0 alt_set_flash_width_func
070115c0 g     F .text	0000017c __d2b
07009d98 g     F .text	000000b0 strcasecmp
0701f6f8 g     F .text	00000128 OSSemPost
070421d8 g     F .text	00000190 tcp_dooptions
0703dcbc g     F .text	000000fc soisconnected
07002c30 g     F .text	000000a8 lookup_flash_offset
07019658 g     F .text	000000e4 OSSchedUnlock
0704fc00 g     F .text	00000028 netexit
0706211c g     O .bss	00000004 nettick_wakes
070289f8 g     F .text	00000054 alt_tse_phy_wr_mdio_addr
070621b4 g     O .bss	00000001 tcpprintfs
07048c88 g     F .text	000000a8 in_timerkill
07051c80 g     F .text	00000160 igmpv2_input
07062148 g     O .bss	00000004 dsc_declines
07023a9c g     F .text	00000058 altera_avalon_jtag_uart_read_fd
070140a0 g     F .text	00000230 _strtoul_r
07030f24 g     F .text	0000002c do_trap
07046e2c g     F .text	000000f4 alt_get_fd
07030924 g     F .text	00000104 bsd_ioctl
070620c0 g     O .bss	00000004 OSMemFreeList
070197ac g     F .text	000000ac OSStatInit
07037e6c g     F .text	000001ec tcp_rcv
070312b4 g     F .text	00000044 panic
0706224c g     O .bss	00000004 vfs_open_files
0702ec5c g     F .text	000001a4 ip2mac
070465f0 g     F .text	0000014c alt_busy_sleep
0701c18c g     F .text	000000d4 OSFlagQuery
07017ac0 g     F .text	000000c8 __fpcmp_parts_d
0703f2e0 g     F .text	00000214 sock_select
070533e8 g     F .text	00000284 dhc_setup
07043bc4 g     F .text	00000058 tcp_init
07062190 g     O .bss	00000004 cticks
07062125 g     O .bss	00000001 to_nettick
07061f54 g     O .rwdata	00000002 OSTaskCreateExtEn
0700ede8 g     F .text	00000070 _close_r
0702df24 g     F .text	0000064c Netinit
07036f20 g     F .text	00000038 prep_armintcp
0704f87c g     F .text	00000168 in_addmulti
07043c1c g     F .text	00000118 tcp_template
0702ada0 g     F .text	0000031c alt_tse_phy_get_common_speed
07037c5c g     F .text	00000070 remque
07047c80 g     F .text	00000218 alt_erase_block_amd
0700b098 g     F .text	00000018 strtok
07058018 g     F .text	00000014 _vprintf_r
0703f87c g     F .text	00000408 tcp_reass
0705438c g     F .text	000001cc tcp_cksum
07045f64 g     F .text	000003dc udp4_socksend
070553fc g     F .text	000001a8 vfclose_locked
0703f718 g     F .text	00000074 ifd_set
07009190 g     F .text	00000074 memcmp
07019ab8 g     F .text	0000001c OS_Dummy
07023b4c g     F .text	00000048 altera_avalon_jtag_uart_close_fd
070354f8 g     F .text	000000b0 dhc_set_state
070620fc g     O .bss	00000004 NDEBUG
07090114 g       *ABS*	00000000 __alt_stack_base
07023b94 g     F .text	00000050 altera_avalon_jtag_uart_ioctl_fd
0703e544 g     F .text	00000060 sbreserve
070620ed g     O .bss	00000001 mac_group_count
0704fe00 g     F .text	00000238 ip_raw_input
070085ac g     F .text	0000009c _fwrite_r
07061fc0 g     O .rwdata	00000004 lilbufsiz
0703f80c g     F .text	00000070 ifd_get
0703e428 g     F .text	0000009c sbwakeup
07009bc8 g     F .text	00000084 sscanf
0700ecac g     F .text	0000013c __swsetup_r
07023214 g     F .text	000007ac alt_read_cfi_width
0708d594 g     O .bss	000001e0 OSQTbl
07042494 g     F .text	0000026c tcp_xmit_timer
0702d768 g     F .text	000001a8 tse_sgdma_read_init
07016af8 g     F .text	00000258 __divdf3
070075d0 g     F .text	000000f0 __sfp
0704a928 g     F .text	000001a4 ip_bldhead
07011424 g     F .text	00000058 __copybits
0703e5ec g     F .text	000000a8 sbappend
0706036c g     O .rwdata	00000408 __malloc_av_
07007464 g     F .text	00000004 __sinit_lock_release
070620c4 g     O .bss	00000004 OSTCBHighRdy
07016734 g     F .text	000003c4 __muldf3
0704b494 g     F .text	000003b0 ip_write2
07009d38 g     F .text	00000060 __sread
07062020 g     O .rwdata	00000004 arp_ageout
070079cc g     F .text	00000040 fread
070620c8 g     O .bss	00000004 OSQFreeList
070297ac g     F .text	00000418 alt_tse_mac_get_phy
0704a82c g     F .text	000000fc ip_init
07046bac g     F .text	00000120 alt_find_file
07050104 g     F .text	00000040 ip_raw_free
07049790 g     F .text	00000114 make_arp_entry
0704693c g     F .text	000000b4 alt_dev_llist_insert
070188fc g     F .text	00000108 __malloc_lock
07018478 g     F .text	000000bc sbrk
0704577c g     F .text	00000070 udp_lookup
07025ce8 g     F .text	00000054 alt_avalon_sgdma_start
07018c04 g     F .text	00000144 OSEventNameSet
07007188 g     F .text	000001fc _fflush_r
07027b10 g     F .text	00000098 alt_tse_mac_set_duplex
07006fb0 g     F .text	000000b4 _calloc_r
070620cc g     O .bss	00000001 OSRdyGrp
070537e8 g     F .text	00000028 md_fopen
07061b10 g     O .rwdata	00000018 udp_protosw
07062004 g     O .rwdata	00000008 alt_flash_dev_list
070227c0 g     F .text	00000044 alt_write_flash_command_16bit_device_16bit_mode
07054b04 g     F .text	0000007c in_setsockaddr
070077b4 g     F .text	0000001c fopen
0706203c g       *ABS*	00000000 __bss_start
0703e694 g     F .text	000000e0 sbappendrecord
0708fea4 g     O .bss	00000050 ip_mib
07009384 g     F .text	00000098 memset
0703c1d8 g     F .text	000000a0 sodisconnect
070010c8 g     F .text	00000068 main
07062080 g     O .bss	00000004 alt_envp
07062068 g     O .bss	00000004 __malloc_max_total_mem
0703798c g     F .text	000001d0 m_adj
07023af4 g     F .text	00000058 altera_avalon_jtag_uart_write_fd
07008418 g     F .text	00000014 ftell
0700ec18 g     F .text	0000001c __swbuf
07053a80 g     F .text	000000d8 md_fgetc
0705aa1c g     O .rodata	00000100 OSUnMapTbl
0704c474 g     F .text	000002b8 ip_dump
07031f68 g     F .text	00000208 tk_stats
070161b8 g     F .text	00000078 __ltsf2
070077d0 g     F .text	000001fc _fread_r
07061f9c g     O .rwdata	00000008 alt_iniche_dev_list
070255d0 g     F .text	00000164 altera_avalon_lcd_16207_init
07062040 g     O .bss	00000004 global_show_stack_usage
07061f90 g     O .rwdata	00000008 alt_sgdma_list
07061f4e g     O .rwdata	00000002 OSSemEn
07049f40 g     F .text	00000270 arp_stats
07062178 g     O .bss	00000004 OS_TPS
070398f8 g     F .text	000007e8 rawip_usrreq
07000e40 g     F .text	00000078 flash_intel_p30_erase
0701bde4 g     F .text	000003a8 OSFlagPost
07009c4c g     F .text	00000008 __sclose
070540a8 g     F .text	00000060 print46_addr
07200000 g       *ABS*	00000000 __alt_heap_limit
07007174 g     F .text	00000014 fclose
07019c68 g     F .text	00000110 OS_EventTaskWait
07017250 g     F .text	00000074 __truncdfsf2
0700b15c g     F .text	00000244 _strtol_r
07031188 g     F .text	0000012c print_uptime
0701a854 g     F .text	000000c8 OS_TaskStatStkChk
0708ff84 g     O .bss	00000190 _atexit0
070207a8 g     F .text	00000170 OSTaskDelReq
0700f070 g     F .text	000015b4 _dtoa_r
0700896c g     F .text	00000740 _malloc_r
07053b58 g     F .text	00000024 md_unlink
07026890 g     F .text	00000094 tse_mac_SwReset
0707fce0 g     O .bss	00000014 progress
070545ec g     F .text	00000054 in_pcbdetach
07062000 g     O .rwdata	00000004 alt_errno
0704f6a8 g     F .text	000001d4 ip_stats
07062030 g     O .rwdata	00000004 mdlist_size
0701973c g     F .text	00000070 OSStart
070145e4 g     F .text	000000dc __submore
0702284c g     F .text	00000048 alt_write_flash_command_32bit_device_32bit_mode
07003d30 g     F .text	000002c4 send_progress
07052d3c g     F .text	00000030 u_mctest_init
070188a0 g     F .text	0000005c __env_unlock
070084f4 g     F .text	000000b8 _fwalk
070073e4 g     F .text	0000001c fgetpos
07020c94 g     F .text	00000218 OSTaskResume
0701d98c g     F .text	000000fc OSMemQuery
07054240 g     F .text	0000014c convert_ip
070495e8 g     F .text	000001a8 find_oldest_arp
07061f60 g     O .rwdata	00000002 OSTaskStatEn
070621ec g     O .bss	00000004 arpReqsIn
07054ff4 g     F .text	00000050 vf_free_buffer
070221b8 g     F .text	00000164 alt_write_value_to_flash
07010f44 g     F .text	00000040 _mbtowc_r
070568f0 g     F .text	00000154 alt_fcntl
07061f3a g     O .rwdata	00000002 OSMemMax
0701e8a4 g     F .text	00000188 OSQPostFront
070228c8 g     F .text	00000034 alt_write_native_16bit
07005900 g     F .text	00000258 wait_on_phy
07036548 g     F .text	00000030 dtrap
07061fcc g     O .rwdata	00000004 kb_last
07009514 g     F .text	00000104 putc
07006eac g     F .text	00000060 __divsi3
07027774 g     F .text	00000048 alt_tse_mac_set_common_speed
070620cd g     O .bss	00000003 OSRdyTbl
07061f14 g     O .rwdata	00000002 OSDebugEn
0702c214 g     F .text	000000fc alt_ro_zipfs_read
0705a8f8 g     O .rodata	00000014 __thenan_df
0702f150 g     F .text	000000d0 ip_exit
07007a0c g     F .text	0000012c _malloc_trim_r
07003688 g     F .text	000000ac http_read_line
070583a4 g       *ABS*	00000000 __CTOR_END__
0702c4c8 g     F .text	00000058 alt_ro_zipfs_check_valid
07061f2c g     O .rwdata	00000002 OSFlagNodeSize
0700278c g     F .text	000000f4 write_flash
0706212c g     O .bss	00000004 dhc_conn
070366dc g     F .text	0000006c cticks_hook
07061f74 g     O .rwdata	00000002 OSTmrCfgMax
070487ac g     F .text	0000003c sysuptime
07009f28 g     F .text	000000bc strcmp
070063d4 g     F .text	0000086c generate_and_store_mac_addr
0704e1b4 g     F .text	000001c8 ip_reasm_delete_ire
0701dcac g     F .text	00000214 OSQCreate
07036748 g     F .text	0000005c irq_Mask
07020918 g     F .text	000001b8 OSTaskNameGet
070621d8 g     O .bss	00000004 nextppp
0706216c g     O .bss	00000004 irq_level
0702e570 g     F .text	00000160 fixup_subnet_mask
0701ea2c g     F .text	00000234 OSQPostOpt
07019858 g     F .text	00000240 OSTimeTick
0704c998 g     F .text	00000138 ip_copypkt
070353f4 g     F .text	00000090 dhc_alldone
07061f5c g     O .rwdata	00000002 OSTaskMax
070583a4 g       *ABS*	00000000 __DTOR_LIST__
0701ef4c g     F .text	00000114 OSSemCreate
07062110 g     O .bss	00000004 igmp_all_hosts_group
07061f80 g     O .rwdata	00000002 OSTmrWheelSize
0703e388 g     F .text	00000038 sbselqueue
07062118 g     O .bss	00000004 netmain_wakes
07049b38 g     F .text	00000260 arprcv
0705ff54 g     O .rwdata	00000018 wstask
07031bb4 g     F .text	00000070 TK_OSTaskResume
0702fedc g     F .text	000003e0 igmp_print_stats
07016dd8 g     F .text	00000088 __nedf2
070371d8 g     F .text	000000a0 pffindtype
0702c458 g     F .text	00000070 alt_ro_zipfs_fstat
07061f56 g     O .rwdata	00000002 OSTaskDelEn
07061fe4 g     O .rwdata	00000004 tcp_sendspace
07056154 g     F .text	00000134 vftell
0708f600 g     O .bss	00000012 eth_prt_buf
0701f820 g     F .text	00000130 OSSemQuery
0701dec0 g     F .text	00000300 OSQDel
0701e5a8 g     F .text	0000017c OSQPendAbort
07021a30 g     F .text	00000034 alt_irq_init
07027734 g     F .text	00000040 alt_tse_mac_get_common_speed
0708fa68 g     O .bss	00000018 app_semaphore
07018418 g     F .text	00000060 alt_release_fd
07036bf8 g     F .text	00000078 post_app_sem
0702f2b0 g     F .text	000000b0 igmp_init
07009a64 g     F .text	00000074 sprintf
0705a90c g     O .rodata	00000100 __clz_tab
07062154 g     O .bss	00000004 dsc_renew
070539b0 g     F .text	00000080 md_fwrite
07062074 g     O .bss	00000004 _PathLocale
0706217c g     O .bss	00000004 tcp_sleep_count
07037ccc g     F .text	0000007c insque
07013c48 g     F .text	00000124 strtof
07057fcc g     F .text	00000014 atexit
07062240 g     O .bss	00000004 vfsfiles
0700ec34 g     F .text	00000078 _write_r
0700ea74 g     F .text	00000050 _vsprintf_r
070510e8 g     F .text	000002b8 udp_send
070195cc g     F .text	0000008c OSSchedLock
0702f5f0 g     F .text	000002a8 igmp_send
07010df0 g     F .text	0000001c setlocale
0701b0bc g     F .text	0000013c OSFlagCreate
070367a4 g     F .text	00000044 irq_Unmask
0703a338 g     F .text	000000e4 t_listen
07012714 g     F .text	00000008 nanf
07061ee8 g     O .rwdata	00000004 _impure_ptr
07062078 g     O .bss	00000004 alt_argc
07044d44 g     F .text	00000704 tcp_usrreq
070459a4 g     F .text	00000284 udp_usrreq
07037138 g     F .text	00000054 ncpalloc
07010e84 g     F .text	00000080 _mbrtowc_r
07046ab4 g     F .text	00000064 _do_dtors
07061f26 g     O .rwdata	00000002 OSEventMultiEn
07062018 g     O .rwdata	00000004 pingdelay
07007e4c g     F .text	0000043c _fseek_r
070490dc g     F .text	00000074 arp_send_pending
0708f018 g     O .bss	000000e0 tse_mac_if
07051998 g     F .text	000002e8 igmpv1_input
070097b4 g     F .text	000001c4 __srefill_r
07036e8c g     F .text	00000074 pre_task_setup
0706219c g     O .bss	00000004 rcvdq_sem_ptr
07030520 g     F .text	0000012c bsd_getsockname
0704e37c g     F .text	00000148 ip_reasm_mark_compact_rfq
0701b1f8 g     F .text	000002a8 OSFlagDel
070620d0 g     O .bss	00000004 OSEventFreeList
07005738 g     F .text	00000108 ws_ipset
070322bc g     F .text	00000044 dhc_set_callback
08200020 g       .exceptions	00000000 alt_irq_entry
0701cde4 g     F .text	0000017c OSMboxPendAbort
070621e8 g     O .bss	00000004 arpcache
070576d8 g     F .text	00000350 icmp_destun
0704fafc g     F .text	00000070 lookup_mcast
07056528 g     F .text	00000048 vfslookup
0704f278 g     F .text	00000430 ip_demux
07011140 g     F .text	00000080 __ulp
070125e4 g     F .text	00000040 __isinfd
07062180 g     O .bss	00000004 tcp_wakeup_count
0701b738 g     F .text	00000644 OSFlagPend
07061f72 g     O .rwdata	00000002 OSTmrEn
0700751c g     F .text	00000018 __fp_unlock_all
0707fcf4 g     O .bss	0000c000 http_tx_buffer
07036b44 g     F .text	000000b4 wait_app_sem
07025734 g     F .text	00000058 altera_avalon_lcd_16207_write_fd
070106c4 g     F .text	00000064 fputc
07061fa4 g     O .rwdata	00000004 ipmcfail_str
07062194 g     O .bss	00000004 memtrapsize
07037668 g     F .text	00000324 m_copy
07061fec g     O .rwdata	00000008 alt_fs_list
0708fae4 g     O .bss	00000014 mfreeq
0701a658 g     F .text	00000080 OS_StrCopy
07004fe0 g     F .text	00000080 http_handle_get
0703baa8 g     F .text	0000005c sobind
07004cbc g     F .text	00000324 http_handle_post
07053770 g     F .text	00000078 init_memdev
07022778 g     F .text	00000048 alt_write_flash_command_32bit_device_8bit_mode
07037d48 g     F .text	00000124 nptcp_init
07061f3c g     O .rwdata	00000002 OSMemNameSize
0708f938 g     O .bss	000000f0 global_TCPwakeup_set
07047bc0 g     F .text	0000001c OSInitHookEnd
0703de44 g     F .text	000000bc soisdisconnected
07049054 g     F .text	00000088 arp_free_pending
07061f68 g     O .rwdata	00000002 OSTCBPrioTblMax
07010d5c g     F .text	00000010 localeconv
07002340 g     F .text	00000058 stats
0703bd24 g     F .text	000002f4 soclose
0708f828 g     O .bss	00000014 bigfreeq
07061f64 g     O .rwdata	00000002 OSTaskStatStkChkEn
07062014 g     O .rwdata	00000004 prompt
07061fdc g     O .rwdata	00000004 tcp_keepidle
0702ac08 g     F .text	00000198 alt_tse_phy_set_adv_10
07002398 g     F .text	000000a0 get_content_disposition_field
07039724 g     F .text	000001d4 rawip_soinput
0701c768 g     F .text	00000114 OSMboxCreate
07046f20 g     F .text	00000050 alt_ic_isr_register
07055f78 g     F .text	00000060 vfwrite
07061edc g     O .rwdata	00000008 progress_field
07061f38 g     O .rwdata	00000002 OSMemEn
0703e11c g     F .text	000000ac soqinsque
0706221c g     O .bss	00000004 so_evtmap_delete
07008648 g     F .text	00000040 fwrite
0701489c g     F .text	00000068 __hexdig_init
07009b40 g     F .text	00000088 _sscanf_r
07061f42 g     O .rwdata	00000002 OSMutexEn
07061ec4 g     O .rwdata	00000008 mapping
07062208 g     O .bss	00000004 h_ireq
0706203c g       *ABS*	00000000 _edata
0704bda4 g     F .text	00000624 ip_fragment
07062048 g     O .bss	00000004 time_to_reconfig
0702dcf8 g     F .text	00000144 iniche_devices_init
0708faf8 g     O .bss	00000028 tcp_saveti
07061ecc g     O .rwdata	00000008 stats_field
070316a4 g     F .text	000000f0 con_page
07090114 g       *ABS*	00000000 _end
0703d6cc g     F .text	00000540 sogetopt
07046ccc g     F .text	0000007c alt_flash_open_dev
070620d4 g     O .bss	00000001 OSIntNesting
07029bc4 g     F .text	00000238 alt_tse_mac_associate_phy
07061aa0 g     O .rwdata	00000030 nettasks
07004c88 g     F .text	00000034 http_send_redirect
07035d44 g     F .text	00000020 pk_get_max_intrsafe_buf_len
0704c72c g     F .text	0000026c iproute
07038690 g     F .text	000000e8 np_stripoptions
07062220 g     O .bss	00000001 so_evtmap
0700ea00 g     F .text	00000074 vfscanf
07024168 g     F .text	000000f4 altera_avalon_jtag_uart_ioctl
07010780 g     F .text	00000074 _fputs_r
07021758 g     F .text	00000210 OSTimeDlyResume
07050324 g     F .text	00000428 add_route
0701b5e4 g     F .text	00000154 OSFlagNameSet
0702eb8c g     F .text	000000d0 c_older
07062058 g     O .bss	00000001 to_wstask
0701cb1c g     F .text	000002c8 OSMboxPend
0703eb64 g     F .text	00000090 sbflush
07053810 g     F .text	00000020 md_fclose
07031f3c g     F .text	0000002c tk_yield
070346a8 g     F .text	000004f8 dhc_stats
07020eac g     F .text	000001fc OSTaskStkChk
0704700c g     F .text	000000a0 alt_ic_irq_disable
0703c278 g     F .text	00000608 sosend
07061f3e g     O .rwdata	00000002 OSMemSize
07001a58 g     F .text	00000558 srec_decode
0704c3c8 g     F .text	000000ac ip_mymach
07025ebc g     F .text	00000088 alt_avalon_sgdma_construct_descriptor
07009cbc g     F .text	0000007c __swrite
07062168 g     O .bss	00000004 cticks_initialized
0706201c g     O .rwdata	00000004 deflength
0703b1a0 g     F .text	0000022c t_sendto
07061ef0 g     O .rwdata	00000004 __malloc_trim_threshold
07009494 g     F .text	0000006c _perror_r
07047704 g     F .text	00000020 altera_nios2_qsys_irq_init
070620d8 g     O .bss	00000004 OSTCBCur
0703b8dc g     F .text	000001cc socreate
07057fe0 g     F .text	00000038 exit
0708fd90 g     O .bss	00000100 arp_table
07062258 g     O .bss	00000004 icmpdu_hook
07061f40 g     O .rwdata	00000002 OSMemTblSize
0700842c g     F .text	000000c8 _fwalk_reent
07048d30 g     F .text	00000024 create_apptasks
07061fd8 g     O .rwdata	00000004 tcp_ttl
0701173c g     F .text	0000018c __mdiff
07046d48 g     F .text	00000054 alt_flash_close_dev
0703718c g     F .text	0000004c ncpfree
07006f0c g     F .text	00000060 __modsi3
070620f4 g     O .bss	00000004 MaxLnh
0702697c g     F .text	00000054 tse_mac_setGMIImode
0705401c g     F .text	0000008c inet_ntop
07051660 g     F .text	0000002c udp_maxalloc
0702b648 g     F .text	000000f4 marvell_cfg_gmii
0701c6c4 g     F .text	000000a4 OSMboxAccept
07200000 g       *ABS*	00000000 __alt_data_end
08200020 g     F .exceptions	00000000 alt_exception
0700745c g     F .text	00000004 __sfp_lock_release
070193fc g     F .text	00000054 OSInit
070041a0 g     F .text	000007d4 http_send_file_header
07038d10 g     F .text	00000184 mbuf_stat
07029dfc g     F .text	00000120 alt_tse_phy_cfg_pcs
070212d4 g     F .text	00000144 OSTaskQuery
070485d4 g     F .text	00000088 icmp_port_du
070621c4 g     O .bss	00000004 tcp_iss
0701ede0 g     F .text	000000ac OS_QInit
07012654 g     F .text	000000c0 __sccl
07061fc8 g     O .rwdata	00000004 bigbufsiz
07006f88 g     F .text	0000000c atoi
0701a6d8 g     F .text	00000058 OS_StrLen
070444b4 g     F .text	00000080 tcp_putseq
0701d77c g     F .text	00000120 OSMemNameSet
07059c54 g     O .rodata	00000101 _ctype_
08200000 g       *ABS*	00000000 __alt_mem_onchip_ram
0703e774 g     F .text	00000208 sbappendaddr
00000000 g       *ABS*	00000000 __alt_mem_ext_flash
07062250 g     O .bss	00000004 vfs_total_rw_space
07000eb8 g     F .text	0000004c LedTask
07052b78 g     F .text	00000140 ip_getmoptions
07061f5a g     O .rwdata	00000002 OSTaskProfileEn
070513a0 g     F .text	00000130 udpswap
070620dc g     O .bss	00000004 OSTime
070621a0 g     O .bss	00000004 nextslow
070445ac g     F .text	000002a0 tcp_slowtimo
070441bc g     F .text	00000118 tcp_newtcpcb
07049d98 g     F .text	000001a8 send_via_arp
07032200 g     F .text	000000bc dhc_init
0704dd10 g     F .text	00000064 ip_reasm_find_ire
070175a0 g     F .text	000000a8 __fpcmp_parts_f
0708d774 g     O .bss	00000800 OSTaskIdleStk
070076c0 g     F .text	000000f4 _fopen_r
07058374 g     F .text	0000002c _exit
07056758 g     F .text	00000064 isvfile_locked
07012624 g     F .text	00000030 __isnand
0701d094 g     F .text	0000018c OSMboxPostOpt
07030bb8 g     F .text	00000168 bsd_select
0704649c g     F .text	00000154 alt_alarm_start
0701b4a0 g     F .text	00000144 OSFlagNameGet
0705168c g     F .text	00000040 udp_free
07035e10 g     F .text	000000c8 getq
070568cc g     F .text	00000024 prep_vfs
07021968 g     F .text	00000064 OSTimeGet
07062010 g     O .rwdata	00000004 name
0703edc4 g     F .text	00000110 sbdropend
07015400 g     F .text	00000098 __muldi3
070019f4 g     F .text	00000064 ReconfigFPGA
070087b0 g     F .text	00000194 __smakebuf_r
070228fc g     F .text	00000030 alt_write_native_32bit
0704a1b0 g     F .text	00000118 cb_arpent_tmo
0700a6e4 g     F .text	00000074 strlen
07052440 g     F .text	00000148 IPADDR_TO_NETP
07030a28 g     F .text	00000030 bsd_inet_ntoa
07047b44 g     F .text	0000001c OSTaskSwHook
07018230 g     F .text	00000188 open
07036098 g     F .text	00000238 udp_open
0708df74 g     O .bss	00000b40 OSEventTbl
0703e2e8 g     F .text	00000050 socantsendmore
07062254 g     O .bss	00000004 vfs_total_dyna_files
07016ee8 g     F .text	00000088 __gedf2
0708eab4 g     O .bss	00000510 OSTCBTbl
070149b4 g     F .text	000007b8 __gethex
070621f0 g     O .bss	00000004 arpReqsOut
0701f950 g     F .text	00000104 OSSemSet
07062038 g     O .rwdata	00000004 http_root_path
070343ec g     F .text	000002bc dhc_extract_opts
0704d1ec g     F .text	00000590 ip_reasm_compute_overlap
070220c0 g     F .text	00000090 alt_flash_cfi_get_info
07039190 g     F .text	00000064 search_mbuf_queue
07038778 g     F .text	00000144 tcp_stat
07008320 g     F .text	000000f8 _ftell_r
070267ec g     F .text	000000a4 tse_mac_aRxRead
07009e48 g     F .text	000000e0 strchr
0708f612 g     O .bss	00000012 ipreturn
07062210 g     O .bss	00000004 port_prep
07061b77 g     O .rwdata	0000000d tcp_backoff
0703dc50 g     F .text	0000006c soisconnecting
07070ab0 g     O .bss	00001000 led_task_stk
070107f4 g     F .text	0000001c fputs
0706200c g     O .rwdata	00000004 alt_priority_mask
07051f2c g     F .text	0000024c igmpv2_process_query
0703ef68 g     F .text	00000220 t_select
0701f060 g     F .text	000002a0 OSSemDel
07046340 g     F .text	0000015c udp4_sockaddr
070620e0 g     O .bss	00000004 OSFlagFreeList
07054894 g     F .text	00000210 in_pcbconnect
070621b8 g     O .bss	00000004 dropline
0706220c g     O .bss	00000004 ire_cticks
07046f70 g     F .text	0000009c alt_ic_irq_enable
07061f20 g     O .rwdata	00000002 OSEventNameSize
0701c87c g     F .text	000002a0 OSMboxDel
0700d2d0 g     F .text	00000024 __vfprintf_internal
07031ab4 g     F .text	00000088 tk_netmain
07054aa4 g     F .text	00000060 in_pcbdisconnect
070620e4 g     O .bss	00000001 OSStatRdy
0708efc4 g     O .bss	00000054 OSTCBPrioTbl
070187f4 g     F .text	000000ac __env_lock
07061f66 g     O .rwdata	00000002 OSTaskSwHookEn
07061d50 g     O .rwdata	00000024 mdio
07002438 g     F .text	000000fc find_string_in_buf
07027a24 g     F .text	000000ec alt_tse_mac_set_speed
07025a5c g     F .text	00000080 alt_avalon_sgdma_construct_mem_to_mem_desc_burst
070302bc g     F .text	00000138 bsd_accept
070061d4 g     F .text	00000030 die_with_error
07061fe8 g     O .rwdata	00000004 tcp_recvspace
07003a50 g     F .text	000002e0 http_process_request
07016640 g     F .text	00000080 __subdf3
07045730 g     F .text	0000004c tcpinit
07062114 g     O .bss	00000004 igmp_all_rtrs_group
070396b4 g     F .text	00000070 rawip_lookup
07005840 g     F .text	00000060 suspend_network_tasks
07048dd4 g     F .text	000000b0 fcntl
0701101c g     F .text	000000c4 __lo0bits
0703e97c g     F .text	000001e8 sbcompress
0700d2f4 g     F .text	00001680 __svfscanf_r
07061f04 g     O .rwdata	00000008 alt_alarm_list
070146c0 g     F .text	0000019c _ungetc_r
070442d4 g     F .text	000000ac tcp_drop
07061f2e g     O .rwdata	00000002 OSFlagWidth
07046a50 g     F .text	00000064 _do_ctors
0702a9f8 g     F .text	00000210 alt_tse_phy_set_adv_100
070448a8 g     F .text	0000049c tcp_timers
0702f220 g     F .text	00000090 if_netnumber
07052cb8 g     F .text	00000084 ip_freemoptions
0703dc0c g     F .text	00000044 sohasoutofband
0703fc84 g     F .text	00002554 tcp_input
07005d6c g     F .text	000000e0 NETInit
070303f4 g     F .text	0000012c bsd_getpeername
07030a58 g     F .text	00000160 bsd_recvfrom
0702dca4 g     F .text	00000054 close
07062144 g     O .bss	00000004 dsc_bpreplys
07047c18 g     F .text	00000068 alt_program_amd
07062090 g     O .bss	00000004 alt_envsem
070620e8 g     O .bss	00000004 OSIdleCtrRun
07019a98 g     F .text	00000020 OSVersion
07061f78 g     O .rwdata	00000002 OSTmrCfgWheelSize
07021418 g     F .text	0000007c OS_TaskStkClr
07054e58 g     F .text	00000028 set_vfopen_error
07017674 g     F .text	00000314 __pack_d
07061f52 g     O .rwdata	00000002 OSTaskCreateEn
070277bc g     F .text	0000007c alt_tse_get_system_index
07061b28 g     O .rwdata	00000018 rawip_protosw
07038a1c g     F .text	000000f4 tcp_bsdsendstat
0703e3c0 g     F .text	00000068 sbwait
0701a088 g     F .text	00000068 OS_EventWaitListInit
07034ba0 g     F .text	0000059c dhc_second
070264c4 g     F .text	000000ac alt_avalon_sgdma_init
070621dc g     O .bss	00000004 port_1s_callout
07047bdc g     F .text	0000001c OSTaskIdleHook
07008944 g     F .text	00000014 free
07007460 g     F .text	00000004 __sinit_lock_acquire
070620f0 g     O .bss	00000001 number_of_tse_mac
07011c38 g     F .text	00000100 __multadd
07010f84 g     F .text	00000028 _Bfree
070210a8 g     F .text	0000022c OSTaskSuspend
07061ed4 g     O .rwdata	00000008 upload_field
07026670 g     F .text	0000002c no_printf
0703df00 g     F .text	0000021c sonewconn
07056aa4 g     F .text	00000c34 icmprcv
07037278 g     F .text	000000d0 pffindproto
0702bc24 g     F .text	0000012c check_directory_header
0701a730 g     F .text	0000005c OS_TaskIdle
07061f7e g     O .rwdata	00000002 OSTmrTblSize
0701ec60 g     F .text	00000180 OSQQuery



Disassembly of section .exceptions:

08200020 <alt_exception>:
 8200020:	deffed04 	addi	sp,sp,-76
 8200024:	dfc00015 	stw	ra,0(sp)
 8200028:	d8400215 	stw	at,8(sp)
 820002c:	d8800315 	stw	r2,12(sp)
 8200030:	d8c00415 	stw	r3,16(sp)
 8200034:	d9000515 	stw	r4,20(sp)
 8200038:	d9400615 	stw	r5,24(sp)
 820003c:	d9800715 	stw	r6,28(sp)
 8200040:	d9c00815 	stw	r7,32(sp)
 8200044:	000b307a 	rdctl	r5,estatus
 8200048:	da000915 	stw	r8,36(sp)
 820004c:	da400a15 	stw	r9,40(sp)
 8200050:	da800b15 	stw	r10,44(sp)
 8200054:	dac00c15 	stw	r11,48(sp)
 8200058:	db000d15 	stw	r12,52(sp)
 820005c:	db400e15 	stw	r13,56(sp)
 8200060:	db800f15 	stw	r14,60(sp)
 8200064:	dbc01015 	stw	r15,64(sp)
 8200068:	d9401115 	stw	r5,68(sp)
 820006c:	ebffff04 	addi	r15,ea,-4
 8200070:	dbc01215 	stw	r15,72(sp)
 8200074:	0009313a 	rdctl	r4,ipending
 8200078:	2880004c 	andi	r2,r5,1
 820007c:	10000326 	beq	r2,zero,820008c <alt_exception+0x6c>
 8200080:	20000226 	beq	r4,zero,820008c <alt_exception+0x6c>
 8200084:	82000ec0 	call	82000ec <alt_irq_handler>
 8200088:	00000306 	br	8200098 <alt_exception+0x78>
 820008c:	df401215 	stw	ea,72(sp)
 8200090:	e8bfff17 	ldw	r2,-4(ea)
 8200094:	003da03a 	break	0
 8200098:	d9401117 	ldw	r5,68(sp)
 820009c:	df401217 	ldw	ea,72(sp)
 82000a0:	dfc00017 	ldw	ra,0(sp)
 82000a4:	2801707a 	wrctl	estatus,r5
 82000a8:	d8400217 	ldw	at,8(sp)
 82000ac:	d8800317 	ldw	r2,12(sp)
 82000b0:	d8c00417 	ldw	r3,16(sp)
 82000b4:	d9000517 	ldw	r4,20(sp)
 82000b8:	d9400617 	ldw	r5,24(sp)
 82000bc:	d9800717 	ldw	r6,28(sp)
 82000c0:	d9c00817 	ldw	r7,32(sp)
 82000c4:	da000917 	ldw	r8,36(sp)
 82000c8:	da400a17 	ldw	r9,40(sp)
 82000cc:	da800b17 	ldw	r10,44(sp)
 82000d0:	dac00c17 	ldw	r11,48(sp)
 82000d4:	db000d17 	ldw	r12,52(sp)
 82000d8:	db400e17 	ldw	r13,56(sp)
 82000dc:	db800f17 	ldw	r14,60(sp)
 82000e0:	dbc01017 	ldw	r15,64(sp)
 82000e4:	dec01304 	addi	sp,sp,76
 82000e8:	ef80083a 	eret

082000ec <alt_irq_handler>:
 82000ec:	defff904 	addi	sp,sp,-28
 82000f0:	dfc00615 	stw	ra,24(sp)
 82000f4:	df000515 	stw	fp,20(sp)
 82000f8:	df000504 	addi	fp,sp,20
 82000fc:	70194500 	call	7019450 <OSIntEnter>
 8200100:	0005313a 	rdctl	r2,ipending
 8200104:	e0bffc15 	stw	r2,-16(fp)
 8200108:	e0bffc17 	ldw	r2,-16(fp)
 820010c:	e0bfff15 	stw	r2,-4(fp)
 8200110:	e03ffd15 	stw	zero,-12(fp)
 8200114:	00800044 	movi	r2,1
 8200118:	e0bffe15 	stw	r2,-8(fp)
 820011c:	e0ffff17 	ldw	r3,-4(fp)
 8200120:	e0bffe17 	ldw	r2,-8(fp)
 8200124:	1884703a 	and	r2,r3,r2
 8200128:	1005003a 	cmpeq	r2,r2,zero
 820012c:	1000161e 	bne	r2,zero,8200188 <alt_irq_handler+0x9c>
 8200130:	e0bffd17 	ldw	r2,-12(fp)
 8200134:	00c1c274 	movhi	r3,1801
 8200138:	18ff0b04 	addi	r3,r3,-980
 820013c:	100490fa 	slli	r2,r2,3
 8200140:	10c5883a 	add	r2,r2,r3
 8200144:	11400017 	ldw	r5,0(r2)
 8200148:	e0bffd17 	ldw	r2,-12(fp)
 820014c:	00c1c274 	movhi	r3,1801
 8200150:	18ff0b04 	addi	r3,r3,-980
 8200154:	100490fa 	slli	r2,r2,3
 8200158:	10c5883a 	add	r2,r2,r3
 820015c:	10800104 	addi	r2,r2,4
 8200160:	11000017 	ldw	r4,0(r2)
 8200164:	283ee83a 	callr	r5
 8200168:	0005313a 	rdctl	r2,ipending
 820016c:	e0bffb15 	stw	r2,-20(fp)
 8200170:	e0bffb17 	ldw	r2,-20(fp)
 8200174:	e0bfff15 	stw	r2,-4(fp)
 8200178:	e0bfff17 	ldw	r2,-4(fp)
 820017c:	1004c03a 	cmpne	r2,r2,zero
 8200180:	103fe31e 	bne	r2,zero,8200110 <alt_irq_handler+0x24>
 8200184:	00000706 	br	82001a4 <alt_irq_handler+0xb8>
 8200188:	e0bffe17 	ldw	r2,-8(fp)
 820018c:	1085883a 	add	r2,r2,r2
 8200190:	e0bffe15 	stw	r2,-8(fp)
 8200194:	e0bffd17 	ldw	r2,-12(fp)
 8200198:	10800044 	addi	r2,r2,1
 820019c:	e0bffd15 	stw	r2,-12(fp)
 82001a0:	003fde06 	br	820011c <alt_irq_handler+0x30>
 82001a4:	70194cc0 	call	70194cc <OSIntExit>
 82001a8:	e037883a 	mov	sp,fp
 82001ac:	dfc00117 	ldw	ra,4(sp)
 82001b0:	df000017 	ldw	fp,0(sp)
 82001b4:	dec00204 	addi	sp,sp,8
 82001b8:	f800283a 	ret

Disassembly of section .text:

07000000 <_start>:
 7000000:	00a00014 	movui	r2,32768
 7000004:	10000033 	initd	0(r2)
 7000008:	10bff804 	addi	r2,r2,-32
 700000c:	00bffd16 	blt	zero,r2,7000004 <_start+0x4>
 7000010:	06c1c834 	movhi	sp,1824
 7000014:	dec00014 	ori	sp,sp,0
 7000018:	0681c1b4 	movhi	gp,1798
 700001c:	d6a7af14 	ori	gp,gp,40636
 7000020:	0081c1b4 	movhi	r2,1798
 7000024:	10880f14 	ori	r2,r2,8252
 7000028:	00c1c274 	movhi	r3,1801
 700002c:	18c04514 	ori	r3,r3,276
 7000030:	10c00326 	beq	r2,r3,7000040 <_start+0x40>
 7000034:	10000015 	stw	zero,0(r2)
 7000038:	10800104 	addi	r2,r2,4
 700003c:	10fffd36 	bltu	r2,r3,7000034 <_start+0x34>
 7000040:	701808c0 	call	701808c <alt_main>

07000044 <alt_after_alt_main>:
 7000044:	003fff06 	br	7000044 <alt_after_alt_main>

07000048 <flash_program_stats_init>:
 7000048:	defffe04 	addi	sp,sp,-8
 700004c:	df000115 	stw	fp,4(sp)
 7000050:	df000104 	addi	fp,sp,4
 7000054:	e13fff15 	stw	r4,-4(fp)
 7000058:	e0bfff17 	ldw	r2,-4(fp)
 700005c:	10000015 	stw	zero,0(r2)
 7000060:	e0ffff17 	ldw	r3,-4(fp)
 7000064:	00bfffc4 	movi	r2,-1
 7000068:	18800115 	stw	r2,4(r3)
 700006c:	e0bfff17 	ldw	r2,-4(fp)
 7000070:	10000215 	stw	zero,8(r2)
 7000074:	e0bfff17 	ldw	r2,-4(fp)
 7000078:	10000315 	stw	zero,12(r2)
 700007c:	e0ffff17 	ldw	r3,-4(fp)
 7000080:	00bfffc4 	movi	r2,-1
 7000084:	18800415 	stw	r2,16(r3)
 7000088:	e0bfff17 	ldw	r2,-4(fp)
 700008c:	10000515 	stw	zero,20(r2)
 7000090:	e0bfff17 	ldw	r2,-4(fp)
 7000094:	10000615 	stw	zero,24(r2)
 7000098:	e037883a 	mov	sp,fp
 700009c:	df000017 	ldw	fp,0(sp)
 70000a0:	dec00104 	addi	sp,sp,4
 70000a4:	f800283a 	ret

070000a8 <flash_program_stats_add_sample>:
 70000a8:	defff404 	addi	sp,sp,-48
 70000ac:	df000b15 	stw	fp,44(sp)
 70000b0:	df000b04 	addi	fp,sp,44
 70000b4:	e13ff515 	stw	r4,-44(fp)
 70000b8:	e17ff615 	stw	r5,-40(fp)
 70000bc:	e1bff715 	stw	r6,-36(fp)
 70000c0:	e0bff517 	ldw	r2,-44(fp)
 70000c4:	10800617 	ldw	r2,24(r2)
 70000c8:	10c00044 	addi	r3,r2,1
 70000cc:	e0bff517 	ldw	r2,-44(fp)
 70000d0:	10c00615 	stw	r3,24(r2)
 70000d4:	e0bff517 	ldw	r2,-44(fp)
 70000d8:	10c00217 	ldw	r3,8(r2)
 70000dc:	e0bff617 	ldw	r2,-40(fp)
 70000e0:	1887883a 	add	r3,r3,r2
 70000e4:	e0bff517 	ldw	r2,-44(fp)
 70000e8:	10c00215 	stw	r3,8(r2)
 70000ec:	e0bff517 	ldw	r2,-44(fp)
 70000f0:	10c00517 	ldw	r3,20(r2)
 70000f4:	e0bff717 	ldw	r2,-36(fp)
 70000f8:	1887883a 	add	r3,r3,r2
 70000fc:	e0bff517 	ldw	r2,-44(fp)
 7000100:	10c00515 	stw	r3,20(r2)
 7000104:	e0bff517 	ldw	r2,-44(fp)
 7000108:	10800017 	ldw	r2,0(r2)
 700010c:	e0fff617 	ldw	r3,-40(fp)
 7000110:	e0fffc15 	stw	r3,-16(fp)
 7000114:	e0bffb15 	stw	r2,-20(fp)
 7000118:	e0bffb17 	ldw	r2,-20(fp)
 700011c:	e0fffc17 	ldw	r3,-16(fp)
 7000120:	10c0022e 	bgeu	r2,r3,700012c <flash_program_stats_add_sample+0x84>
 7000124:	e0bffc17 	ldw	r2,-16(fp)
 7000128:	e0bffb15 	stw	r2,-20(fp)
 700012c:	e0bff517 	ldw	r2,-44(fp)
 7000130:	e0fffb17 	ldw	r3,-20(fp)
 7000134:	10c00015 	stw	r3,0(r2)
 7000138:	e0bff517 	ldw	r2,-44(fp)
 700013c:	10800117 	ldw	r2,4(r2)
 7000140:	e0fff617 	ldw	r3,-40(fp)
 7000144:	e0fffd15 	stw	r3,-12(fp)
 7000148:	e0bffa15 	stw	r2,-24(fp)
 700014c:	e0bffd17 	ldw	r2,-12(fp)
 7000150:	e0fffa17 	ldw	r3,-24(fp)
 7000154:	10c0022e 	bgeu	r2,r3,7000160 <flash_program_stats_add_sample+0xb8>
 7000158:	e0bffd17 	ldw	r2,-12(fp)
 700015c:	e0bffa15 	stw	r2,-24(fp)
 7000160:	e0bff517 	ldw	r2,-44(fp)
 7000164:	e0fffa17 	ldw	r3,-24(fp)
 7000168:	10c00115 	stw	r3,4(r2)
 700016c:	e0bff517 	ldw	r2,-44(fp)
 7000170:	10800317 	ldw	r2,12(r2)
 7000174:	e0fff717 	ldw	r3,-36(fp)
 7000178:	e0fffe15 	stw	r3,-8(fp)
 700017c:	e0bff915 	stw	r2,-28(fp)
 7000180:	e0bff917 	ldw	r2,-28(fp)
 7000184:	e0fffe17 	ldw	r3,-8(fp)
 7000188:	10c0022e 	bgeu	r2,r3,7000194 <flash_program_stats_add_sample+0xec>
 700018c:	e0bffe17 	ldw	r2,-8(fp)
 7000190:	e0bff915 	stw	r2,-28(fp)
 7000194:	e0bff517 	ldw	r2,-44(fp)
 7000198:	e0fff917 	ldw	r3,-28(fp)
 700019c:	10c00315 	stw	r3,12(r2)
 70001a0:	e0bff517 	ldw	r2,-44(fp)
 70001a4:	10800417 	ldw	r2,16(r2)
 70001a8:	e0fff717 	ldw	r3,-36(fp)
 70001ac:	e0ffff15 	stw	r3,-4(fp)
 70001b0:	e0bff815 	stw	r2,-32(fp)
 70001b4:	e0bfff17 	ldw	r2,-4(fp)
 70001b8:	e0fff817 	ldw	r3,-32(fp)
 70001bc:	10c0022e 	bgeu	r2,r3,70001c8 <flash_program_stats_add_sample+0x120>
 70001c0:	e0bfff17 	ldw	r2,-4(fp)
 70001c4:	e0bff815 	stw	r2,-32(fp)
 70001c8:	e0bff517 	ldw	r2,-44(fp)
 70001cc:	e0fff817 	ldw	r3,-32(fp)
 70001d0:	10c00415 	stw	r3,16(r2)
 70001d4:	e037883a 	mov	sp,fp
 70001d8:	df000017 	ldw	fp,0(sp)
 70001dc:	dec00104 	addi	sp,sp,4
 70001e0:	f800283a 	ret

070001e4 <flash_program_stats_print>:
 70001e4:	defffe04 	addi	sp,sp,-8
 70001e8:	df000115 	stw	fp,4(sp)
 70001ec:	df000104 	addi	fp,sp,4
 70001f0:	e13fff15 	stw	r4,-4(fp)
 70001f4:	e037883a 	mov	sp,fp
 70001f8:	df000017 	ldw	fp,0(sp)
 70001fc:	dec00104 	addi	sp,sp,4
 7000200:	f800283a 	ret

07000204 <flash_init_block_map>:
 7000204:	defff704 	addi	sp,sp,-36
 7000208:	df000815 	stw	fp,32(sp)
 700020c:	df000804 	addi	fp,sp,32
 7000210:	e13ffe15 	stw	r4,-8(fp)
 7000214:	e17fff15 	stw	r5,-4(fp)
 7000218:	e03ffd15 	stw	zero,-12(fp)
 700021c:	e03ffc15 	stw	zero,-16(fp)
 7000220:	e0bffe17 	ldw	r2,-8(fp)
 7000224:	1007883a 	mov	r3,r2
 7000228:	00802604 	movi	r2,152
 700022c:	1880002d 	sthio	r2,0(r3)
 7000230:	e0bffe17 	ldw	r2,-8(fp)
 7000234:	10801804 	addi	r2,r2,96
 7000238:	10800023 	ldbuio	r2,0(r2)
 700023c:	1006923a 	slli	r3,r2,8
 7000240:	e0bffe17 	ldw	r2,-8(fp)
 7000244:	10801784 	addi	r2,r2,94
 7000248:	10800023 	ldbuio	r2,0(r2)
 700024c:	1884b03a 	or	r2,r3,r2
 7000250:	1004923a 	slli	r2,r2,8
 7000254:	e0bffb15 	stw	r2,-20(fp)
 7000258:	e0bffe17 	ldw	r2,-8(fp)
 700025c:	10801a04 	addi	r2,r2,104
 7000260:	10800023 	ldbuio	r2,0(r2)
 7000264:	1006923a 	slli	r3,r2,8
 7000268:	e0bffe17 	ldw	r2,-8(fp)
 700026c:	10801984 	addi	r2,r2,102
 7000270:	10800023 	ldbuio	r2,0(r2)
 7000274:	1884b03a 	or	r2,r3,r2
 7000278:	1004923a 	slli	r2,r2,8
 700027c:	e0bffa15 	stw	r2,-24(fp)
 7000280:	e0bffe17 	ldw	r2,-8(fp)
 7000284:	10801704 	addi	r2,r2,92
 7000288:	10800023 	ldbuio	r2,0(r2)
 700028c:	1006923a 	slli	r3,r2,8
 7000290:	e0bffe17 	ldw	r2,-8(fp)
 7000294:	10801684 	addi	r2,r2,90
 7000298:	10800023 	ldbuio	r2,0(r2)
 700029c:	1884b03a 	or	r2,r3,r2
 70002a0:	10800044 	addi	r2,r2,1
 70002a4:	e0bff915 	stw	r2,-28(fp)
 70002a8:	e0bffe17 	ldw	r2,-8(fp)
 70002ac:	10801904 	addi	r2,r2,100
 70002b0:	10800023 	ldbuio	r2,0(r2)
 70002b4:	1006923a 	slli	r3,r2,8
 70002b8:	e0bffe17 	ldw	r2,-8(fp)
 70002bc:	10801884 	addi	r2,r2,98
 70002c0:	10800023 	ldbuio	r2,0(r2)
 70002c4:	1884b03a 	or	r2,r3,r2
 70002c8:	10800044 	addi	r2,r2,1
 70002cc:	e0bff815 	stw	r2,-32(fp)
 70002d0:	00000f06 	br	7000310 <flash_init_block_map+0x10c>
 70002d4:	e0bffd17 	ldw	r2,-12(fp)
 70002d8:	1085883a 	add	r2,r2,r2
 70002dc:	1085883a 	add	r2,r2,r2
 70002e0:	1007883a 	mov	r3,r2
 70002e4:	e0bfff17 	ldw	r2,-4(fp)
 70002e8:	1887883a 	add	r3,r3,r2
 70002ec:	e0bffc17 	ldw	r2,-16(fp)
 70002f0:	18800015 	stw	r2,0(r3)
 70002f4:	e0fffc17 	ldw	r3,-16(fp)
 70002f8:	e0bffb17 	ldw	r2,-20(fp)
 70002fc:	1885883a 	add	r2,r3,r2
 7000300:	e0bffc15 	stw	r2,-16(fp)
 7000304:	e0bffd17 	ldw	r2,-12(fp)
 7000308:	10800044 	addi	r2,r2,1
 700030c:	e0bffd15 	stw	r2,-12(fp)
 7000310:	e0fffd17 	ldw	r3,-12(fp)
 7000314:	e0bff917 	ldw	r2,-28(fp)
 7000318:	18bfee36 	bltu	r3,r2,70002d4 <flash_init_block_map+0xd0>
 700031c:	00000f06 	br	700035c <flash_init_block_map+0x158>
 7000320:	e0bffd17 	ldw	r2,-12(fp)
 7000324:	1085883a 	add	r2,r2,r2
 7000328:	1085883a 	add	r2,r2,r2
 700032c:	1007883a 	mov	r3,r2
 7000330:	e0bfff17 	ldw	r2,-4(fp)
 7000334:	1887883a 	add	r3,r3,r2
 7000338:	e0bffc17 	ldw	r2,-16(fp)
 700033c:	18800015 	stw	r2,0(r3)
 7000340:	e0fffc17 	ldw	r3,-16(fp)
 7000344:	e0bffa17 	ldw	r2,-24(fp)
 7000348:	1885883a 	add	r2,r3,r2
 700034c:	e0bffc15 	stw	r2,-16(fp)
 7000350:	e0bffd17 	ldw	r2,-12(fp)
 7000354:	10800044 	addi	r2,r2,1
 7000358:	e0bffd15 	stw	r2,-12(fp)
 700035c:	e0fffd17 	ldw	r3,-12(fp)
 7000360:	e0bff817 	ldw	r2,-32(fp)
 7000364:	18bfee36 	bltu	r3,r2,7000320 <flash_init_block_map+0x11c>
 7000368:	e037883a 	mov	sp,fp
 700036c:	df000017 	ldw	fp,0(sp)
 7000370:	dec00104 	addi	sp,sp,4
 7000374:	f800283a 	ret

07000378 <flash_find_previous_block_boundary>:
 7000378:	defbf804 	addi	sp,sp,-4128
 700037c:	dfc40715 	stw	ra,4124(sp)
 7000380:	df040615 	stw	fp,4120(sp)
 7000384:	df040604 	addi	fp,sp,4120
 7000388:	e13ffe15 	stw	r4,-8(fp)
 700038c:	e17fff15 	stw	r5,-4(fp)
 7000390:	e13ffe17 	ldw	r4,-8(fp)
 7000394:	e17bfb04 	addi	r5,fp,-4116
 7000398:	70002040 	call	7000204 <flash_init_block_map>
 700039c:	00800044 	movi	r2,1
 70003a0:	e0bbfa15 	stw	r2,-4120(fp)
 70003a4:	00000c06 	br	70003d8 <flash_find_previous_block_boundary+0x60>
 70003a8:	e0bbfa17 	ldw	r2,-4120(fp)
 70003ac:	1085883a 	add	r2,r2,r2
 70003b0:	1085883a 	add	r2,r2,r2
 70003b4:	e0fbfa04 	addi	r3,fp,-4120
 70003b8:	10c5883a 	add	r2,r2,r3
 70003bc:	10800104 	addi	r2,r2,4
 70003c0:	10c00017 	ldw	r3,0(r2)
 70003c4:	e0bfff17 	ldw	r2,-4(fp)
 70003c8:	10c00636 	bltu	r2,r3,70003e4 <flash_find_previous_block_boundary+0x6c>
 70003cc:	e0bbfa17 	ldw	r2,-4120(fp)
 70003d0:	10800044 	addi	r2,r2,1
 70003d4:	e0bbfa15 	stw	r2,-4120(fp)
 70003d8:	e0bbfa17 	ldw	r2,-4120(fp)
 70003dc:	108100d0 	cmplti	r2,r2,1027
 70003e0:	103ff11e 	bne	r2,zero,70003a8 <flash_find_previous_block_boundary+0x30>
 70003e4:	e0bbfa17 	ldw	r2,-4120(fp)
 70003e8:	10bfffc4 	addi	r2,r2,-1
 70003ec:	1085883a 	add	r2,r2,r2
 70003f0:	1085883a 	add	r2,r2,r2
 70003f4:	e0fbfa04 	addi	r3,fp,-4120
 70003f8:	10c5883a 	add	r2,r2,r3
 70003fc:	10800104 	addi	r2,r2,4
 7000400:	10800017 	ldw	r2,0(r2)
 7000404:	e037883a 	mov	sp,fp
 7000408:	dfc00117 	ldw	ra,4(sp)
 700040c:	df000017 	ldw	fp,0(sp)
 7000410:	dec00204 	addi	sp,sp,8
 7000414:	f800283a 	ret

07000418 <flash_find_next_block_boundary>:
 7000418:	defbf804 	addi	sp,sp,-4128
 700041c:	dfc40715 	stw	ra,4124(sp)
 7000420:	df040615 	stw	fp,4120(sp)
 7000424:	df040604 	addi	fp,sp,4120
 7000428:	e13ffe15 	stw	r4,-8(fp)
 700042c:	e17fff15 	stw	r5,-4(fp)
 7000430:	e13ffe17 	ldw	r4,-8(fp)
 7000434:	e17bfb04 	addi	r5,fp,-4116
 7000438:	70002040 	call	7000204 <flash_init_block_map>
 700043c:	00800044 	movi	r2,1
 7000440:	e0bbfa15 	stw	r2,-4120(fp)
 7000444:	00000c06 	br	7000478 <flash_find_next_block_boundary+0x60>
 7000448:	e0bbfa17 	ldw	r2,-4120(fp)
 700044c:	1085883a 	add	r2,r2,r2
 7000450:	1085883a 	add	r2,r2,r2
 7000454:	e0fbfa04 	addi	r3,fp,-4120
 7000458:	10c5883a 	add	r2,r2,r3
 700045c:	10800104 	addi	r2,r2,4
 7000460:	10c00017 	ldw	r3,0(r2)
 7000464:	e0bfff17 	ldw	r2,-4(fp)
 7000468:	10c00636 	bltu	r2,r3,7000484 <flash_find_next_block_boundary+0x6c>
 700046c:	e0bbfa17 	ldw	r2,-4120(fp)
 7000470:	10800044 	addi	r2,r2,1
 7000474:	e0bbfa15 	stw	r2,-4120(fp)
 7000478:	e0bbfa17 	ldw	r2,-4120(fp)
 700047c:	108100d0 	cmplti	r2,r2,1027
 7000480:	103ff11e 	bne	r2,zero,7000448 <flash_find_next_block_boundary+0x30>
 7000484:	e0bbfa17 	ldw	r2,-4120(fp)
 7000488:	1085883a 	add	r2,r2,r2
 700048c:	1085883a 	add	r2,r2,r2
 7000490:	e0fbfa04 	addi	r3,fp,-4120
 7000494:	10c5883a 	add	r2,r2,r3
 7000498:	10800104 	addi	r2,r2,4
 700049c:	10800017 	ldw	r2,0(r2)
 70004a0:	e037883a 	mov	sp,fp
 70004a4:	dfc00117 	ldw	ra,4(sp)
 70004a8:	df000017 	ldw	fp,0(sp)
 70004ac:	dec00204 	addi	sp,sp,8
 70004b0:	f800283a 	ret

070004b4 <flash_clear_status_register>:
 70004b4:	defffe04 	addi	sp,sp,-8
 70004b8:	df000115 	stw	fp,4(sp)
 70004bc:	df000104 	addi	fp,sp,4
 70004c0:	e13fff15 	stw	r4,-4(fp)
 70004c4:	e0bfff17 	ldw	r2,-4(fp)
 70004c8:	1007883a 	mov	r3,r2
 70004cc:	00801404 	movi	r2,80
 70004d0:	1880002d 	sthio	r2,0(r3)
 70004d4:	e037883a 	mov	sp,fp
 70004d8:	df000017 	ldw	fp,0(sp)
 70004dc:	dec00104 	addi	sp,sp,4
 70004e0:	f800283a 	ret

070004e4 <flash_restore_read_mode>:
 70004e4:	defffc04 	addi	sp,sp,-16
 70004e8:	dfc00315 	stw	ra,12(sp)
 70004ec:	df000215 	stw	fp,8(sp)
 70004f0:	df000204 	addi	fp,sp,8
 70004f4:	e13ffe15 	stw	r4,-8(fp)
 70004f8:	e17fff15 	stw	r5,-4(fp)
 70004fc:	e13ffe17 	ldw	r4,-8(fp)
 7000500:	70004b40 	call	70004b4 <flash_clear_status_register>
 7000504:	e0fffe17 	ldw	r3,-8(fp)
 7000508:	e0bfff17 	ldw	r2,-4(fp)
 700050c:	1885883a 	add	r2,r3,r2
 7000510:	1007883a 	mov	r3,r2
 7000514:	00803fc4 	movi	r2,255
 7000518:	1880002d 	sthio	r2,0(r3)
 700051c:	e037883a 	mov	sp,fp
 7000520:	dfc00117 	ldw	ra,4(sp)
 7000524:	df000017 	ldw	fp,0(sp)
 7000528:	dec00204 	addi	sp,sp,8
 700052c:	f800283a 	ret

07000530 <flash_read_device_id_reg>:
 7000530:	defffb04 	addi	sp,sp,-20
 7000534:	dfc00415 	stw	ra,16(sp)
 7000538:	df000315 	stw	fp,12(sp)
 700053c:	df000304 	addi	fp,sp,12
 7000540:	e13ffe15 	stw	r4,-8(fp)
 7000544:	e17fff15 	stw	r5,-4(fp)
 7000548:	e03ffd15 	stw	zero,-12(fp)
 700054c:	e0fffe17 	ldw	r3,-8(fp)
 7000550:	e0bfff17 	ldw	r2,-4(fp)
 7000554:	1885883a 	add	r2,r3,r2
 7000558:	10800104 	addi	r2,r2,4
 700055c:	1007883a 	mov	r3,r2
 7000560:	00802404 	movi	r2,144
 7000564:	1880002d 	sthio	r2,0(r3)
 7000568:	e0fffe17 	ldw	r3,-8(fp)
 700056c:	e0bfff17 	ldw	r2,-4(fp)
 7000570:	1885883a 	add	r2,r3,r2
 7000574:	10800104 	addi	r2,r2,4
 7000578:	1080002b 	ldhuio	r2,0(r2)
 700057c:	e0bffd15 	stw	r2,-12(fp)
 7000580:	e13ffe17 	ldw	r4,-8(fp)
 7000584:	e17fff17 	ldw	r5,-4(fp)
 7000588:	70004e40 	call	70004e4 <flash_restore_read_mode>
 700058c:	e0bffd17 	ldw	r2,-12(fp)
 7000590:	e037883a 	mov	sp,fp
 7000594:	dfc00117 	ldw	ra,4(sp)
 7000598:	df000017 	ldw	fp,0(sp)
 700059c:	dec00204 	addi	sp,sp,8
 70005a0:	f800283a 	ret

070005a4 <flash_unlock_erase_block>:
 70005a4:	defffa04 	addi	sp,sp,-24
 70005a8:	dfc00515 	stw	ra,20(sp)
 70005ac:	df000415 	stw	fp,16(sp)
 70005b0:	df000404 	addi	fp,sp,16
 70005b4:	e13ffe15 	stw	r4,-8(fp)
 70005b8:	e17fff15 	stw	r5,-4(fp)
 70005bc:	e13ffe17 	ldw	r4,-8(fp)
 70005c0:	e17fff17 	ldw	r5,-4(fp)
 70005c4:	70003780 	call	7000378 <flash_find_previous_block_boundary>
 70005c8:	e0bffd15 	stw	r2,-12(fp)
 70005cc:	e03ffc15 	stw	zero,-16(fp)
 70005d0:	e13ffe17 	ldw	r4,-8(fp)
 70005d4:	70004b40 	call	70004b4 <flash_clear_status_register>
 70005d8:	e0fffe17 	ldw	r3,-8(fp)
 70005dc:	e0bffd17 	ldw	r2,-12(fp)
 70005e0:	1885883a 	add	r2,r3,r2
 70005e4:	1007883a 	mov	r3,r2
 70005e8:	00801804 	movi	r2,96
 70005ec:	1880002d 	sthio	r2,0(r3)
 70005f0:	e0fffe17 	ldw	r3,-8(fp)
 70005f4:	e0bffd17 	ldw	r2,-12(fp)
 70005f8:	1885883a 	add	r2,r3,r2
 70005fc:	1007883a 	mov	r3,r2
 7000600:	00803404 	movi	r2,208
 7000604:	1880002d 	sthio	r2,0(r3)
 7000608:	e13ffe17 	ldw	r4,-8(fp)
 700060c:	e17ffd17 	ldw	r5,-12(fp)
 7000610:	70005300 	call	7000530 <flash_read_device_id_reg>
 7000614:	e0bffc15 	stw	r2,-16(fp)
 7000618:	0005883a 	mov	r2,zero
 700061c:	e037883a 	mov	sp,fp
 7000620:	dfc00117 	ldw	ra,4(sp)
 7000624:	df000017 	ldw	fp,0(sp)
 7000628:	dec00204 	addi	sp,sp,8
 700062c:	f800283a 	ret

07000630 <flash_acquire_write_buffer>:
 7000630:	defff904 	addi	sp,sp,-28
 7000634:	df000615 	stw	fp,24(sp)
 7000638:	df000604 	addi	fp,sp,24
 700063c:	e13ffb15 	stw	r4,-20(fp)
 7000640:	e17ffc15 	stw	r5,-16(fp)
 7000644:	e1bffd15 	stw	r6,-12(fp)
 7000648:	e1fffe15 	stw	r7,-8(fp)
 700064c:	e0bffd17 	ldw	r2,-12(fp)
 7000650:	10000015 	stw	zero,0(r2)
 7000654:	e0fffb17 	ldw	r3,-20(fp)
 7000658:	e0bffc17 	ldw	r2,-16(fp)
 700065c:	1885883a 	add	r2,r3,r2
 7000660:	1007883a 	mov	r3,r2
 7000664:	00803a04 	movi	r2,232
 7000668:	1880002d 	sthio	r2,0(r3)
 700066c:	e0fffb17 	ldw	r3,-20(fp)
 7000670:	e0bffc17 	ldw	r2,-16(fp)
 7000674:	1885883a 	add	r2,r3,r2
 7000678:	1080002b 	ldhuio	r2,0(r2)
 700067c:	e0bffa0d 	sth	r2,-24(fp)
 7000680:	e0bffa0b 	ldhu	r2,-24(fp)
 7000684:	1080200c 	andi	r2,r2,128
 7000688:	1005003a 	cmpeq	r2,r2,zero
 700068c:	1000091e 	bne	r2,zero,70006b4 <flash_acquire_write_buffer+0x84>
 7000690:	e0bffa0b 	ldhu	r2,-24(fp)
 7000694:	10800ecc 	andi	r2,r2,59
 7000698:	1005003a 	cmpeq	r2,r2,zero
 700069c:	1000031e 	bne	r2,zero,70006ac <flash_acquire_write_buffer+0x7c>
 70006a0:	e0bffa0b 	ldhu	r2,-24(fp)
 70006a4:	e0bfff15 	stw	r2,-4(fp)
 70006a8:	00000f06 	br	70006e8 <flash_acquire_write_buffer+0xb8>
 70006ac:	e03fff15 	stw	zero,-4(fp)
 70006b0:	00000d06 	br	70006e8 <flash_acquire_write_buffer+0xb8>
 70006b4:	e0bffd17 	ldw	r2,-12(fp)
 70006b8:	10c00017 	ldw	r3,0(r2)
 70006bc:	e0bffe17 	ldw	r2,-8(fp)
 70006c0:	1884803a 	cmplt	r2,r3,r2
 70006c4:	1009883a 	mov	r4,r2
 70006c8:	18c00044 	addi	r3,r3,1
 70006cc:	e0bffd17 	ldw	r2,-12(fp)
 70006d0:	10c00015 	stw	r3,0(r2)
 70006d4:	20803fcc 	andi	r2,r4,255
 70006d8:	1004c03a 	cmpne	r2,r2,zero
 70006dc:	103fdd1e 	bne	r2,zero,7000654 <flash_acquire_write_buffer+0x24>
 70006e0:	00bfffc4 	movi	r2,-1
 70006e4:	e0bfff15 	stw	r2,-4(fp)
 70006e8:	e0bfff17 	ldw	r2,-4(fp)
 70006ec:	e037883a 	mov	sp,fp
 70006f0:	df000017 	ldw	fp,0(sp)
 70006f4:	dec00104 	addi	sp,sp,4
 70006f8:	f800283a 	ret

070006fc <flash_fill_write_buffer>:
 70006fc:	defffb04 	addi	sp,sp,-20
 7000700:	df000415 	stw	fp,16(sp)
 7000704:	df000404 	addi	fp,sp,16
 7000708:	e13ffc15 	stw	r4,-16(fp)
 700070c:	e17ffd15 	stw	r5,-12(fp)
 7000710:	e1bffe15 	stw	r6,-8(fp)
 7000714:	e1ffff15 	stw	r7,-4(fp)
 7000718:	00000e06 	br	7000754 <flash_fill_write_buffer+0x58>
 700071c:	e0fffc17 	ldw	r3,-16(fp)
 7000720:	e0bffd17 	ldw	r2,-12(fp)
 7000724:	1889883a 	add	r4,r3,r2
 7000728:	e0bffe17 	ldw	r2,-8(fp)
 700072c:	1080000b 	ldhu	r2,0(r2)
 7000730:	10ffffcc 	andi	r3,r2,65535
 7000734:	e0bffe17 	ldw	r2,-8(fp)
 7000738:	10800084 	addi	r2,r2,2
 700073c:	e0bffe15 	stw	r2,-8(fp)
 7000740:	2005883a 	mov	r2,r4
 7000744:	10c0002d 	sthio	r3,0(r2)
 7000748:	e0bffd17 	ldw	r2,-12(fp)
 700074c:	10800084 	addi	r2,r2,2
 7000750:	e0bffd15 	stw	r2,-12(fp)
 7000754:	e0bfff17 	ldw	r2,-4(fp)
 7000758:	10800048 	cmpgei	r2,r2,1
 700075c:	1007883a 	mov	r3,r2
 7000760:	e0bfff17 	ldw	r2,-4(fp)
 7000764:	10bfffc4 	addi	r2,r2,-1
 7000768:	e0bfff15 	stw	r2,-4(fp)
 700076c:	18803fcc 	andi	r2,r3,255
 7000770:	1004c03a 	cmpne	r2,r2,zero
 7000774:	103fe91e 	bne	r2,zero,700071c <flash_fill_write_buffer+0x20>
 7000778:	e037883a 	mov	sp,fp
 700077c:	df000017 	ldw	fp,0(sp)
 7000780:	dec00104 	addi	sp,sp,4
 7000784:	f800283a 	ret

07000788 <flash_wait_for_operation_done>:
 7000788:	defff904 	addi	sp,sp,-28
 700078c:	df000615 	stw	fp,24(sp)
 7000790:	df000604 	addi	fp,sp,24
 7000794:	e13ffb15 	stw	r4,-20(fp)
 7000798:	e17ffc15 	stw	r5,-16(fp)
 700079c:	e1bffd15 	stw	r6,-12(fp)
 70007a0:	e1fffe15 	stw	r7,-8(fp)
 70007a4:	e0bffd17 	ldw	r2,-12(fp)
 70007a8:	10000015 	stw	zero,0(r2)
 70007ac:	e0fffb17 	ldw	r3,-20(fp)
 70007b0:	e0bffc17 	ldw	r2,-16(fp)
 70007b4:	1885883a 	add	r2,r3,r2
 70007b8:	1080002b 	ldhuio	r2,0(r2)
 70007bc:	e0bffa0d 	sth	r2,-24(fp)
 70007c0:	e0bffa0b 	ldhu	r2,-24(fp)
 70007c4:	1080200c 	andi	r2,r2,128
 70007c8:	1005003a 	cmpeq	r2,r2,zero
 70007cc:	1000091e 	bne	r2,zero,70007f4 <flash_wait_for_operation_done+0x6c>
 70007d0:	e0bffa0b 	ldhu	r2,-24(fp)
 70007d4:	10800ecc 	andi	r2,r2,59
 70007d8:	1005003a 	cmpeq	r2,r2,zero
 70007dc:	1000031e 	bne	r2,zero,70007ec <flash_wait_for_operation_done+0x64>
 70007e0:	e0bffa0b 	ldhu	r2,-24(fp)
 70007e4:	e0bfff15 	stw	r2,-4(fp)
 70007e8:	00000f06 	br	7000828 <flash_wait_for_operation_done+0xa0>
 70007ec:	e03fff15 	stw	zero,-4(fp)
 70007f0:	00000d06 	br	7000828 <flash_wait_for_operation_done+0xa0>
 70007f4:	e0bffd17 	ldw	r2,-12(fp)
 70007f8:	10c00017 	ldw	r3,0(r2)
 70007fc:	e0bffe17 	ldw	r2,-8(fp)
 7000800:	1884803a 	cmplt	r2,r3,r2
 7000804:	1009883a 	mov	r4,r2
 7000808:	18c00044 	addi	r3,r3,1
 700080c:	e0bffd17 	ldw	r2,-12(fp)
 7000810:	10c00015 	stw	r3,0(r2)
 7000814:	20803fcc 	andi	r2,r4,255
 7000818:	1004c03a 	cmpne	r2,r2,zero
 700081c:	103fe31e 	bne	r2,zero,70007ac <flash_wait_for_operation_done+0x24>
 7000820:	00bfffc4 	movi	r2,-1
 7000824:	e0bfff15 	stw	r2,-4(fp)
 7000828:	e0bfff17 	ldw	r2,-4(fp)
 700082c:	e037883a 	mov	sp,fp
 7000830:	df000017 	ldw	fp,0(sp)
 7000834:	dec00104 	addi	sp,sp,4
 7000838:	f800283a 	ret

0700083c <flash_program_buffer>:
 700083c:	defff804 	addi	sp,sp,-32
 7000840:	dfc00715 	stw	ra,28(sp)
 7000844:	df000615 	stw	fp,24(sp)
 7000848:	df000604 	addi	fp,sp,24
 700084c:	e13ffb15 	stw	r4,-20(fp)
 7000850:	e17ffc15 	stw	r5,-16(fp)
 7000854:	e1bffd15 	stw	r6,-12(fp)
 7000858:	e1fffe15 	stw	r7,-8(fp)
 700085c:	e13ffb17 	ldw	r4,-20(fp)
 7000860:	70004b40 	call	70004b4 <flash_clear_status_register>
 7000864:	e13ffb17 	ldw	r4,-20(fp)
 7000868:	e17ffc17 	ldw	r5,-16(fp)
 700086c:	e1800217 	ldw	r6,8(fp)
 7000870:	e1c00317 	ldw	r7,12(fp)
 7000874:	70006300 	call	7000630 <flash_acquire_write_buffer>
 7000878:	e0bffa15 	stw	r2,-24(fp)
 700087c:	e0bffa17 	ldw	r2,-24(fp)
 7000880:	1005003a 	cmpeq	r2,r2,zero
 7000884:	1000031e 	bne	r2,zero,7000894 <flash_program_buffer+0x58>
 7000888:	e0bffa17 	ldw	r2,-24(fp)
 700088c:	e0bfff15 	stw	r2,-4(fp)
 7000890:	00002b06 	br	7000940 <flash_program_buffer+0x104>
 7000894:	e0fffb17 	ldw	r3,-20(fp)
 7000898:	e0bffc17 	ldw	r2,-16(fp)
 700089c:	1889883a 	add	r4,r3,r2
 70008a0:	e0bffe17 	ldw	r2,-8(fp)
 70008a4:	10ffffc4 	addi	r3,r2,-1
 70008a8:	2005883a 	mov	r2,r4
 70008ac:	10c0002d 	sthio	r3,0(r2)
 70008b0:	e0fffb17 	ldw	r3,-20(fp)
 70008b4:	e0bffc17 	ldw	r2,-16(fp)
 70008b8:	1885883a 	add	r2,r3,r2
 70008bc:	1080002b 	ldhuio	r2,0(r2)
 70008c0:	e0bffa15 	stw	r2,-24(fp)
 70008c4:	e0bffa17 	ldw	r2,-24(fp)
 70008c8:	10800ecc 	andi	r2,r2,59
 70008cc:	1005003a 	cmpeq	r2,r2,zero
 70008d0:	1000031e 	bne	r2,zero,70008e0 <flash_program_buffer+0xa4>
 70008d4:	e0bffa17 	ldw	r2,-24(fp)
 70008d8:	e0bfff15 	stw	r2,-4(fp)
 70008dc:	00001806 	br	7000940 <flash_program_buffer+0x104>
 70008e0:	e13ffb17 	ldw	r4,-20(fp)
 70008e4:	e17ffc17 	ldw	r5,-16(fp)
 70008e8:	e1bffd17 	ldw	r6,-12(fp)
 70008ec:	e1fffe17 	ldw	r7,-8(fp)
 70008f0:	70006fc0 	call	70006fc <flash_fill_write_buffer>
 70008f4:	e0fffb17 	ldw	r3,-20(fp)
 70008f8:	e0bffc17 	ldw	r2,-16(fp)
 70008fc:	1885883a 	add	r2,r3,r2
 7000900:	1007883a 	mov	r3,r2
 7000904:	00803404 	movi	r2,208
 7000908:	1880002d 	sthio	r2,0(r3)
 700090c:	e13ffb17 	ldw	r4,-20(fp)
 7000910:	e17ffc17 	ldw	r5,-16(fp)
 7000914:	e1800417 	ldw	r6,16(fp)
 7000918:	e1c00517 	ldw	r7,20(fp)
 700091c:	70007880 	call	7000788 <flash_wait_for_operation_done>
 7000920:	e0bffa15 	stw	r2,-24(fp)
 7000924:	e0bffa17 	ldw	r2,-24(fp)
 7000928:	1005003a 	cmpeq	r2,r2,zero
 700092c:	1000031e 	bne	r2,zero,700093c <flash_program_buffer+0x100>
 7000930:	e0bffa17 	ldw	r2,-24(fp)
 7000934:	e0bfff15 	stw	r2,-4(fp)
 7000938:	00000106 	br	7000940 <flash_program_buffer+0x104>
 700093c:	e03fff15 	stw	zero,-4(fp)
 7000940:	e0bfff17 	ldw	r2,-4(fp)
 7000944:	e037883a 	mov	sp,fp
 7000948:	dfc00117 	ldw	ra,4(sp)
 700094c:	df000017 	ldw	fp,0(sp)
 7000950:	dec00204 	addi	sp,sp,8
 7000954:	f800283a 	ret

07000958 <flash_program_within_erase_block>:
 7000958:	deffef04 	addi	sp,sp,-68
 700095c:	dfc01015 	stw	ra,64(sp)
 7000960:	df000f15 	stw	fp,60(sp)
 7000964:	df000f04 	addi	fp,sp,60
 7000968:	e13ffb15 	stw	r4,-20(fp)
 700096c:	e17ffc15 	stw	r5,-16(fp)
 7000970:	e1bffd15 	stw	r6,-12(fp)
 7000974:	e1fffe15 	stw	r7,-8(fp)
 7000978:	e03ff915 	stw	zero,-28(fp)
 700097c:	e03ffa15 	stw	zero,-24(fp)
 7000980:	e03ff815 	stw	zero,-32(fp)
 7000984:	e03ff715 	stw	zero,-36(fp)
 7000988:	00004306 	br	7000a98 <flash_program_within_erase_block+0x140>
 700098c:	00800804 	movi	r2,32
 7000990:	e0bff815 	stw	r2,-32(fp)
 7000994:	e0bffc17 	ldw	r2,-16(fp)
 7000998:	10800fcc 	andi	r2,r2,63
 700099c:	1005003a 	cmpeq	r2,r2,zero
 70009a0:	10000e1e 	bne	r2,zero,70009dc <flash_program_within_erase_block+0x84>
 70009a4:	e0bffc17 	ldw	r2,-16(fp)
 70009a8:	1004d1ba 	srli	r2,r2,6
 70009ac:	100491ba 	slli	r2,r2,6
 70009b0:	10801004 	addi	r2,r2,64
 70009b4:	e0bff615 	stw	r2,-40(fp)
 70009b8:	e0fff617 	ldw	r3,-40(fp)
 70009bc:	e0bffc17 	ldw	r2,-16(fp)
 70009c0:	1885c83a 	sub	r2,r3,r2
 70009c4:	e0bff515 	stw	r2,-44(fp)
 70009c8:	e0fff517 	ldw	r3,-44(fp)
 70009cc:	1804d7fa 	srli	r2,r3,31
 70009d0:	10c5883a 	add	r2,r2,r3
 70009d4:	1005d07a 	srai	r2,r2,1
 70009d8:	e0bff815 	stw	r2,-32(fp)
 70009dc:	e0fff817 	ldw	r3,-32(fp)
 70009e0:	e0bffe17 	ldw	r2,-8(fp)
 70009e4:	10c0020e 	bge	r2,r3,70009f0 <flash_program_within_erase_block+0x98>
 70009e8:	e0bffe17 	ldw	r2,-8(fp)
 70009ec:	e0bff815 	stw	r2,-32(fp)
 70009f0:	e0bff904 	addi	r2,fp,-28
 70009f4:	d8800015 	stw	r2,0(sp)
 70009f8:	e0800317 	ldw	r2,12(fp)
 70009fc:	d8800115 	stw	r2,4(sp)
 7000a00:	e0bffa04 	addi	r2,fp,-24
 7000a04:	d8800215 	stw	r2,8(sp)
 7000a08:	e0800417 	ldw	r2,16(fp)
 7000a0c:	d8800315 	stw	r2,12(sp)
 7000a10:	e13ffb17 	ldw	r4,-20(fp)
 7000a14:	e17ffc17 	ldw	r5,-16(fp)
 7000a18:	e1bffd17 	ldw	r6,-12(fp)
 7000a1c:	e1fff817 	ldw	r7,-32(fp)
 7000a20:	700083c0 	call	700083c <flash_program_buffer>
 7000a24:	e0bff715 	stw	r2,-36(fp)
 7000a28:	e0bff717 	ldw	r2,-36(fp)
 7000a2c:	1005003a 	cmpeq	r2,r2,zero
 7000a30:	1000031e 	bne	r2,zero,7000a40 <flash_program_within_erase_block+0xe8>
 7000a34:	e0bff717 	ldw	r2,-36(fp)
 7000a38:	e0bfff15 	stw	r2,-4(fp)
 7000a3c:	00001d06 	br	7000ab4 <flash_program_within_erase_block+0x15c>
 7000a40:	e0bff917 	ldw	r2,-28(fp)
 7000a44:	100b883a 	mov	r5,r2
 7000a48:	e0bffa17 	ldw	r2,-24(fp)
 7000a4c:	100d883a 	mov	r6,r2
 7000a50:	e1000217 	ldw	r4,8(fp)
 7000a54:	70000a80 	call	70000a8 <flash_program_stats_add_sample>
 7000a58:	e0bff817 	ldw	r2,-32(fp)
 7000a5c:	1085883a 	add	r2,r2,r2
 7000a60:	1007883a 	mov	r3,r2
 7000a64:	e0bffd17 	ldw	r2,-12(fp)
 7000a68:	10c5883a 	add	r2,r2,r3
 7000a6c:	e0bffd15 	stw	r2,-12(fp)
 7000a70:	e0bff817 	ldw	r2,-32(fp)
 7000a74:	1085883a 	add	r2,r2,r2
 7000a78:	1007883a 	mov	r3,r2
 7000a7c:	e0bffc17 	ldw	r2,-16(fp)
 7000a80:	10c5883a 	add	r2,r2,r3
 7000a84:	e0bffc15 	stw	r2,-16(fp)
 7000a88:	e0fffe17 	ldw	r3,-8(fp)
 7000a8c:	e0bff817 	ldw	r2,-32(fp)
 7000a90:	1885c83a 	sub	r2,r3,r2
 7000a94:	e0bffe15 	stw	r2,-8(fp)
 7000a98:	e0bffe17 	ldw	r2,-8(fp)
 7000a9c:	10800048 	cmpgei	r2,r2,1
 7000aa0:	103fba1e 	bne	r2,zero,700098c <flash_program_within_erase_block+0x34>
 7000aa4:	e13ffb17 	ldw	r4,-20(fp)
 7000aa8:	e17ffc17 	ldw	r5,-16(fp)
 7000aac:	70004e40 	call	70004e4 <flash_restore_read_mode>
 7000ab0:	e03fff15 	stw	zero,-4(fp)
 7000ab4:	e0bfff17 	ldw	r2,-4(fp)
 7000ab8:	e037883a 	mov	sp,fp
 7000abc:	dfc00117 	ldw	ra,4(sp)
 7000ac0:	df000017 	ldw	fp,0(sp)
 7000ac4:	dec00204 	addi	sp,sp,8
 7000ac8:	f800283a 	ret

07000acc <flash_program_across_blocks>:
 7000acc:	defff204 	addi	sp,sp,-56
 7000ad0:	dfc00d15 	stw	ra,52(sp)
 7000ad4:	df000c15 	stw	fp,48(sp)
 7000ad8:	df000c04 	addi	fp,sp,48
 7000adc:	e13ffb15 	stw	r4,-20(fp)
 7000ae0:	e17ffc15 	stw	r5,-16(fp)
 7000ae4:	e1bffd15 	stw	r6,-12(fp)
 7000ae8:	e1fffe15 	stw	r7,-8(fp)
 7000aec:	e03ffa15 	stw	zero,-24(fp)
 7000af0:	00003c06 	br	7000be4 <flash_program_across_blocks+0x118>
 7000af4:	e0bffe17 	ldw	r2,-8(fp)
 7000af8:	e0bff915 	stw	r2,-28(fp)
 7000afc:	e13ffb17 	ldw	r4,-20(fp)
 7000b00:	e17ffc17 	ldw	r5,-16(fp)
 7000b04:	70004180 	call	7000418 <flash_find_next_block_boundary>
 7000b08:	e0bff815 	stw	r2,-32(fp)
 7000b0c:	e0fff817 	ldw	r3,-32(fp)
 7000b10:	e0bffc17 	ldw	r2,-16(fp)
 7000b14:	1885c83a 	sub	r2,r3,r2
 7000b18:	1004d07a 	srli	r2,r2,1
 7000b1c:	e0bff715 	stw	r2,-36(fp)
 7000b20:	e0fff717 	ldw	r3,-36(fp)
 7000b24:	e0bffe17 	ldw	r2,-8(fp)
 7000b28:	1880020e 	bge	r3,r2,7000b34 <flash_program_across_blocks+0x68>
 7000b2c:	e0bff717 	ldw	r2,-36(fp)
 7000b30:	e0bff915 	stw	r2,-28(fp)
 7000b34:	e13ffb17 	ldw	r4,-20(fp)
 7000b38:	e17ffc17 	ldw	r5,-16(fp)
 7000b3c:	70005a40 	call	70005a4 <flash_unlock_erase_block>
 7000b40:	e0bffa15 	stw	r2,-24(fp)
 7000b44:	e0bffa17 	ldw	r2,-24(fp)
 7000b48:	1005003a 	cmpeq	r2,r2,zero
 7000b4c:	1000031e 	bne	r2,zero,7000b5c <flash_program_across_blocks+0x90>
 7000b50:	e0bffa17 	ldw	r2,-24(fp)
 7000b54:	e0bfff15 	stw	r2,-4(fp)
 7000b58:	00002606 	br	7000bf4 <flash_program_across_blocks+0x128>
 7000b5c:	e0800217 	ldw	r2,8(fp)
 7000b60:	d8800015 	stw	r2,0(sp)
 7000b64:	e0800317 	ldw	r2,12(fp)
 7000b68:	d8800115 	stw	r2,4(sp)
 7000b6c:	e0800417 	ldw	r2,16(fp)
 7000b70:	d8800215 	stw	r2,8(sp)
 7000b74:	e13ffb17 	ldw	r4,-20(fp)
 7000b78:	e17ffc17 	ldw	r5,-16(fp)
 7000b7c:	e1bffd17 	ldw	r6,-12(fp)
 7000b80:	e1fffe17 	ldw	r7,-8(fp)
 7000b84:	70009580 	call	7000958 <flash_program_within_erase_block>
 7000b88:	e0bffa15 	stw	r2,-24(fp)
 7000b8c:	e0bffa17 	ldw	r2,-24(fp)
 7000b90:	1005003a 	cmpeq	r2,r2,zero
 7000b94:	1000031e 	bne	r2,zero,7000ba4 <flash_program_across_blocks+0xd8>
 7000b98:	e0bffa17 	ldw	r2,-24(fp)
 7000b9c:	e0bfff15 	stw	r2,-4(fp)
 7000ba0:	00001406 	br	7000bf4 <flash_program_across_blocks+0x128>
 7000ba4:	e0bff917 	ldw	r2,-28(fp)
 7000ba8:	1085883a 	add	r2,r2,r2
 7000bac:	1007883a 	mov	r3,r2
 7000bb0:	e0bffd17 	ldw	r2,-12(fp)
 7000bb4:	10c5883a 	add	r2,r2,r3
 7000bb8:	e0bffd15 	stw	r2,-12(fp)
 7000bbc:	e0bff917 	ldw	r2,-28(fp)
 7000bc0:	1085883a 	add	r2,r2,r2
 7000bc4:	1007883a 	mov	r3,r2
 7000bc8:	e0bffc17 	ldw	r2,-16(fp)
 7000bcc:	10c5883a 	add	r2,r2,r3
 7000bd0:	e0bffc15 	stw	r2,-16(fp)
 7000bd4:	e0fffe17 	ldw	r3,-8(fp)
 7000bd8:	e0bff917 	ldw	r2,-28(fp)
 7000bdc:	1885c83a 	sub	r2,r3,r2
 7000be0:	e0bffe15 	stw	r2,-8(fp)
 7000be4:	e0bffe17 	ldw	r2,-8(fp)
 7000be8:	10800048 	cmpgei	r2,r2,1
 7000bec:	103fc11e 	bne	r2,zero,7000af4 <flash_program_across_blocks+0x28>
 7000bf0:	e03fff15 	stw	zero,-4(fp)
 7000bf4:	e0bfff17 	ldw	r2,-4(fp)
 7000bf8:	e037883a 	mov	sp,fp
 7000bfc:	dfc00117 	ldw	ra,4(sp)
 7000c00:	df000017 	ldw	fp,0(sp)
 7000c04:	dec00204 	addi	sp,sp,8
 7000c08:	f800283a 	ret

07000c0c <flash_intel_p30_write>:
 7000c0c:	deffef04 	addi	sp,sp,-68
 7000c10:	dfc01015 	stw	ra,64(sp)
 7000c14:	df000f15 	stw	fp,60(sp)
 7000c18:	df000f04 	addi	fp,sp,60
 7000c1c:	e13ffc15 	stw	r4,-16(fp)
 7000c20:	e17ffd15 	stw	r5,-12(fp)
 7000c24:	e1bffe15 	stw	r6,-8(fp)
 7000c28:	e1ffff15 	stw	r7,-4(fp)
 7000c2c:	e13ff504 	addi	r4,fp,-44
 7000c30:	70000480 	call	7000048 <flash_program_stats_init>
 7000c34:	e03ff415 	stw	zero,-48(fp)
 7000c38:	e0bff504 	addi	r2,fp,-44
 7000c3c:	d8800015 	stw	r2,0(sp)
 7000c40:	008003f4 	movhi	r2,15
 7000c44:	10909004 	addi	r2,r2,16960
 7000c48:	d8800115 	stw	r2,4(sp)
 7000c4c:	008003f4 	movhi	r2,15
 7000c50:	10909004 	addi	r2,r2,16960
 7000c54:	d8800215 	stw	r2,8(sp)
 7000c58:	e13ffc17 	ldw	r4,-16(fp)
 7000c5c:	e17ffd17 	ldw	r5,-12(fp)
 7000c60:	e1bffe17 	ldw	r6,-8(fp)
 7000c64:	e1ffff17 	ldw	r7,-4(fp)
 7000c68:	7000acc0 	call	7000acc <flash_program_across_blocks>
 7000c6c:	e0bff415 	stw	r2,-48(fp)
 7000c70:	e0bff417 	ldw	r2,-48(fp)
 7000c74:	1004c03a 	cmpne	r2,r2,zero
 7000c78:	1000021e 	bne	r2,zero,7000c84 <flash_intel_p30_write+0x78>
 7000c7c:	e13ff504 	addi	r4,fp,-44
 7000c80:	70001e40 	call	70001e4 <flash_program_stats_print>
 7000c84:	0005883a 	mov	r2,zero
 7000c88:	e037883a 	mov	sp,fp
 7000c8c:	dfc00117 	ldw	ra,4(sp)
 7000c90:	df000017 	ldw	fp,0(sp)
 7000c94:	dec00204 	addi	sp,sp,8
 7000c98:	f800283a 	ret

07000c9c <flash_erase_block>:
 7000c9c:	defff804 	addi	sp,sp,-32
 7000ca0:	dfc00715 	stw	ra,28(sp)
 7000ca4:	df000615 	stw	fp,24(sp)
 7000ca8:	df000604 	addi	fp,sp,24
 7000cac:	e13ffb15 	stw	r4,-20(fp)
 7000cb0:	e17ffc15 	stw	r5,-16(fp)
 7000cb4:	e1bffd15 	stw	r6,-12(fp)
 7000cb8:	e1fffe15 	stw	r7,-8(fp)
 7000cbc:	e13ffb17 	ldw	r4,-20(fp)
 7000cc0:	70004b40 	call	70004b4 <flash_clear_status_register>
 7000cc4:	e0fffb17 	ldw	r3,-20(fp)
 7000cc8:	e0bffc17 	ldw	r2,-16(fp)
 7000ccc:	1885883a 	add	r2,r3,r2
 7000cd0:	1007883a 	mov	r3,r2
 7000cd4:	00800804 	movi	r2,32
 7000cd8:	1880002d 	sthio	r2,0(r3)
 7000cdc:	e0fffb17 	ldw	r3,-20(fp)
 7000ce0:	e0bffc17 	ldw	r2,-16(fp)
 7000ce4:	1885883a 	add	r2,r3,r2
 7000ce8:	1007883a 	mov	r3,r2
 7000cec:	00803404 	movi	r2,208
 7000cf0:	1880002d 	sthio	r2,0(r3)
 7000cf4:	e13ffb17 	ldw	r4,-20(fp)
 7000cf8:	e17ffc17 	ldw	r5,-16(fp)
 7000cfc:	e1bffd17 	ldw	r6,-12(fp)
 7000d00:	e1fffe17 	ldw	r7,-8(fp)
 7000d04:	70007880 	call	7000788 <flash_wait_for_operation_done>
 7000d08:	e0bffa15 	stw	r2,-24(fp)
 7000d0c:	e0bffa17 	ldw	r2,-24(fp)
 7000d10:	1005003a 	cmpeq	r2,r2,zero
 7000d14:	1000031e 	bne	r2,zero,7000d24 <flash_erase_block+0x88>
 7000d18:	e0bffa17 	ldw	r2,-24(fp)
 7000d1c:	e0bfff15 	stw	r2,-4(fp)
 7000d20:	00000406 	br	7000d34 <flash_erase_block+0x98>
 7000d24:	e13ffb17 	ldw	r4,-20(fp)
 7000d28:	e17ffc17 	ldw	r5,-16(fp)
 7000d2c:	70004e40 	call	70004e4 <flash_restore_read_mode>
 7000d30:	e03fff15 	stw	zero,-4(fp)
 7000d34:	e0bfff17 	ldw	r2,-4(fp)
 7000d38:	e037883a 	mov	sp,fp
 7000d3c:	dfc00117 	ldw	ra,4(sp)
 7000d40:	df000017 	ldw	fp,0(sp)
 7000d44:	dec00204 	addi	sp,sp,8
 7000d48:	f800283a 	ret

07000d4c <flash_erase_across_blocks>:
 7000d4c:	defff504 	addi	sp,sp,-44
 7000d50:	dfc00a15 	stw	ra,40(sp)
 7000d54:	df000915 	stw	fp,36(sp)
 7000d58:	df000904 	addi	fp,sp,36
 7000d5c:	e13ffb15 	stw	r4,-20(fp)
 7000d60:	e17ffc15 	stw	r5,-16(fp)
 7000d64:	e1bffd15 	stw	r6,-12(fp)
 7000d68:	e1fffe15 	stw	r7,-8(fp)
 7000d6c:	e0fffc17 	ldw	r3,-16(fp)
 7000d70:	e0bffd17 	ldw	r2,-12(fp)
 7000d74:	1885883a 	add	r2,r3,r2
 7000d78:	e0bff815 	stw	r2,-32(fp)
 7000d7c:	e0bffd17 	ldw	r2,-12(fp)
 7000d80:	e0bff715 	stw	r2,-36(fp)
 7000d84:	00002406 	br	7000e18 <flash_erase_across_blocks+0xcc>
 7000d88:	e13ffb17 	ldw	r4,-20(fp)
 7000d8c:	e17ffc17 	ldw	r5,-16(fp)
 7000d90:	70005a40 	call	70005a4 <flash_unlock_erase_block>
 7000d94:	e0bff915 	stw	r2,-28(fp)
 7000d98:	e0bff917 	ldw	r2,-28(fp)
 7000d9c:	1005003a 	cmpeq	r2,r2,zero
 7000da0:	1000031e 	bne	r2,zero,7000db0 <flash_erase_across_blocks+0x64>
 7000da4:	e0bff917 	ldw	r2,-28(fp)
 7000da8:	e0bfff15 	stw	r2,-4(fp)
 7000dac:	00001e06 	br	7000e28 <flash_erase_across_blocks+0xdc>
 7000db0:	e1bffa04 	addi	r6,fp,-24
 7000db4:	e13ffb17 	ldw	r4,-20(fp)
 7000db8:	e17ffc17 	ldw	r5,-16(fp)
 7000dbc:	e1c00217 	ldw	r7,8(fp)
 7000dc0:	7000c9c0 	call	7000c9c <flash_erase_block>
 7000dc4:	e0bff915 	stw	r2,-28(fp)
 7000dc8:	e0bff917 	ldw	r2,-28(fp)
 7000dcc:	1005003a 	cmpeq	r2,r2,zero
 7000dd0:	1000031e 	bne	r2,zero,7000de0 <flash_erase_across_blocks+0x94>
 7000dd4:	e0bff917 	ldw	r2,-28(fp)
 7000dd8:	e0bfff15 	stw	r2,-4(fp)
 7000ddc:	00001206 	br	7000e28 <flash_erase_across_blocks+0xdc>
 7000de0:	e0bffa17 	ldw	r2,-24(fp)
 7000de4:	100d883a 	mov	r6,r2
 7000de8:	e13ffe17 	ldw	r4,-8(fp)
 7000dec:	000b883a 	mov	r5,zero
 7000df0:	70000a80 	call	70000a8 <flash_program_stats_add_sample>
 7000df4:	e0bffc17 	ldw	r2,-16(fp)
 7000df8:	11400044 	addi	r5,r2,1
 7000dfc:	e13ffb17 	ldw	r4,-20(fp)
 7000e00:	70004180 	call	7000418 <flash_find_next_block_boundary>
 7000e04:	e0bffc15 	stw	r2,-16(fp)
 7000e08:	e0fff817 	ldw	r3,-32(fp)
 7000e0c:	e0bffc17 	ldw	r2,-16(fp)
 7000e10:	1885c83a 	sub	r2,r3,r2
 7000e14:	e0bff715 	stw	r2,-36(fp)
 7000e18:	e0bff717 	ldw	r2,-36(fp)
 7000e1c:	10800048 	cmpgei	r2,r2,1
 7000e20:	103fd91e 	bne	r2,zero,7000d88 <flash_erase_across_blocks+0x3c>
 7000e24:	e03fff15 	stw	zero,-4(fp)
 7000e28:	e0bfff17 	ldw	r2,-4(fp)
 7000e2c:	e037883a 	mov	sp,fp
 7000e30:	dfc00117 	ldw	ra,4(sp)
 7000e34:	df000017 	ldw	fp,0(sp)
 7000e38:	dec00204 	addi	sp,sp,8
 7000e3c:	f800283a 	ret

07000e40 <flash_intel_p30_erase>:
 7000e40:	defff204 	addi	sp,sp,-56
 7000e44:	dfc00d15 	stw	ra,52(sp)
 7000e48:	df000c15 	stw	fp,48(sp)
 7000e4c:	df000c04 	addi	fp,sp,48
 7000e50:	e13ffd15 	stw	r4,-12(fp)
 7000e54:	e17ffe15 	stw	r5,-8(fp)
 7000e58:	e1bfff15 	stw	r6,-4(fp)
 7000e5c:	e13ff604 	addi	r4,fp,-40
 7000e60:	70000480 	call	7000048 <flash_program_stats_init>
 7000e64:	e03ff515 	stw	zero,-44(fp)
 7000e68:	e1fff604 	addi	r7,fp,-40
 7000e6c:	00817db4 	movhi	r2,1526
 7000e70:	10b84004 	addi	r2,r2,-7936
 7000e74:	d8800015 	stw	r2,0(sp)
 7000e78:	e13ffd17 	ldw	r4,-12(fp)
 7000e7c:	e17ffe17 	ldw	r5,-8(fp)
 7000e80:	e1bfff17 	ldw	r6,-4(fp)
 7000e84:	7000d4c0 	call	7000d4c <flash_erase_across_blocks>
 7000e88:	e0bff515 	stw	r2,-44(fp)
 7000e8c:	e0bff517 	ldw	r2,-44(fp)
 7000e90:	1004c03a 	cmpne	r2,r2,zero
 7000e94:	1000021e 	bne	r2,zero,7000ea0 <flash_intel_p30_erase+0x60>
 7000e98:	e13ff604 	addi	r4,fp,-40
 7000e9c:	70001e40 	call	70001e4 <flash_program_stats_print>
 7000ea0:	0005883a 	mov	r2,zero
 7000ea4:	e037883a 	mov	sp,fp
 7000ea8:	dfc00117 	ldw	ra,4(sp)
 7000eac:	df000017 	ldw	fp,0(sp)
 7000eb0:	dec00204 	addi	sp,sp,8
 7000eb4:	f800283a 	ret

07000eb8 <LedTask>:
 7000eb8:	defffc04 	addi	sp,sp,-16
 7000ebc:	dfc00315 	stw	ra,12(sp)
 7000ec0:	df000215 	stw	fp,8(sp)
 7000ec4:	df000204 	addi	fp,sp,8
 7000ec8:	e13fff15 	stw	r4,-4(fp)
 7000ecc:	e03ffe05 	stb	zero,-8(fp)
 7000ed0:	e0bffe03 	ldbu	r2,-8(fp)
 7000ed4:	1080005c 	xori	r2,r2,1
 7000ed8:	e0bffe05 	stb	r2,-8(fp)
 7000edc:	e0fffe07 	ldb	r3,-8(fp)
 7000ee0:	00824034 	movhi	r2,2304
 7000ee4:	10801804 	addi	r2,r2,96
 7000ee8:	10c00035 	stwio	r3,0(r2)
 7000eec:	0009883a 	mov	r4,zero
 7000ef0:	000b883a 	mov	r5,zero
 7000ef4:	000d883a 	mov	r6,zero
 7000ef8:	01c03e84 	movi	r7,250
 7000efc:	70215e00 	call	70215e0 <OSTimeDlyHMSM>
 7000f00:	003ff306 	br	7000ed0 <LedTask+0x18>

07000f04 <LCDTask>:
 7000f04:	defff704 	addi	sp,sp,-36
 7000f08:	dfc00815 	stw	ra,32(sp)
 7000f0c:	df000715 	stw	fp,28(sp)
 7000f10:	df000704 	addi	fp,sp,28
 7000f14:	e13fff15 	stw	r4,-4(fp)
 7000f18:	d1206017 	ldw	r4,-32384(gp)
 7000f1c:	e17ffd04 	addi	r5,fp,-12
 7000f20:	701d2200 	call	701d220 <OSMboxQuery>
 7000f24:	10803fcc 	andi	r2,r2,255
 7000f28:	1004c03a 	cmpne	r2,r2,zero
 7000f2c:	103ffa1e 	bne	r2,zero,7000f18 <LCDTask+0x14>
 7000f30:	d1206017 	ldw	r4,-32384(gp)
 7000f34:	e1bffc04 	addi	r6,fp,-16
 7000f38:	000b883a 	mov	r5,zero
 7000f3c:	701cb1c0 	call	701cb1c <OSMboxPend>
 7000f40:	e0bffa15 	stw	r2,-24(fp)
 7000f44:	0101c1b4 	movhi	r4,1798
 7000f48:	2120f104 	addi	r4,r4,-31804
 7000f4c:	0141c1b4 	movhi	r5,1798
 7000f50:	2960f404 	addi	r5,r5,-31792
 7000f54:	70077b40 	call	70077b4 <fopen>
 7000f58:	e0bffb15 	stw	r2,-20(fp)
 7000f5c:	e13ffa17 	ldw	r4,-24(fp)
 7000f60:	700a6e40 	call	700a6e4 <strlen>
 7000f64:	e0bff915 	stw	r2,-28(fp)
 7000f68:	e1bff917 	ldw	r6,-28(fp)
 7000f6c:	e13ffa17 	ldw	r4,-24(fp)
 7000f70:	01400044 	movi	r5,1
 7000f74:	e1fffb17 	ldw	r7,-20(fp)
 7000f78:	70086480 	call	7008648 <fwrite>
 7000f7c:	e13ffb17 	ldw	r4,-20(fp)
 7000f80:	70071740 	call	7007174 <fclose>
 7000f84:	003fea06 	br	7000f30 <LCDTask+0x2c>

07000f88 <InitialTask>:
 7000f88:	defff704 	addi	sp,sp,-36
 7000f8c:	dfc00815 	stw	ra,32(sp)
 7000f90:	df000715 	stw	fp,28(sp)
 7000f94:	df000704 	addi	fp,sp,28
 7000f98:	e13fff15 	stw	r4,-4(fp)
 7000f9c:	e03ffe05 	stb	zero,-8(fp)
 7000fa0:	0009883a 	mov	r4,zero
 7000fa4:	701c7680 	call	701c768 <OSMboxCreate>
 7000fa8:	d0a06015 	stw	r2,-32384(gp)
 7000fac:	01000044 	movi	r4,1
 7000fb0:	701ef4c0 	call	701ef4c <OSSemCreate>
 7000fb4:	1007883a 	mov	r3,r2
 7000fb8:	0081c1b4 	movhi	r2,1798
 7000fbc:	10881104 	addi	r2,r2,8260
 7000fc0:	10c00015 	stw	r3,0(r2)
 7000fc4:	0181c1f4 	movhi	r6,1799
 7000fc8:	3182ac04 	addi	r6,r6,2736
 7000fcc:	008003c4 	movi	r2,15
 7000fd0:	d8800015 	stw	r2,0(sp)
 7000fd4:	0081c1f4 	movhi	r2,1799
 7000fd8:	10beac04 	addi	r2,r2,-1360
 7000fdc:	d8800115 	stw	r2,4(sp)
 7000fe0:	00810004 	movi	r2,1024
 7000fe4:	d8800215 	stw	r2,8(sp)
 7000fe8:	d8000315 	stw	zero,12(sp)
 7000fec:	008000c4 	movi	r2,3
 7000ff0:	d8800415 	stw	r2,16(sp)
 7000ff4:	0101c034 	movhi	r4,1792
 7000ff8:	2103c104 	addi	r4,r4,3844
 7000ffc:	000b883a 	mov	r5,zero
 7001000:	01c003c4 	movi	r7,15
 7001004:	702019c0 	call	702019c <OSTaskCreateExt>
 7001008:	e0bffe05 	stb	r2,-8(fp)
 700100c:	e13ffe03 	ldbu	r4,-8(fp)
 7001010:	000b883a 	mov	r5,zero
 7001014:	70012c00 	call	70012c0 <alt_uCOSIIErrorHandler>
 7001018:	0181c1f4 	movhi	r6,1799
 700101c:	3186ac04 	addi	r6,r6,6832
 7001020:	00800404 	movi	r2,16
 7001024:	d8800015 	stw	r2,0(sp)
 7001028:	0081c1f4 	movhi	r2,1799
 700102c:	1082ac04 	addi	r2,r2,2736
 7001030:	d8800115 	stw	r2,4(sp)
 7001034:	00810004 	movi	r2,1024
 7001038:	d8800215 	stw	r2,8(sp)
 700103c:	d8000315 	stw	zero,12(sp)
 7001040:	008000c4 	movi	r2,3
 7001044:	d8800415 	stw	r2,16(sp)
 7001048:	0101c034 	movhi	r4,1792
 700104c:	2103ae04 	addi	r4,r4,3768
 7001050:	000b883a 	mov	r5,zero
 7001054:	01c00404 	movi	r7,16
 7001058:	702019c0 	call	702019c <OSTaskCreateExt>
 700105c:	e0bffe05 	stb	r2,-8(fp)
 7001060:	e13ffe03 	ldbu	r4,-8(fp)
 7001064:	000b883a 	mov	r5,zero
 7001068:	70012c00 	call	70012c0 <alt_uCOSIIErrorHandler>
 700106c:	0081c1f4 	movhi	r2,1799
 7001070:	1086b684 	addi	r2,r2,6874
 7001074:	00c1c1b4 	movhi	r3,1798
 7001078:	18e0f504 	addi	r3,r3,-31788
 700107c:	1009883a 	mov	r4,r2
 7001080:	180b883a 	mov	r5,r3
 7001084:	01800404 	movi	r6,16
 7001088:	70092040 	call	7009204 <memcpy>
 700108c:	d1206017 	ldw	r4,-32384(gp)
 7001090:	0141c1f4 	movhi	r5,1799
 7001094:	2946b684 	addi	r5,r5,6874
 7001098:	701cf600 	call	701cf60 <OSMboxPost>
 700109c:	10803fcc 	andi	r2,r2,255
 70010a0:	1004c03a 	cmpne	r2,r2,zero
 70010a4:	103ff91e 	bne	r2,zero,700108c <InitialTask+0x104>
 70010a8:	7005d6c0 	call	7005d6c <NETInit>
 70010ac:	01003fc4 	movi	r4,255
 70010b0:	702039c0 	call	702039c <OSTaskDel>
 70010b4:	e0bffe05 	stb	r2,-8(fp)
 70010b8:	e13ffe03 	ldbu	r4,-8(fp)
 70010bc:	000b883a 	mov	r5,zero
 70010c0:	70012c00 	call	70012c0 <alt_uCOSIIErrorHandler>
 70010c4:	003fff06 	br	70010c4 <InitialTask+0x13c>

070010c8 <main>:
 70010c8:	def7f804 	addi	sp,sp,-8224
 70010cc:	dfc80715 	stw	ra,8220(sp)
 70010d0:	df080615 	stw	fp,8216(sp)
 70010d4:	df080604 	addi	fp,sp,8216
 70010d8:	0009883a 	mov	r4,zero
 70010dc:	70219cc0 	call	70219cc <OSTimeSet>
 70010e0:	e0b80004 	addi	r2,fp,-8192
 70010e4:	11880004 	addi	r6,r2,8192
 70010e8:	d8000015 	stw	zero,0(sp)
 70010ec:	e0b80004 	addi	r2,fp,-8192
 70010f0:	d8800115 	stw	r2,4(sp)
 70010f4:	00820004 	movi	r2,2048
 70010f8:	d8800215 	stw	r2,8(sp)
 70010fc:	d8000315 	stw	zero,12(sp)
 7001100:	d8000415 	stw	zero,16(sp)
 7001104:	0101c034 	movhi	r4,1792
 7001108:	2103e204 	addi	r4,r4,3976
 700110c:	000b883a 	mov	r5,zero
 7001110:	000f883a 	mov	r7,zero
 7001114:	702019c0 	call	702019c <OSTaskCreateExt>
 7001118:	e0b7ff05 	stb	r2,-8196(fp)
 700111c:	e137ff03 	ldbu	r4,-8196(fp)
 7001120:	000b883a 	mov	r5,zero
 7001124:	70012c00 	call	70012c0 <alt_uCOSIIErrorHandler>
 7001128:	701973c0 	call	701973c <OSStart>
 700112c:	003fff06 	br	700112c <main+0x64>

07001130 <printf>:
 7001130:	defff304 	addi	sp,sp,-52
 7001134:	dfc00915 	stw	ra,36(sp)
 7001138:	df000815 	stw	fp,32(sp)
 700113c:	df000804 	addi	fp,sp,32
 7001140:	e1400215 	stw	r5,8(fp)
 7001144:	e1800315 	stw	r6,12(fp)
 7001148:	e1c00415 	stw	r7,16(fp)
 700114c:	e13ffe15 	stw	r4,-8(fp)
 7001150:	00000506 	br	7001168 <printf+0x38>
 7001154:	0009883a 	mov	r4,zero
 7001158:	000b883a 	mov	r5,zero
 700115c:	000d883a 	mov	r6,zero
 7001160:	01c00284 	movi	r7,10
 7001164:	70215e00 	call	70215e0 <OSTimeDlyHMSM>
 7001168:	d1206217 	ldw	r4,-32376(gp)
 700116c:	e17ffb04 	addi	r5,fp,-20
 7001170:	701f8200 	call	701f820 <OSSemQuery>
 7001174:	10803fcc 	andi	r2,r2,255
 7001178:	1004c03a 	cmpne	r2,r2,zero
 700117c:	103ff51e 	bne	r2,zero,7001154 <printf+0x24>
 7001180:	d1206217 	ldw	r4,-32376(gp)
 7001184:	e1bffc84 	addi	r6,fp,-14
 7001188:	000b883a 	mov	r5,zero
 700118c:	701f3000 	call	701f300 <OSSemPend>
 7001190:	e0bffc83 	ldbu	r2,-14(fp)
 7001194:	10803fcc 	andi	r2,r2,255
 7001198:	1004c03a 	cmpne	r2,r2,zero
 700119c:	10001a1e 	bne	r2,zero,7001208 <printf+0xd8>
 70011a0:	01004004 	movi	r4,256
 70011a4:	70089580 	call	7008958 <malloc>
 70011a8:	e0bffa15 	stw	r2,-24(fp)
 70011ac:	e0800204 	addi	r2,fp,8
 70011b0:	e0bffd15 	stw	r2,-12(fp)
 70011b4:	e1bffd17 	ldw	r6,-12(fp)
 70011b8:	e13ffa17 	ldw	r4,-24(fp)
 70011bc:	e17ffe17 	ldw	r5,-8(fp)
 70011c0:	700eac40 	call	700eac4 <vsprintf>
 70011c4:	e0bff815 	stw	r2,-32(fp)
 70011c8:	e13ffa17 	ldw	r4,-24(fp)
 70011cc:	700a6e40 	call	700a6e4 <strlen>
 70011d0:	e0bff915 	stw	r2,-28(fp)
 70011d4:	e1bff917 	ldw	r6,-28(fp)
 70011d8:	0081c1b4 	movhi	r2,1798
 70011dc:	1087ba04 	addi	r2,r2,7912
 70011e0:	10800017 	ldw	r2,0(r2)
 70011e4:	11c00217 	ldw	r7,8(r2)
 70011e8:	e13ffa17 	ldw	r4,-24(fp)
 70011ec:	01400044 	movi	r5,1
 70011f0:	70086480 	call	7008648 <fwrite>
 70011f4:	e13ffa17 	ldw	r4,-24(fp)
 70011f8:	70089440 	call	7008944 <free>
 70011fc:	d1206217 	ldw	r4,-32376(gp)
 7001200:	701f6f80 	call	701f6f8 <OSSemPost>
 7001204:	e0bffc85 	stb	r2,-14(fp)
 7001208:	e0bffc83 	ldbu	r2,-14(fp)
 700120c:	10803fcc 	andi	r2,r2,255
 7001210:	1004c03a 	cmpne	r2,r2,zero
 7001214:	1000031e 	bne	r2,zero,7001224 <printf+0xf4>
 7001218:	e0bff817 	ldw	r2,-32(fp)
 700121c:	e0bfff15 	stw	r2,-4(fp)
 7001220:	00000206 	br	700122c <printf+0xfc>
 7001224:	00bfffc4 	movi	r2,-1
 7001228:	e0bfff15 	stw	r2,-4(fp)
 700122c:	e0bfff17 	ldw	r2,-4(fp)
 7001230:	e037883a 	mov	sp,fp
 7001234:	dfc00117 	ldw	ra,4(sp)
 7001238:	df000017 	ldw	fp,0(sp)
 700123c:	dec00504 	addi	sp,sp,20
 7001240:	f800283a 	ret

07001244 <fprintf>:
 7001244:	defff704 	addi	sp,sp,-36
 7001248:	dfc00615 	stw	ra,24(sp)
 700124c:	df000515 	stw	fp,20(sp)
 7001250:	df000504 	addi	fp,sp,20
 7001254:	e13ffe15 	stw	r4,-8(fp)
 7001258:	e1800215 	stw	r6,8(fp)
 700125c:	e1c00315 	stw	r7,12(fp)
 7001260:	e17fff15 	stw	r5,-4(fp)
 7001264:	e0800204 	addi	r2,fp,8
 7001268:	e0bffd15 	stw	r2,-12(fp)
 700126c:	01004004 	movi	r4,256
 7001270:	70089580 	call	7008958 <malloc>
 7001274:	e0bffc15 	stw	r2,-16(fp)
 7001278:	e1bffd17 	ldw	r6,-12(fp)
 700127c:	e13ffc17 	ldw	r4,-16(fp)
 7001280:	e17fff17 	ldw	r5,-4(fp)
 7001284:	700eac40 	call	700eac4 <vsprintf>
 7001288:	e0bffb15 	stw	r2,-20(fp)
 700128c:	0101c1b4 	movhi	r4,1798
 7001290:	2120f904 	addi	r4,r4,-31772
 7001294:	e17ffc17 	ldw	r5,-16(fp)
 7001298:	70011300 	call	7001130 <printf>
 700129c:	e0bffb15 	stw	r2,-20(fp)
 70012a0:	e13ffc17 	ldw	r4,-16(fp)
 70012a4:	70089440 	call	7008944 <free>
 70012a8:	e0bffb17 	ldw	r2,-20(fp)
 70012ac:	e037883a 	mov	sp,fp
 70012b0:	dfc00117 	ldw	ra,4(sp)
 70012b4:	df000017 	ldw	fp,0(sp)
 70012b8:	dec00404 	addi	sp,sp,16
 70012bc:	f800283a 	ret

070012c0 <alt_uCOSIIErrorHandler>:
 70012c0:	defff904 	addi	sp,sp,-28
 70012c4:	dfc00615 	stw	ra,24(sp)
 70012c8:	df000515 	stw	fp,20(sp)
 70012cc:	df000504 	addi	fp,sp,20
 70012d0:	e17ffd15 	stw	r5,-12(fp)
 70012d4:	e13ffc05 	stb	r4,-16(fp)
 70012d8:	e0bffc03 	ldbu	r2,-16(fp)
 70012dc:	1005003a 	cmpeq	r2,r2,zero
 70012e0:	10017b1e 	bne	r2,zero,70018d0 <alt_uCOSIIErrorHandler+0x610>
 70012e4:	00800084 	movi	r2,2
 70012e8:	e0bffb15 	stw	r2,-20(fp)
 70012ec:	70195cc0 	call	70195cc <OSSchedLock>
 70012f0:	e0bffc03 	ldbu	r2,-16(fp)
 70012f4:	e0bffe15 	stw	r2,-8(fp)
 70012f8:	e0fffe17 	ldw	r3,-8(fp)
 70012fc:	18800a20 	cmpeqi	r2,r3,40
 7001300:	1000371e 	bne	r2,zero,70013e0 <alt_uCOSIIErrorHandler+0x120>
 7001304:	e0fffe17 	ldw	r3,-8(fp)
 7001308:	18800a48 	cmpgei	r2,r3,41
 700130c:	10001a1e 	bne	r2,zero,7001378 <alt_uCOSIIErrorHandler+0xb8>
 7001310:	e0fffe17 	ldw	r3,-8(fp)
 7001314:	18800120 	cmpeqi	r2,r3,4
 7001318:	1000761e 	bne	r2,zero,70014f4 <alt_uCOSIIErrorHandler+0x234>
 700131c:	e0fffe17 	ldw	r3,-8(fp)
 7001320:	18800148 	cmpgei	r2,r3,5
 7001324:	10000a1e 	bne	r2,zero,7001350 <alt_uCOSIIErrorHandler+0x90>
 7001328:	e0fffe17 	ldw	r3,-8(fp)
 700132c:	188000a0 	cmpeqi	r2,r3,2
 7001330:	1000911e 	bne	r2,zero,7001578 <alt_uCOSIIErrorHandler+0x2b8>
 7001334:	e0fffe17 	ldw	r3,-8(fp)
 7001338:	188000c8 	cmpgei	r2,r3,3
 700133c:	1000771e 	bne	r2,zero,700151c <alt_uCOSIIErrorHandler+0x25c>
 7001340:	e0fffe17 	ldw	r3,-8(fp)
 7001344:	18800060 	cmpeqi	r2,r3,1
 7001348:	10005e1e 	bne	r2,zero,70014c4 <alt_uCOSIIErrorHandler+0x204>
 700134c:	0000d806 	br	70016b0 <alt_uCOSIIErrorHandler+0x3f0>
 7001350:	e0fffe17 	ldw	r3,-8(fp)
 7001354:	18800520 	cmpeqi	r2,r3,20
 7001358:	10004f1e 	bne	r2,zero,7001498 <alt_uCOSIIErrorHandler+0x1d8>
 700135c:	e0fffe17 	ldw	r3,-8(fp)
 7001360:	188007a0 	cmpeqi	r2,r3,30
 7001364:	1000ad1e 	bne	r2,zero,700161c <alt_uCOSIIErrorHandler+0x35c>
 7001368:	e0fffe17 	ldw	r3,-8(fp)
 700136c:	188002a0 	cmpeqi	r2,r3,10
 7001370:	1000761e 	bne	r2,zero,700154c <alt_uCOSIIErrorHandler+0x28c>
 7001374:	0000ce06 	br	70016b0 <alt_uCOSIIErrorHandler+0x3f0>
 7001378:	e0fffe17 	ldw	r3,-8(fp)
 700137c:	18801020 	cmpeqi	r2,r3,64
 7001380:	10009c1e 	bne	r2,zero,70015f4 <alt_uCOSIIErrorHandler+0x334>
 7001384:	e0fffe17 	ldw	r3,-8(fp)
 7001388:	18801048 	cmpgei	r2,r3,65
 700138c:	10000a1e 	bne	r2,zero,70013b8 <alt_uCOSIIErrorHandler+0xf8>
 7001390:	e0fffe17 	ldw	r3,-8(fp)
 7001394:	18800f60 	cmpeqi	r2,r3,61
 7001398:	10008b1e 	bne	r2,zero,70015c8 <alt_uCOSIIErrorHandler+0x308>
 700139c:	e0fffe17 	ldw	r3,-8(fp)
 70013a0:	18800fa0 	cmpeqi	r2,r3,62
 70013a4:	10007e1e 	bne	r2,zero,70015a0 <alt_uCOSIIErrorHandler+0x2e0>
 70013a8:	e0fffe17 	ldw	r3,-8(fp)
 70013ac:	18800aa0 	cmpeqi	r2,r3,42
 70013b0:	1000151e 	bne	r2,zero,7001408 <alt_uCOSIIErrorHandler+0x148>
 70013b4:	0000be06 	br	70016b0 <alt_uCOSIIErrorHandler+0x3f0>
 70013b8:	e0fffe17 	ldw	r3,-8(fp)
 70013bc:	18801920 	cmpeqi	r2,r3,100
 70013c0:	1000a11e 	bne	r2,zero,7001648 <alt_uCOSIIErrorHandler+0x388>
 70013c4:	e0fffe17 	ldw	r3,-8(fp)
 70013c8:	18803fe0 	cmpeqi	r2,r3,255
 70013cc:	1000aa1e 	bne	r2,zero,7001678 <alt_uCOSIIErrorHandler+0x3b8>
 70013d0:	e0fffe17 	ldw	r3,-8(fp)
 70013d4:	188010a0 	cmpeqi	r2,r3,66
 70013d8:	10001d1e 	bne	r2,zero,7001450 <alt_uCOSIIErrorHandler+0x190>
 70013dc:	0000b406 	br	70016b0 <alt_uCOSIIErrorHandler+0x3f0>
 70013e0:	0081c1b4 	movhi	r2,1798
 70013e4:	1087ba04 	addi	r2,r2,7912
 70013e8:	10800017 	ldw	r2,0(r2)
 70013ec:	11c00317 	ldw	r7,12(r2)
 70013f0:	0101c1b4 	movhi	r4,1798
 70013f4:	2120fa04 	addi	r4,r4,-31768
 70013f8:	01400044 	movi	r5,1
 70013fc:	01800c44 	movi	r6,49
 7001400:	70086480 	call	7008648 <fwrite>
 7001404:	0000c106 	br	700170c <alt_uCOSIIErrorHandler+0x44c>
 7001408:	0081c1b4 	movhi	r2,1798
 700140c:	1087ba04 	addi	r2,r2,7912
 7001410:	10800017 	ldw	r2,0(r2)
 7001414:	11c00317 	ldw	r7,12(r2)
 7001418:	0101c1b4 	movhi	r4,1798
 700141c:	21210704 	addi	r4,r4,-31716
 7001420:	01400044 	movi	r5,1
 7001424:	01800c44 	movi	r6,49
 7001428:	70086480 	call	7008648 <fwrite>
 700142c:	0081c1b4 	movhi	r2,1798
 7001430:	1087ba04 	addi	r2,r2,7912
 7001434:	10800017 	ldw	r2,0(r2)
 7001438:	11000317 	ldw	r4,12(r2)
 700143c:	0141c1b4 	movhi	r5,1798
 7001440:	29611404 	addi	r5,r5,-31664
 7001444:	01800504 	movi	r6,20
 7001448:	70012440 	call	7001244 <fprintf>
 700144c:	0000af06 	br	700170c <alt_uCOSIIErrorHandler+0x44c>
 7001450:	0081c1b4 	movhi	r2,1798
 7001454:	1087ba04 	addi	r2,r2,7912
 7001458:	10800017 	ldw	r2,0(r2)
 700145c:	11c00317 	ldw	r7,12(r2)
 7001460:	0101c1b4 	movhi	r4,1798
 7001464:	21212104 	addi	r4,r4,-31612
 7001468:	01400044 	movi	r5,1
 700146c:	01800a04 	movi	r6,40
 7001470:	70086480 	call	7008648 <fwrite>
 7001474:	0081c1b4 	movhi	r2,1798
 7001478:	1087ba04 	addi	r2,r2,7912
 700147c:	10800017 	ldw	r2,0(r2)
 7001480:	11000317 	ldw	r4,12(r2)
 7001484:	0141c1b4 	movhi	r5,1798
 7001488:	29612c04 	addi	r5,r5,-31568
 700148c:	01800284 	movi	r6,10
 7001490:	70012440 	call	7001244 <fprintf>
 7001494:	00009d06 	br	700170c <alt_uCOSIIErrorHandler+0x44c>
 7001498:	e03ffb15 	stw	zero,-20(fp)
 700149c:	0081c1b4 	movhi	r2,1798
 70014a0:	1087ba04 	addi	r2,r2,7912
 70014a4:	10800017 	ldw	r2,0(r2)
 70014a8:	11c00317 	ldw	r7,12(r2)
 70014ac:	0101c1b4 	movhi	r4,1798
 70014b0:	21213504 	addi	r4,r4,-31532
 70014b4:	01400044 	movi	r5,1
 70014b8:	01800c84 	movi	r6,50
 70014bc:	70086480 	call	7008648 <fwrite>
 70014c0:	00009206 	br	700170c <alt_uCOSIIErrorHandler+0x44c>
 70014c4:	00800044 	movi	r2,1
 70014c8:	e0bffb15 	stw	r2,-20(fp)
 70014cc:	0081c1b4 	movhi	r2,1798
 70014d0:	1087ba04 	addi	r2,r2,7912
 70014d4:	10800017 	ldw	r2,0(r2)
 70014d8:	11c00317 	ldw	r7,12(r2)
 70014dc:	0101c1b4 	movhi	r4,1798
 70014e0:	21214204 	addi	r4,r4,-31480
 70014e4:	01400044 	movi	r5,1
 70014e8:	01801244 	movi	r6,73
 70014ec:	70086480 	call	7008648 <fwrite>
 70014f0:	00008606 	br	700170c <alt_uCOSIIErrorHandler+0x44c>
 70014f4:	0081c1b4 	movhi	r2,1798
 70014f8:	1087ba04 	addi	r2,r2,7912
 70014fc:	10800017 	ldw	r2,0(r2)
 7001500:	11c00317 	ldw	r7,12(r2)
 7001504:	0101c1b4 	movhi	r4,1798
 7001508:	21215504 	addi	r4,r4,-31404
 700150c:	01400044 	movi	r5,1
 7001510:	01800c44 	movi	r6,49
 7001514:	70086480 	call	7008648 <fwrite>
 7001518:	00007c06 	br	700170c <alt_uCOSIIErrorHandler+0x44c>
 700151c:	00800044 	movi	r2,1
 7001520:	e0bffb15 	stw	r2,-20(fp)
 7001524:	0081c1b4 	movhi	r2,1798
 7001528:	1087ba04 	addi	r2,r2,7912
 700152c:	10800017 	ldw	r2,0(r2)
 7001530:	11c00317 	ldw	r7,12(r2)
 7001534:	0101c1b4 	movhi	r4,1798
 7001538:	21216204 	addi	r4,r4,-31352
 700153c:	01400044 	movi	r5,1
 7001540:	01800a44 	movi	r6,41
 7001544:	70086480 	call	7008648 <fwrite>
 7001548:	00007006 	br	700170c <alt_uCOSIIErrorHandler+0x44c>
 700154c:	e03ffb15 	stw	zero,-20(fp)
 7001550:	0081c1b4 	movhi	r2,1798
 7001554:	1087ba04 	addi	r2,r2,7912
 7001558:	10800017 	ldw	r2,0(r2)
 700155c:	11c00317 	ldw	r7,12(r2)
 7001560:	0101c1b4 	movhi	r4,1798
 7001564:	21216d04 	addi	r4,r4,-31308
 7001568:	01400044 	movi	r5,1
 700156c:	01800a04 	movi	r6,40
 7001570:	70086480 	call	7008648 <fwrite>
 7001574:	00006506 	br	700170c <alt_uCOSIIErrorHandler+0x44c>
 7001578:	0081c1b4 	movhi	r2,1798
 700157c:	1087ba04 	addi	r2,r2,7912
 7001580:	10800017 	ldw	r2,0(r2)
 7001584:	11c00317 	ldw	r7,12(r2)
 7001588:	0101c1b4 	movhi	r4,1798
 700158c:	21217804 	addi	r4,r4,-31264
 7001590:	01400044 	movi	r5,1
 7001594:	01800b04 	movi	r6,44
 7001598:	70086480 	call	7008648 <fwrite>
 700159c:	00005b06 	br	700170c <alt_uCOSIIErrorHandler+0x44c>
 70015a0:	0081c1b4 	movhi	r2,1798
 70015a4:	1087ba04 	addi	r2,r2,7912
 70015a8:	10800017 	ldw	r2,0(r2)
 70015ac:	11c00317 	ldw	r7,12(r2)
 70015b0:	0101c1b4 	movhi	r4,1798
 70015b4:	21218404 	addi	r4,r4,-31216
 70015b8:	01400044 	movi	r5,1
 70015bc:	01800884 	movi	r6,34
 70015c0:	70086480 	call	7008648 <fwrite>
 70015c4:	00005106 	br	700170c <alt_uCOSIIErrorHandler+0x44c>
 70015c8:	e03ffb15 	stw	zero,-20(fp)
 70015cc:	0081c1b4 	movhi	r2,1798
 70015d0:	1087ba04 	addi	r2,r2,7912
 70015d4:	10800017 	ldw	r2,0(r2)
 70015d8:	11c00317 	ldw	r7,12(r2)
 70015dc:	0101c1b4 	movhi	r4,1798
 70015e0:	21218d04 	addi	r4,r4,-31180
 70015e4:	01400044 	movi	r5,1
 70015e8:	01800bc4 	movi	r6,47
 70015ec:	70086480 	call	7008648 <fwrite>
 70015f0:	00004606 	br	700170c <alt_uCOSIIErrorHandler+0x44c>
 70015f4:	0081c1b4 	movhi	r2,1798
 70015f8:	1087ba04 	addi	r2,r2,7912
 70015fc:	10800017 	ldw	r2,0(r2)
 7001600:	11c00317 	ldw	r7,12(r2)
 7001604:	0101c1b4 	movhi	r4,1798
 7001608:	21219904 	addi	r4,r4,-31132
 700160c:	01400044 	movi	r5,1
 7001610:	018009c4 	movi	r6,39
 7001614:	70086480 	call	7008648 <fwrite>
 7001618:	00003c06 	br	700170c <alt_uCOSIIErrorHandler+0x44c>
 700161c:	e03ffb15 	stw	zero,-20(fp)
 7001620:	0081c1b4 	movhi	r2,1798
 7001624:	1087ba04 	addi	r2,r2,7912
 7001628:	10800017 	ldw	r2,0(r2)
 700162c:	11c00317 	ldw	r7,12(r2)
 7001630:	0101c1b4 	movhi	r4,1798
 7001634:	2121a304 	addi	r4,r4,-31092
 7001638:	01400044 	movi	r5,1
 700163c:	01800a84 	movi	r6,42
 7001640:	70086480 	call	7008648 <fwrite>
 7001644:	00003106 	br	700170c <alt_uCOSIIErrorHandler+0x44c>
 7001648:	00800044 	movi	r2,1
 700164c:	e0bffb15 	stw	r2,-20(fp)
 7001650:	0081c1b4 	movhi	r2,1798
 7001654:	1087ba04 	addi	r2,r2,7912
 7001658:	10800017 	ldw	r2,0(r2)
 700165c:	11c00317 	ldw	r7,12(r2)
 7001660:	0101c1b4 	movhi	r4,1798
 7001664:	2121ae04 	addi	r4,r4,-31048
 7001668:	01400044 	movi	r5,1
 700166c:	01800c04 	movi	r6,48
 7001670:	70086480 	call	7008648 <fwrite>
 7001674:	00002506 	br	700170c <alt_uCOSIIErrorHandler+0x44c>
 7001678:	00800084 	movi	r2,2
 700167c:	e0bffb15 	stw	r2,-20(fp)
 7001680:	0101c1b4 	movhi	r4,1798
 7001684:	2121bb04 	addi	r4,r4,-30996
 7001688:	70011300 	call	7001130 <printf>
 700168c:	0081c1b4 	movhi	r2,1798
 7001690:	1087ba04 	addi	r2,r2,7912
 7001694:	10800017 	ldw	r2,0(r2)
 7001698:	11000317 	ldw	r4,12(r2)
 700169c:	e1bffd17 	ldw	r6,-12(fp)
 70016a0:	0141c1b4 	movhi	r5,1798
 70016a4:	2961cb04 	addi	r5,r5,-30932
 70016a8:	70012440 	call	7001244 <fprintf>
 70016ac:	00001706 	br	700170c <alt_uCOSIIErrorHandler+0x44c>
 70016b0:	0101c1b4 	movhi	r4,1798
 70016b4:	2121d604 	addi	r4,r4,-30888
 70016b8:	70097a00 	call	70097a0 <puts>
 70016bc:	0081c1b4 	movhi	r2,1798
 70016c0:	1087ba04 	addi	r2,r2,7912
 70016c4:	10800017 	ldw	r2,0(r2)
 70016c8:	11c00317 	ldw	r7,12(r2)
 70016cc:	0101c1b4 	movhi	r4,1798
 70016d0:	2121e404 	addi	r4,r4,-30832
 70016d4:	01400044 	movi	r5,1
 70016d8:	01800404 	movi	r6,16
 70016dc:	70086480 	call	7008648 <fwrite>
 70016e0:	0081c1b4 	movhi	r2,1798
 70016e4:	1087ba04 	addi	r2,r2,7912
 70016e8:	10800017 	ldw	r2,0(r2)
 70016ec:	11000317 	ldw	r4,12(r2)
 70016f0:	e1bffc03 	ldbu	r6,-16(fp)
 70016f4:	0141c1b4 	movhi	r5,1798
 70016f8:	2961e904 	addi	r5,r5,-30812
 70016fc:	70012440 	call	7001244 <fprintf>
 7001700:	0101c1b4 	movhi	r4,1798
 7001704:	2121ee04 	addi	r4,r4,-30792
 7001708:	70095000 	call	7009500 <perror>
 700170c:	e0bffb17 	ldw	r2,-20(fp)
 7001710:	e0bfff15 	stw	r2,-4(fp)
 7001714:	e0ffff17 	ldw	r3,-4(fp)
 7001718:	18800060 	cmpeqi	r2,r3,1
 700171c:	1000071e 	bne	r2,zero,700173c <alt_uCOSIIErrorHandler+0x47c>
 7001720:	e0ffff17 	ldw	r3,-4(fp)
 7001724:	18800070 	cmpltui	r2,r3,1
 7001728:	10003f1e 	bne	r2,zero,7001828 <alt_uCOSIIErrorHandler+0x568>
 700172c:	e0ffff17 	ldw	r3,-4(fp)
 7001730:	188000a0 	cmpeqi	r2,r3,2
 7001734:	10001d1e 	bne	r2,zero,70017ac <alt_uCOSIIErrorHandler+0x4ec>
 7001738:	00005806 	br	700189c <alt_uCOSIIErrorHandler+0x5dc>
 700173c:	0101c1b4 	movhi	r4,1798
 7001740:	2121fc04 	addi	r4,r4,-30736
 7001744:	70011300 	call	7001130 <printf>
 7001748:	0081c1b4 	movhi	r2,1798
 700174c:	1087ba04 	addi	r2,r2,7912
 7001750:	10800017 	ldw	r2,0(r2)
 7001754:	11c00317 	ldw	r7,12(r2)
 7001758:	0101c1b4 	movhi	r4,1798
 700175c:	21220904 	addi	r4,r4,-30684
 7001760:	01400044 	movi	r5,1
 7001764:	01800904 	movi	r6,36
 7001768:	70086480 	call	7008648 <fwrite>
 700176c:	0081c1b4 	movhi	r2,1798
 7001770:	1087ba04 	addi	r2,r2,7912
 7001774:	10800017 	ldw	r2,0(r2)
 7001778:	11c00317 	ldw	r7,12(r2)
 700177c:	0101c1b4 	movhi	r4,1798
 7001780:	21221304 	addi	r4,r4,-30644
 7001784:	01400044 	movi	r5,1
 7001788:	01800a04 	movi	r6,40
 700178c:	70086480 	call	7008648 <fwrite>
 7001790:	70196580 	call	7019658 <OSSchedUnlock>
 7001794:	01003fc4 	movi	r4,255
 7001798:	702039c0 	call	702039c <OSTaskDel>
 700179c:	e13ffc03 	ldbu	r4,-16(fp)
 70017a0:	000b883a 	mov	r5,zero
 70017a4:	70012c00 	call	70012c0 <alt_uCOSIIErrorHandler>
 70017a8:	00004806 	br	70018cc <alt_uCOSIIErrorHandler+0x60c>
 70017ac:	0101c1b4 	movhi	r4,1798
 70017b0:	21221e04 	addi	r4,r4,-30600
 70017b4:	70011300 	call	7001130 <printf>
 70017b8:	0081c1b4 	movhi	r2,1798
 70017bc:	1087ba04 	addi	r2,r2,7912
 70017c0:	10800017 	ldw	r2,0(r2)
 70017c4:	11c00317 	ldw	r7,12(r2)
 70017c8:	0101c1b4 	movhi	r4,1798
 70017cc:	21222c04 	addi	r4,r4,-30544
 70017d0:	01400044 	movi	r5,1
 70017d4:	01800984 	movi	r6,38
 70017d8:	70086480 	call	7008648 <fwrite>
 70017dc:	0081c1b4 	movhi	r2,1798
 70017e0:	1087ba04 	addi	r2,r2,7912
 70017e4:	10800017 	ldw	r2,0(r2)
 70017e8:	11c00317 	ldw	r7,12(r2)
 70017ec:	0101c1b4 	movhi	r4,1798
 70017f0:	21223604 	addi	r4,r4,-30504
 70017f4:	01400044 	movi	r5,1
 70017f8:	01800bc4 	movi	r6,47
 70017fc:	70086480 	call	7008648 <fwrite>
 7001800:	0081c1b4 	movhi	r2,1798
 7001804:	1087ba04 	addi	r2,r2,7912
 7001808:	10800017 	ldw	r2,0(r2)
 700180c:	11c00317 	ldw	r7,12(r2)
 7001810:	0101c1b4 	movhi	r4,1798
 7001814:	21224204 	addi	r4,r4,-30456
 7001818:	01400044 	movi	r5,1
 700181c:	01800cc4 	movi	r6,51
 7001820:	70086480 	call	7008648 <fwrite>
 7001824:	003fff06 	br	7001824 <alt_uCOSIIErrorHandler+0x564>
 7001828:	0081c1b4 	movhi	r2,1798
 700182c:	1087ba04 	addi	r2,r2,7912
 7001830:	10800017 	ldw	r2,0(r2)
 7001834:	11c00317 	ldw	r7,12(r2)
 7001838:	0101c1b4 	movhi	r4,1798
 700183c:	21224f04 	addi	r4,r4,-30404
 7001840:	01400044 	movi	r5,1
 7001844:	01800904 	movi	r6,36
 7001848:	70086480 	call	7008648 <fwrite>
 700184c:	0081c1b4 	movhi	r2,1798
 7001850:	1087ba04 	addi	r2,r2,7912
 7001854:	10800017 	ldw	r2,0(r2)
 7001858:	11c00317 	ldw	r7,12(r2)
 700185c:	0101c1b4 	movhi	r4,1798
 7001860:	21225904 	addi	r4,r4,-30364
 7001864:	01400044 	movi	r5,1
 7001868:	01800c84 	movi	r6,50
 700186c:	70086480 	call	7008648 <fwrite>
 7001870:	0081c1b4 	movhi	r2,1798
 7001874:	1087ba04 	addi	r2,r2,7912
 7001878:	10800017 	ldw	r2,0(r2)
 700187c:	11c00317 	ldw	r7,12(r2)
 7001880:	0101c1b4 	movhi	r4,1798
 7001884:	21226604 	addi	r4,r4,-30312
 7001888:	01400044 	movi	r5,1
 700188c:	01800f84 	movi	r6,62
 7001890:	70086480 	call	7008648 <fwrite>
 7001894:	70196580 	call	7019658 <OSSchedUnlock>
 7001898:	00000d06 	br	70018d0 <alt_uCOSIIErrorHandler+0x610>
 700189c:	0101c1b4 	movhi	r4,1798
 70018a0:	21227604 	addi	r4,r4,-30248
 70018a4:	70097a00 	call	70097a0 <puts>
 70018a8:	0081c1b4 	movhi	r2,1798
 70018ac:	1087ba04 	addi	r2,r2,7912
 70018b0:	10800017 	ldw	r2,0(r2)
 70018b4:	11c00317 	ldw	r7,12(r2)
 70018b8:	0101c1b4 	movhi	r4,1798
 70018bc:	21228404 	addi	r4,r4,-30192
 70018c0:	01400044 	movi	r5,1
 70018c4:	01800ac4 	movi	r6,43
 70018c8:	70086480 	call	7008648 <fwrite>
 70018cc:	003fff06 	br	70018cc <alt_uCOSIIErrorHandler+0x60c>
 70018d0:	e037883a 	mov	sp,fp
 70018d4:	dfc00117 	ldw	ra,4(sp)
 70018d8:	df000017 	ldw	fp,0(sp)
 70018dc:	dec00204 	addi	sp,sp,8
 70018e0:	f800283a 	ret

070018e4 <InitializePFLOptionBits>:
 70018e4:	defffa04 	addi	sp,sp,-24
 70018e8:	dfc00515 	stw	ra,20(sp)
 70018ec:	df000415 	stw	fp,16(sp)
 70018f0:	df000404 	addi	fp,sp,16
 70018f4:	e13fff15 	stw	r4,-4(fp)
 70018f8:	01004004 	movi	r4,256
 70018fc:	70089580 	call	7008958 <malloc>
 7001900:	e0bffe15 	stw	r2,-8(fp)
 7001904:	e0bffe17 	ldw	r2,-8(fp)
 7001908:	1005003a 	cmpeq	r2,r2,zero
 700190c:	1000341e 	bne	r2,zero,70019e0 <InitializePFLOptionBits+0xfc>
 7001910:	e13ffe17 	ldw	r4,-8(fp)
 7001914:	01403fc4 	movi	r5,255
 7001918:	01804004 	movi	r6,256
 700191c:	70093840 	call	7009384 <memset>
 7001920:	008000b4 	movhi	r2,2
 7001924:	e0bffd15 	stw	r2,-12(fp)
 7001928:	e0fffd17 	ldw	r3,-12(fp)
 700192c:	00801b34 	movhi	r2,108
 7001930:	1885883a 	add	r2,r3,r2
 7001934:	e0bffc15 	stw	r2,-16(fp)
 7001938:	e0bffc17 	ldw	r2,-16(fp)
 700193c:	1006913a 	slli	r3,r2,4
 7001940:	e0bffd17 	ldw	r2,-12(fp)
 7001944:	1004d33a 	srli	r2,r2,12
 7001948:	1886b03a 	or	r3,r3,r2
 700194c:	e0bffe17 	ldw	r2,-8(fp)
 7001950:	10c00015 	stw	r3,0(r2)
 7001954:	00802034 	movhi	r2,128
 7001958:	e0bffd15 	stw	r2,-12(fp)
 700195c:	e0fffd17 	ldw	r3,-12(fp)
 7001960:	00801b34 	movhi	r2,108
 7001964:	1885883a 	add	r2,r3,r2
 7001968:	e0bffc15 	stw	r2,-16(fp)
 700196c:	e0bffe17 	ldw	r2,-8(fp)
 7001970:	11000104 	addi	r4,r2,4
 7001974:	e0bffc17 	ldw	r2,-16(fp)
 7001978:	1006913a 	slli	r3,r2,4
 700197c:	e0bffd17 	ldw	r2,-12(fp)
 7001980:	1004d33a 	srli	r2,r2,12
 7001984:	1884b03a 	or	r2,r3,r2
 7001988:	20800015 	stw	r2,0(r4)
 700198c:	e0bffe17 	ldw	r2,-8(fp)
 7001990:	10c02004 	addi	r3,r2,128
 7001994:	00bfc0c4 	movi	r2,-253
 7001998:	18800015 	stw	r2,0(r3)
 700199c:	e17fff17 	ldw	r5,-4(fp)
 70019a0:	e13ffe17 	ldw	r4,-8(fp)
 70019a4:	01804004 	movi	r6,256
 70019a8:	70091900 	call	7009190 <memcmp>
 70019ac:	1005003a 	cmpeq	r2,r2,zero
 70019b0:	1000091e 	bne	r2,zero,70019d8 <InitializePFLOptionBits+0xf4>
 70019b4:	0009883a 	mov	r4,zero
 70019b8:	e17fff17 	ldw	r5,-4(fp)
 70019bc:	01a00014 	movui	r6,32768
 70019c0:	7000e400 	call	7000e40 <flash_intel_p30_erase>
 70019c4:	0009883a 	mov	r4,zero
 70019c8:	e17fff17 	ldw	r5,-4(fp)
 70019cc:	e1bffe17 	ldw	r6,-8(fp)
 70019d0:	01c02004 	movi	r7,128
 70019d4:	7000c0c0 	call	7000c0c <flash_intel_p30_write>
 70019d8:	e13ffe17 	ldw	r4,-8(fp)
 70019dc:	70089440 	call	7008944 <free>
 70019e0:	e037883a 	mov	sp,fp
 70019e4:	dfc00117 	ldw	ra,4(sp)
 70019e8:	df000017 	ldw	fp,0(sp)
 70019ec:	dec00204 	addi	sp,sp,8
 70019f0:	f800283a 	ret

070019f4 <ReconfigFPGA>:
 70019f4:	defffa04 	addi	sp,sp,-24
 70019f8:	dfc00515 	stw	ra,20(sp)
 70019fc:	df000415 	stw	fp,16(sp)
 7001a00:	df000404 	addi	fp,sp,16
 7001a04:	e13fff15 	stw	r4,-4(fp)
 7001a08:	00803fc4 	movi	r2,255
 7001a0c:	e0bffe15 	stw	r2,-8(fp)
 7001a10:	010000b4 	movhi	r4,2
 7001a14:	21200004 	addi	r4,r4,-32768
 7001a18:	70018e40 	call	70018e4 <InitializePFLOptionBits>
 7001a1c:	e0bffe17 	ldw	r2,-8(fp)
 7001a20:	0086303a 	nor	r3,zero,r2
 7001a24:	00824034 	movhi	r2,2304
 7001a28:	10801804 	addi	r2,r2,96
 7001a2c:	10c00035 	stwio	r3,0(r2)
 7001a30:	e03ffd15 	stw	zero,-12(fp)
 7001a34:	00000306 	br	7001a44 <ReconfigFPGA+0x50>
 7001a38:	e0bffd17 	ldw	r2,-12(fp)
 7001a3c:	10800044 	addi	r2,r2,1
 7001a40:	e0bffd15 	stw	r2,-12(fp)
 7001a44:	e0fffd17 	ldw	r3,-12(fp)
 7001a48:	008003f4 	movhi	r2,15
 7001a4c:	10908fc4 	addi	r2,r2,16959
 7001a50:	10fff90e 	bge	r2,r3,7001a38 <ReconfigFPGA+0x44>
 7001a54:	003ff106 	br	7001a1c <ReconfigFPGA+0x28>

07001a58 <srec_decode>:
 7001a58:	defff504 	addi	sp,sp,-44
 7001a5c:	df000a15 	stw	fp,40(sp)
 7001a60:	df000a04 	addi	fp,sp,40
 7001a64:	e13ffd15 	stw	r4,-12(fp)
 7001a68:	e17ffe15 	stw	r5,-8(fp)
 7001a6c:	e03ffb15 	stw	zero,-20(fp)
 7001a70:	e03ff815 	stw	zero,-32(fp)
 7001a74:	e0bffe17 	ldw	r2,-8(fp)
 7001a78:	e0bff715 	stw	r2,-36(fp)
 7001a7c:	e0bffd17 	ldw	r2,-12(fp)
 7001a80:	1005003a 	cmpeq	r2,r2,zero
 7001a84:	1000031e 	bne	r2,zero,7001a94 <srec_decode+0x3c>
 7001a88:	e0bff717 	ldw	r2,-36(fp)
 7001a8c:	1004c03a 	cmpne	r2,r2,zero
 7001a90:	1000031e 	bne	r2,zero,7001aa0 <srec_decode+0x48>
 7001a94:	00bfffc4 	movi	r2,-1
 7001a98:	e0bfff15 	stw	r2,-4(fp)
 7001a9c:	00013f06 	br	7001f9c <srec_decode+0x544>
 7001aa0:	e03ffc15 	stw	zero,-16(fp)
 7001aa4:	00001306 	br	7001af4 <srec_decode+0x9c>
 7001aa8:	e0bffc17 	ldw	r2,-16(fp)
 7001aac:	1007883a 	mov	r3,r2
 7001ab0:	e0bff717 	ldw	r2,-36(fp)
 7001ab4:	1885883a 	add	r2,r3,r2
 7001ab8:	10800003 	ldbu	r2,0(r2)
 7001abc:	10803fcc 	andi	r2,r2,255
 7001ac0:	108002a0 	cmpeqi	r2,r2,10
 7001ac4:	1000131e 	bne	r2,zero,7001b14 <srec_decode+0xbc>
 7001ac8:	e0bffc17 	ldw	r2,-16(fp)
 7001acc:	1007883a 	mov	r3,r2
 7001ad0:	e0bff717 	ldw	r2,-36(fp)
 7001ad4:	1885883a 	add	r2,r3,r2
 7001ad8:	10800003 	ldbu	r2,0(r2)
 7001adc:	10803fcc 	andi	r2,r2,255
 7001ae0:	10800360 	cmpeqi	r2,r2,13
 7001ae4:	10000b1e 	bne	r2,zero,7001b14 <srec_decode+0xbc>
 7001ae8:	e0bffc17 	ldw	r2,-16(fp)
 7001aec:	10800044 	addi	r2,r2,1
 7001af0:	e0bffc15 	stw	r2,-16(fp)
 7001af4:	e0bffc17 	ldw	r2,-16(fp)
 7001af8:	1007883a 	mov	r3,r2
 7001afc:	e0bff717 	ldw	r2,-36(fp)
 7001b00:	1885883a 	add	r2,r3,r2
 7001b04:	10800003 	ldbu	r2,0(r2)
 7001b08:	10803fcc 	andi	r2,r2,255
 7001b0c:	1004c03a 	cmpne	r2,r2,zero
 7001b10:	103fe51e 	bne	r2,zero,7001aa8 <srec_decode+0x50>
 7001b14:	e0bffc17 	ldw	r2,-16(fp)
 7001b18:	10800108 	cmpgei	r2,r2,4
 7001b1c:	1000031e 	bne	r2,zero,7001b2c <srec_decode+0xd4>
 7001b20:	00bfff84 	movi	r2,-2
 7001b24:	e0bfff15 	stw	r2,-4(fp)
 7001b28:	00011c06 	br	7001f9c <srec_decode+0x544>
 7001b2c:	e0bff717 	ldw	r2,-36(fp)
 7001b30:	10800003 	ldbu	r2,0(r2)
 7001b34:	10803fcc 	andi	r2,r2,255
 7001b38:	108014e0 	cmpeqi	r2,r2,83
 7001b3c:	1000031e 	bne	r2,zero,7001b4c <srec_decode+0xf4>
 7001b40:	00bfff84 	movi	r2,-2
 7001b44:	e0bfff15 	stw	r2,-4(fp)
 7001b48:	00011406 	br	7001f9c <srec_decode+0x544>
 7001b4c:	00800044 	movi	r2,1
 7001b50:	e0bffb15 	stw	r2,-20(fp)
 7001b54:	00001506 	br	7001bac <srec_decode+0x154>
 7001b58:	e0bffb17 	ldw	r2,-20(fp)
 7001b5c:	1007883a 	mov	r3,r2
 7001b60:	e0bff717 	ldw	r2,-36(fp)
 7001b64:	1885883a 	add	r2,r3,r2
 7001b68:	10800003 	ldbu	r2,0(r2)
 7001b6c:	10c03fcc 	andi	r3,r2,255
 7001b70:	0081c1b4 	movhi	r2,1798
 7001b74:	10bf8b04 	addi	r2,r2,-468
 7001b78:	10c5883a 	add	r2,r2,r3
 7001b7c:	10800003 	ldbu	r2,0(r2)
 7001b80:	10803fcc 	andi	r2,r2,255
 7001b84:	1080201c 	xori	r2,r2,128
 7001b88:	10bfe004 	addi	r2,r2,-128
 7001b8c:	1004403a 	cmpge	r2,r2,zero
 7001b90:	1000031e 	bne	r2,zero,7001ba0 <srec_decode+0x148>
 7001b94:	00bfff44 	movi	r2,-3
 7001b98:	e0bfff15 	stw	r2,-4(fp)
 7001b9c:	0000ff06 	br	7001f9c <srec_decode+0x544>
 7001ba0:	e0bffb17 	ldw	r2,-20(fp)
 7001ba4:	10800044 	addi	r2,r2,1
 7001ba8:	e0bffb15 	stw	r2,-20(fp)
 7001bac:	e0fffb17 	ldw	r3,-20(fp)
 7001bb0:	e0bffc17 	ldw	r2,-16(fp)
 7001bb4:	18bfe816 	blt	r3,r2,7001b58 <srec_decode+0x100>
 7001bb8:	e0bff717 	ldw	r2,-36(fp)
 7001bbc:	10800044 	addi	r2,r2,1
 7001bc0:	10800003 	ldbu	r2,0(r2)
 7001bc4:	10c03fcc 	andi	r3,r2,255
 7001bc8:	0081c1b4 	movhi	r2,1798
 7001bcc:	10bf8b04 	addi	r2,r2,-468
 7001bd0:	10c5883a 	add	r2,r2,r3
 7001bd4:	10800003 	ldbu	r2,0(r2)
 7001bd8:	1007883a 	mov	r3,r2
 7001bdc:	e0bffd17 	ldw	r2,-12(fp)
 7001be0:	10c00005 	stb	r3,0(r2)
 7001be4:	e0bff717 	ldw	r2,-36(fp)
 7001be8:	10800084 	addi	r2,r2,2
 7001bec:	10800003 	ldbu	r2,0(r2)
 7001bf0:	10c03fcc 	andi	r3,r2,255
 7001bf4:	0081c1b4 	movhi	r2,1798
 7001bf8:	10bf8b04 	addi	r2,r2,-468
 7001bfc:	10c5883a 	add	r2,r2,r3
 7001c00:	10800003 	ldbu	r2,0(r2)
 7001c04:	10803fcc 	andi	r2,r2,255
 7001c08:	1080201c 	xori	r2,r2,128
 7001c0c:	10bfe004 	addi	r2,r2,-128
 7001c10:	1008913a 	slli	r4,r2,4
 7001c14:	e0bff717 	ldw	r2,-36(fp)
 7001c18:	108000c4 	addi	r2,r2,3
 7001c1c:	10800003 	ldbu	r2,0(r2)
 7001c20:	10c03fcc 	andi	r3,r2,255
 7001c24:	0081c1b4 	movhi	r2,1798
 7001c28:	10bf8b04 	addi	r2,r2,-468
 7001c2c:	10c5883a 	add	r2,r2,r3
 7001c30:	10800003 	ldbu	r2,0(r2)
 7001c34:	10803fcc 	andi	r2,r2,255
 7001c38:	1080201c 	xori	r2,r2,128
 7001c3c:	10bfe004 	addi	r2,r2,-128
 7001c40:	2084b03a 	or	r2,r4,r2
 7001c44:	e0bffa15 	stw	r2,-24(fp)
 7001c48:	e0bffd17 	ldw	r2,-12(fp)
 7001c4c:	10800003 	ldbu	r2,0(r2)
 7001c50:	10803fcc 	andi	r2,r2,255
 7001c54:	108002b0 	cmpltui	r2,r2,10
 7001c58:	1000031e 	bne	r2,zero,7001c68 <srec_decode+0x210>
 7001c5c:	00bfff04 	movi	r2,-4
 7001c60:	e0bfff15 	stw	r2,-4(fp)
 7001c64:	0000cd06 	br	7001f9c <srec_decode+0x544>
 7001c68:	e0bffd17 	ldw	r2,-12(fp)
 7001c6c:	10800003 	ldbu	r2,0(r2)
 7001c70:	10803fcc 	andi	r2,r2,255
 7001c74:	00c1c1b4 	movhi	r3,1798
 7001c78:	18ffcb04 	addi	r3,r3,-212
 7001c7c:	1085883a 	add	r2,r2,r2
 7001c80:	1085883a 	add	r2,r2,r2
 7001c84:	10c5883a 	add	r2,r2,r3
 7001c88:	10800017 	ldw	r2,0(r2)
 7001c8c:	e0bff915 	stw	r2,-28(fp)
 7001c90:	e0bff917 	ldw	r2,-28(fp)
 7001c94:	1004c03a 	cmpne	r2,r2,zero
 7001c98:	1000031e 	bne	r2,zero,7001ca8 <srec_decode+0x250>
 7001c9c:	00bfff04 	movi	r2,-4
 7001ca0:	e0bfff15 	stw	r2,-4(fp)
 7001ca4:	0000bd06 	br	7001f9c <srec_decode+0x544>
 7001ca8:	e0bff917 	ldw	r2,-28(fp)
 7001cac:	10c00184 	addi	r3,r2,6
 7001cb0:	e0bffc17 	ldw	r2,-16(fp)
 7001cb4:	10c0030e 	bge	r2,r3,7001cc4 <srec_decode+0x26c>
 7001cb8:	00bffec4 	movi	r2,-5
 7001cbc:	e0bfff15 	stw	r2,-4(fp)
 7001cc0:	0000b606 	br	7001f9c <srec_decode+0x544>
 7001cc4:	e0bff917 	ldw	r2,-28(fp)
 7001cc8:	10c04084 	addi	r3,r2,258
 7001ccc:	e0bffa17 	ldw	r2,-24(fp)
 7001cd0:	1880030e 	bge	r3,r2,7001ce0 <srec_decode+0x288>
 7001cd4:	00bffe84 	movi	r2,-6
 7001cd8:	e0bfff15 	stw	r2,-4(fp)
 7001cdc:	0000af06 	br	7001f9c <srec_decode+0x544>
 7001ce0:	e0bffa17 	ldw	r2,-24(fp)
 7001ce4:	1085883a 	add	r2,r2,r2
 7001ce8:	10c00104 	addi	r3,r2,4
 7001cec:	e0bffc17 	ldw	r2,-16(fp)
 7001cf0:	18800326 	beq	r3,r2,7001d00 <srec_decode+0x2a8>
 7001cf4:	00bffe44 	movi	r2,-7
 7001cf8:	e0bfff15 	stw	r2,-4(fp)
 7001cfc:	0000a706 	br	7001f9c <srec_decode+0x544>
 7001d00:	e0fff817 	ldw	r3,-32(fp)
 7001d04:	e0bffa17 	ldw	r2,-24(fp)
 7001d08:	1885883a 	add	r2,r3,r2
 7001d0c:	e0bff815 	stw	r2,-32(fp)
 7001d10:	e0bffc17 	ldw	r2,-16(fp)
 7001d14:	10bfff04 	addi	r2,r2,-4
 7001d18:	e0bffc15 	stw	r2,-16(fp)
 7001d1c:	e0bff717 	ldw	r2,-36(fp)
 7001d20:	10800104 	addi	r2,r2,4
 7001d24:	e0bff715 	stw	r2,-36(fp)
 7001d28:	e0bffd17 	ldw	r2,-12(fp)
 7001d2c:	10000115 	stw	zero,4(r2)
 7001d30:	e03ffb15 	stw	zero,-20(fp)
 7001d34:	00002906 	br	7001ddc <srec_decode+0x384>
 7001d38:	e0bffb17 	ldw	r2,-20(fp)
 7001d3c:	1007883a 	mov	r3,r2
 7001d40:	e0bff717 	ldw	r2,-36(fp)
 7001d44:	1885883a 	add	r2,r3,r2
 7001d48:	10800003 	ldbu	r2,0(r2)
 7001d4c:	10c03fcc 	andi	r3,r2,255
 7001d50:	0081c1b4 	movhi	r2,1798
 7001d54:	10bf8b04 	addi	r2,r2,-468
 7001d58:	10c5883a 	add	r2,r2,r3
 7001d5c:	10800003 	ldbu	r2,0(r2)
 7001d60:	10803fcc 	andi	r2,r2,255
 7001d64:	1080201c 	xori	r2,r2,128
 7001d68:	10bfe004 	addi	r2,r2,-128
 7001d6c:	1004913a 	slli	r2,r2,4
 7001d70:	1009883a 	mov	r4,r2
 7001d74:	e0fffb17 	ldw	r3,-20(fp)
 7001d78:	e0bff717 	ldw	r2,-36(fp)
 7001d7c:	1885883a 	add	r2,r3,r2
 7001d80:	10800044 	addi	r2,r2,1
 7001d84:	10800003 	ldbu	r2,0(r2)
 7001d88:	10c03fcc 	andi	r3,r2,255
 7001d8c:	0081c1b4 	movhi	r2,1798
 7001d90:	10bf8b04 	addi	r2,r2,-468
 7001d94:	10c5883a 	add	r2,r2,r3
 7001d98:	10800003 	ldbu	r2,0(r2)
 7001d9c:	2084b03a 	or	r2,r4,r2
 7001da0:	e0bff645 	stb	r2,-39(fp)
 7001da4:	e0bffd17 	ldw	r2,-12(fp)
 7001da8:	10800117 	ldw	r2,4(r2)
 7001dac:	1006923a 	slli	r3,r2,8
 7001db0:	e0bff643 	ldbu	r2,-39(fp)
 7001db4:	1886b03a 	or	r3,r3,r2
 7001db8:	e0bffd17 	ldw	r2,-12(fp)
 7001dbc:	10c00115 	stw	r3,4(r2)
 7001dc0:	e0fff643 	ldbu	r3,-39(fp)
 7001dc4:	e0bff817 	ldw	r2,-32(fp)
 7001dc8:	10c5883a 	add	r2,r2,r3
 7001dcc:	e0bff815 	stw	r2,-32(fp)
 7001dd0:	e0bffb17 	ldw	r2,-20(fp)
 7001dd4:	10800084 	addi	r2,r2,2
 7001dd8:	e0bffb15 	stw	r2,-20(fp)
 7001ddc:	e0fffb17 	ldw	r3,-20(fp)
 7001de0:	e0bff917 	ldw	r2,-28(fp)
 7001de4:	18bfd416 	blt	r3,r2,7001d38 <srec_decode+0x2e0>
 7001de8:	e0fffc17 	ldw	r3,-16(fp)
 7001dec:	e0bff917 	ldw	r2,-28(fp)
 7001df0:	1885c83a 	sub	r2,r3,r2
 7001df4:	e0bffc15 	stw	r2,-16(fp)
 7001df8:	e0bff917 	ldw	r2,-28(fp)
 7001dfc:	1007883a 	mov	r3,r2
 7001e00:	e0bff717 	ldw	r2,-36(fp)
 7001e04:	10c5883a 	add	r2,r2,r3
 7001e08:	e0bff715 	stw	r2,-36(fp)
 7001e0c:	e03ffb15 	stw	zero,-20(fp)
 7001e10:	00002c06 	br	7001ec4 <srec_decode+0x46c>
 7001e14:	e0bffb17 	ldw	r2,-20(fp)
 7001e18:	1007883a 	mov	r3,r2
 7001e1c:	e0bff717 	ldw	r2,-36(fp)
 7001e20:	1885883a 	add	r2,r3,r2
 7001e24:	10800003 	ldbu	r2,0(r2)
 7001e28:	10c03fcc 	andi	r3,r2,255
 7001e2c:	0081c1b4 	movhi	r2,1798
 7001e30:	10bf8b04 	addi	r2,r2,-468
 7001e34:	10c5883a 	add	r2,r2,r3
 7001e38:	10800003 	ldbu	r2,0(r2)
 7001e3c:	10803fcc 	andi	r2,r2,255
 7001e40:	1080201c 	xori	r2,r2,128
 7001e44:	10bfe004 	addi	r2,r2,-128
 7001e48:	1004913a 	slli	r2,r2,4
 7001e4c:	1009883a 	mov	r4,r2
 7001e50:	e0fffb17 	ldw	r3,-20(fp)
 7001e54:	e0bff717 	ldw	r2,-36(fp)
 7001e58:	1885883a 	add	r2,r3,r2
 7001e5c:	10800044 	addi	r2,r2,1
 7001e60:	10800003 	ldbu	r2,0(r2)
 7001e64:	10c03fcc 	andi	r3,r2,255
 7001e68:	0081c1b4 	movhi	r2,1798
 7001e6c:	10bf8b04 	addi	r2,r2,-468
 7001e70:	10c5883a 	add	r2,r2,r3
 7001e74:	10800003 	ldbu	r2,0(r2)
 7001e78:	2084b03a 	or	r2,r4,r2
 7001e7c:	e0bff605 	stb	r2,-40(fp)
 7001e80:	e0fffb17 	ldw	r3,-20(fp)
 7001e84:	1804d7fa 	srli	r2,r3,31
 7001e88:	10c5883a 	add	r2,r2,r3
 7001e8c:	1005d07a 	srai	r2,r2,1
 7001e90:	1007883a 	mov	r3,r2
 7001e94:	e0bffd17 	ldw	r2,-12(fp)
 7001e98:	1885883a 	add	r2,r3,r2
 7001e9c:	10c00204 	addi	r3,r2,8
 7001ea0:	e0bff603 	ldbu	r2,-40(fp)
 7001ea4:	18800045 	stb	r2,1(r3)
 7001ea8:	e0fff603 	ldbu	r3,-40(fp)
 7001eac:	e0bff817 	ldw	r2,-32(fp)
 7001eb0:	10c5883a 	add	r2,r2,r3
 7001eb4:	e0bff815 	stw	r2,-32(fp)
 7001eb8:	e0bffb17 	ldw	r2,-20(fp)
 7001ebc:	10800084 	addi	r2,r2,2
 7001ec0:	e0bffb15 	stw	r2,-20(fp)
 7001ec4:	e0bffc17 	ldw	r2,-16(fp)
 7001ec8:	10ffff84 	addi	r3,r2,-2
 7001ecc:	e0bffb17 	ldw	r2,-20(fp)
 7001ed0:	10ffd016 	blt	r2,r3,7001e14 <srec_decode+0x3bc>
 7001ed4:	e0bffa17 	ldw	r2,-24(fp)
 7001ed8:	1009883a 	mov	r4,r2
 7001edc:	e0fff917 	ldw	r3,-28(fp)
 7001ee0:	1804d7fa 	srli	r2,r3,31
 7001ee4:	10c5883a 	add	r2,r2,r3
 7001ee8:	1005d07a 	srai	r2,r2,1
 7001eec:	2085c83a 	sub	r2,r4,r2
 7001ef0:	10bfffc4 	addi	r2,r2,-1
 7001ef4:	1007883a 	mov	r3,r2
 7001ef8:	e0bffd17 	ldw	r2,-12(fp)
 7001efc:	10c00205 	stb	r3,8(r2)
 7001f00:	e0bffb17 	ldw	r2,-20(fp)
 7001f04:	1007883a 	mov	r3,r2
 7001f08:	e0bff717 	ldw	r2,-36(fp)
 7001f0c:	1885883a 	add	r2,r3,r2
 7001f10:	10800003 	ldbu	r2,0(r2)
 7001f14:	10c03fcc 	andi	r3,r2,255
 7001f18:	0081c1b4 	movhi	r2,1798
 7001f1c:	10bf8b04 	addi	r2,r2,-468
 7001f20:	10c5883a 	add	r2,r2,r3
 7001f24:	10800003 	ldbu	r2,0(r2)
 7001f28:	10803fcc 	andi	r2,r2,255
 7001f2c:	1080201c 	xori	r2,r2,128
 7001f30:	10bfe004 	addi	r2,r2,-128
 7001f34:	1008913a 	slli	r4,r2,4
 7001f38:	e0fffb17 	ldw	r3,-20(fp)
 7001f3c:	e0bff717 	ldw	r2,-36(fp)
 7001f40:	1885883a 	add	r2,r3,r2
 7001f44:	10800044 	addi	r2,r2,1
 7001f48:	10800003 	ldbu	r2,0(r2)
 7001f4c:	10c03fcc 	andi	r3,r2,255
 7001f50:	0081c1b4 	movhi	r2,1798
 7001f54:	10bf8b04 	addi	r2,r2,-468
 7001f58:	10c5883a 	add	r2,r2,r3
 7001f5c:	10800003 	ldbu	r2,0(r2)
 7001f60:	10803fcc 	andi	r2,r2,255
 7001f64:	1080201c 	xori	r2,r2,128
 7001f68:	10bfe004 	addi	r2,r2,-128
 7001f6c:	2086b03a 	or	r3,r4,r2
 7001f70:	e0bff817 	ldw	r2,-32(fp)
 7001f74:	10c5883a 	add	r2,r2,r3
 7001f78:	e0bff815 	stw	r2,-32(fp)
 7001f7c:	e0bff817 	ldw	r2,-32(fp)
 7001f80:	10803fcc 	andi	r2,r2,255
 7001f84:	10803fe0 	cmpeqi	r2,r2,255
 7001f88:	1000031e 	bne	r2,zero,7001f98 <srec_decode+0x540>
 7001f8c:	00bffe04 	movi	r2,-8
 7001f90:	e0bfff15 	stw	r2,-4(fp)
 7001f94:	00000106 	br	7001f9c <srec_decode+0x544>
 7001f98:	e03fff15 	stw	zero,-4(fp)
 7001f9c:	e0bfff17 	ldw	r2,-4(fp)
 7001fa0:	e037883a 	mov	sp,fp
 7001fa4:	df000017 	ldw	fp,0(sp)
 7001fa8:	dec00104 	addi	sp,sp,4
 7001fac:	f800283a 	ret

07001fb0 <srec_encode>:
 7001fb0:	defff604 	addi	sp,sp,-40
 7001fb4:	dfc00915 	stw	ra,36(sp)
 7001fb8:	df000815 	stw	fp,32(sp)
 7001fbc:	df000804 	addi	fp,sp,32
 7001fc0:	e13ffd15 	stw	r4,-12(fp)
 7001fc4:	e17ffe15 	stw	r5,-8(fp)
 7001fc8:	e03ffa15 	stw	zero,-24(fp)
 7001fcc:	e0bffd17 	ldw	r2,-12(fp)
 7001fd0:	10800003 	ldbu	r2,0(r2)
 7001fd4:	10803fcc 	andi	r2,r2,255
 7001fd8:	108002b0 	cmpltui	r2,r2,10
 7001fdc:	1000031e 	bne	r2,zero,7001fec <srec_encode+0x3c>
 7001fe0:	00bfff04 	movi	r2,-4
 7001fe4:	e0bfff15 	stw	r2,-4(fp)
 7001fe8:	00007f06 	br	70021e8 <srec_encode+0x238>
 7001fec:	e0bffd17 	ldw	r2,-12(fp)
 7001ff0:	10800003 	ldbu	r2,0(r2)
 7001ff4:	10803fcc 	andi	r2,r2,255
 7001ff8:	00c1c1b4 	movhi	r3,1798
 7001ffc:	18ffcb04 	addi	r3,r3,-212
 7002000:	1085883a 	add	r2,r2,r2
 7002004:	1085883a 	add	r2,r2,r2
 7002008:	10c5883a 	add	r2,r2,r3
 700200c:	10800017 	ldw	r2,0(r2)
 7002010:	e0bffc15 	stw	r2,-16(fp)
 7002014:	e0bffc17 	ldw	r2,-16(fp)
 7002018:	1004c03a 	cmpne	r2,r2,zero
 700201c:	1000031e 	bne	r2,zero,700202c <srec_encode+0x7c>
 7002020:	00bfff04 	movi	r2,-4
 7002024:	e0bfff15 	stw	r2,-4(fp)
 7002028:	00006f06 	br	70021e8 <srec_encode+0x238>
 700202c:	e0bffd17 	ldw	r2,-12(fp)
 7002030:	10800003 	ldbu	r2,0(r2)
 7002034:	11803fcc 	andi	r6,r2,255
 7002038:	e13ffe17 	ldw	r4,-8(fp)
 700203c:	0141c1b4 	movhi	r5,1798
 7002040:	29628f04 	addi	r5,r5,-30148
 7002044:	7009a640 	call	7009a64 <sprintf>
 7002048:	1007883a 	mov	r3,r2
 700204c:	e0bffe17 	ldw	r2,-8(fp)
 7002050:	10c5883a 	add	r2,r2,r3
 7002054:	e0bffe15 	stw	r2,-8(fp)
 7002058:	e0bffd17 	ldw	r2,-12(fp)
 700205c:	10800203 	ldbu	r2,8(r2)
 7002060:	10803fcc 	andi	r2,r2,255
 7002064:	10800870 	cmpltui	r2,r2,33
 7002068:	1000031e 	bne	r2,zero,7002078 <srec_encode+0xc8>
 700206c:	00bffe84 	movi	r2,-6
 7002070:	e0bfff15 	stw	r2,-4(fp)
 7002074:	00005c06 	br	70021e8 <srec_encode+0x238>
 7002078:	e0bffd17 	ldw	r2,-12(fp)
 700207c:	10800203 	ldbu	r2,8(r2)
 7002080:	11003fcc 	andi	r4,r2,255
 7002084:	e0fffc17 	ldw	r3,-16(fp)
 7002088:	1804d7fa 	srli	r2,r3,31
 700208c:	10c5883a 	add	r2,r2,r3
 7002090:	1005d07a 	srai	r2,r2,1
 7002094:	2085883a 	add	r2,r4,r2
 7002098:	10800044 	addi	r2,r2,1
 700209c:	e0bffb15 	stw	r2,-20(fp)
 70020a0:	e13ffe17 	ldw	r4,-8(fp)
 70020a4:	0141c1b4 	movhi	r5,1798
 70020a8:	29629004 	addi	r5,r5,-30144
 70020ac:	e1bffb17 	ldw	r6,-20(fp)
 70020b0:	7009a640 	call	7009a64 <sprintf>
 70020b4:	1007883a 	mov	r3,r2
 70020b8:	e0bffe17 	ldw	r2,-8(fp)
 70020bc:	10c5883a 	add	r2,r2,r3
 70020c0:	e0bffe15 	stw	r2,-8(fp)
 70020c4:	e0fffa17 	ldw	r3,-24(fp)
 70020c8:	e0bffb17 	ldw	r2,-20(fp)
 70020cc:	1885883a 	add	r2,r3,r2
 70020d0:	e0bffa15 	stw	r2,-24(fp)
 70020d4:	00001806 	br	7002138 <srec_encode+0x188>
 70020d8:	e0bffc17 	ldw	r2,-16(fp)
 70020dc:	10bfff84 	addi	r2,r2,-2
 70020e0:	e0bffc15 	stw	r2,-16(fp)
 70020e4:	e0bffd17 	ldw	r2,-12(fp)
 70020e8:	10c00117 	ldw	r3,4(r2)
 70020ec:	e0bffc17 	ldw	r2,-16(fp)
 70020f0:	1085883a 	add	r2,r2,r2
 70020f4:	1085883a 	add	r2,r2,r2
 70020f8:	1884d83a 	srl	r2,r3,r2
 70020fc:	10803fcc 	andi	r2,r2,255
 7002100:	e0bff815 	stw	r2,-32(fp)
 7002104:	e13ffe17 	ldw	r4,-8(fp)
 7002108:	0141c1b4 	movhi	r5,1798
 700210c:	29629004 	addi	r5,r5,-30144
 7002110:	e1bff817 	ldw	r6,-32(fp)
 7002114:	7009a640 	call	7009a64 <sprintf>
 7002118:	1007883a 	mov	r3,r2
 700211c:	e0bffe17 	ldw	r2,-8(fp)
 7002120:	10c5883a 	add	r2,r2,r3
 7002124:	e0bffe15 	stw	r2,-8(fp)
 7002128:	e0fffa17 	ldw	r3,-24(fp)
 700212c:	e0bff817 	ldw	r2,-32(fp)
 7002130:	1885883a 	add	r2,r3,r2
 7002134:	e0bffa15 	stw	r2,-24(fp)
 7002138:	e0bffc17 	ldw	r2,-16(fp)
 700213c:	1004c03a 	cmpne	r2,r2,zero
 7002140:	103fe51e 	bne	r2,zero,70020d8 <srec_encode+0x128>
 7002144:	e03ff915 	stw	zero,-28(fp)
 7002148:	00001a06 	br	70021b4 <srec_encode+0x204>
 700214c:	e0fff917 	ldw	r3,-28(fp)
 7002150:	e0bffd17 	ldw	r2,-12(fp)
 7002154:	1885883a 	add	r2,r3,r2
 7002158:	10800204 	addi	r2,r2,8
 700215c:	10800043 	ldbu	r2,1(r2)
 7002160:	11803fcc 	andi	r6,r2,255
 7002164:	e13ffe17 	ldw	r4,-8(fp)
 7002168:	0141c1b4 	movhi	r5,1798
 700216c:	29629004 	addi	r5,r5,-30144
 7002170:	7009a640 	call	7009a64 <sprintf>
 7002174:	1007883a 	mov	r3,r2
 7002178:	e0bffe17 	ldw	r2,-8(fp)
 700217c:	10c5883a 	add	r2,r2,r3
 7002180:	e0bffe15 	stw	r2,-8(fp)
 7002184:	e0fff917 	ldw	r3,-28(fp)
 7002188:	e0bffd17 	ldw	r2,-12(fp)
 700218c:	1885883a 	add	r2,r3,r2
 7002190:	10800204 	addi	r2,r2,8
 7002194:	10800043 	ldbu	r2,1(r2)
 7002198:	10c03fcc 	andi	r3,r2,255
 700219c:	e0bffa17 	ldw	r2,-24(fp)
 70021a0:	10c5883a 	add	r2,r2,r3
 70021a4:	e0bffa15 	stw	r2,-24(fp)
 70021a8:	e0bff917 	ldw	r2,-28(fp)
 70021ac:	10800044 	addi	r2,r2,1
 70021b0:	e0bff915 	stw	r2,-28(fp)
 70021b4:	e0bffd17 	ldw	r2,-12(fp)
 70021b8:	10800203 	ldbu	r2,8(r2)
 70021bc:	10c03fcc 	andi	r3,r2,255
 70021c0:	e0bff917 	ldw	r2,-28(fp)
 70021c4:	10ffe116 	blt	r2,r3,700214c <srec_encode+0x19c>
 70021c8:	e0bffa17 	ldw	r2,-24(fp)
 70021cc:	0084303a 	nor	r2,zero,r2
 70021d0:	11803fcc 	andi	r6,r2,255
 70021d4:	e13ffe17 	ldw	r4,-8(fp)
 70021d8:	0141c1b4 	movhi	r5,1798
 70021dc:	29629204 	addi	r5,r5,-30136
 70021e0:	7009a640 	call	7009a64 <sprintf>
 70021e4:	e03fff15 	stw	zero,-4(fp)
 70021e8:	e0bfff17 	ldw	r2,-4(fp)
 70021ec:	e037883a 	mov	sp,fp
 70021f0:	dfc00117 	ldw	ra,4(sp)
 70021f4:	df000017 	ldw	fp,0(sp)
 70021f8:	dec00204 	addi	sp,sp,8
 70021fc:	f800283a 	ret

07002200 <srec_strerror>:
 7002200:	defffc04 	addi	sp,sp,-16
 7002204:	df000315 	stw	fp,12(sp)
 7002208:	df000304 	addi	fp,sp,12
 700220c:	e13ffd15 	stw	r4,-12(fp)
 7002210:	e0bffd17 	ldw	r2,-12(fp)
 7002214:	10800204 	addi	r2,r2,8
 7002218:	e0bfff15 	stw	r2,-4(fp)
 700221c:	e0ffff17 	ldw	r3,-4(fp)
 7002220:	18800268 	cmpgeui	r2,r3,9
 7002224:	1000321e 	bne	r2,zero,70022f0 <srec_strerror+0xf0>
 7002228:	e13fff17 	ldw	r4,-4(fp)
 700222c:	e13fff17 	ldw	r4,-4(fp)
 7002230:	2105883a 	add	r2,r4,r4
 7002234:	1087883a 	add	r3,r2,r2
 7002238:	0081c034 	movhi	r2,1792
 700223c:	10889304 	addi	r2,r2,8780
 7002240:	1885883a 	add	r2,r3,r2
 7002244:	10800017 	ldw	r2,0(r2)
 7002248:	1000683a 	jmp	r2
 700224c:	070022e0 	cmpeqi	fp,zero,139
 7002250:	070022d0 	cmplti	fp,zero,139
 7002254:	070022c0 	call	70022c <OSCtxSw_SWITCH_PC+0x7001ec>
 7002258:	070022b0 	cmpltui	fp,zero,138
 700225c:	070022f0 	cmpltui	fp,zero,139
 7002260:	070022a0 	cmpeqi	fp,zero,138
 7002264:	07002290 	cmplti	fp,zero,138
 7002268:	07002280 	call	700228 <OSCtxSw_SWITCH_PC+0x7001e8>
 700226c:	07002270 	cmpltui	fp,zero,137
 7002270:	0081c1b4 	movhi	r2,1798
 7002274:	10a29404 	addi	r2,r2,-30128
 7002278:	e0bffe15 	stw	r2,-8(fp)
 700227c:	00001f06 	br	70022fc <srec_strerror+0xfc>
 7002280:	00c1c1b4 	movhi	r3,1798
 7002284:	18e29704 	addi	r3,r3,-30116
 7002288:	e0fffe15 	stw	r3,-8(fp)
 700228c:	00001b06 	br	70022fc <srec_strerror+0xfc>
 7002290:	0101c1b4 	movhi	r4,1798
 7002294:	21229c04 	addi	r4,r4,-30096
 7002298:	e13ffe15 	stw	r4,-8(fp)
 700229c:	00001706 	br	70022fc <srec_strerror+0xfc>
 70022a0:	0081c1b4 	movhi	r2,1798
 70022a4:	10a2a004 	addi	r2,r2,-30080
 70022a8:	e0bffe15 	stw	r2,-8(fp)
 70022ac:	00001306 	br	70022fc <srec_strerror+0xfc>
 70022b0:	00c1c1b4 	movhi	r3,1798
 70022b4:	18e2a504 	addi	r3,r3,-30060
 70022b8:	e0fffe15 	stw	r3,-8(fp)
 70022bc:	00000f06 	br	70022fc <srec_strerror+0xfc>
 70022c0:	0101c1b4 	movhi	r4,1798
 70022c4:	2122a904 	addi	r4,r4,-30044
 70022c8:	e13ffe15 	stw	r4,-8(fp)
 70022cc:	00000b06 	br	70022fc <srec_strerror+0xfc>
 70022d0:	0081c1b4 	movhi	r2,1798
 70022d4:	10a2ad04 	addi	r2,r2,-30028
 70022d8:	e0bffe15 	stw	r2,-8(fp)
 70022dc:	00000706 	br	70022fc <srec_strerror+0xfc>
 70022e0:	00c1c1b4 	movhi	r3,1798
 70022e4:	18e2b104 	addi	r3,r3,-30012
 70022e8:	e0fffe15 	stw	r3,-8(fp)
 70022ec:	00000306 	br	70022fc <srec_strerror+0xfc>
 70022f0:	0101c1b4 	movhi	r4,1798
 70022f4:	2122b504 	addi	r4,r4,-29996
 70022f8:	e13ffe15 	stw	r4,-8(fp)
 70022fc:	e0bffe17 	ldw	r2,-8(fp)
 7002300:	e037883a 	mov	sp,fp
 7002304:	df000017 	ldw	fp,0(sp)
 7002308:	dec00104 	addi	sp,sp,4
 700230c:	f800283a 	ret

07002310 <print>:
 7002310:	defffe04 	addi	sp,sp,-8
 7002314:	dfc00115 	stw	ra,4(sp)
 7002318:	df000015 	stw	fp,0(sp)
 700231c:	d839883a 	mov	fp,sp
 7002320:	0101c1b4 	movhi	r4,1798
 7002324:	21234f04 	addi	r4,r4,-29380
 7002328:	70097a00 	call	70097a0 <puts>
 700232c:	e037883a 	mov	sp,fp
 7002330:	dfc00117 	ldw	ra,4(sp)
 7002334:	df000017 	ldw	fp,0(sp)
 7002338:	dec00204 	addi	sp,sp,8
 700233c:	f800283a 	ret

07002340 <stats>:
 7002340:	defffd04 	addi	sp,sp,-12
 7002344:	dfc00215 	stw	ra,8(sp)
 7002348:	df000115 	stw	fp,4(sp)
 700234c:	df000104 	addi	fp,sp,4
 7002350:	e13fff15 	stw	r4,-4(fp)
 7002354:	0081c274 	movhi	r2,1801
 7002358:	10bed304 	addi	r2,r2,-1204
 700235c:	11400f17 	ldw	r5,60(r2)
 7002360:	0101c1b4 	movhi	r4,1798
 7002364:	21235604 	addi	r4,r4,-29352
 7002368:	70011300 	call	7001130 <printf>
 700236c:	0081c274 	movhi	r2,1801
 7002370:	10bed304 	addi	r2,r2,-1204
 7002374:	11401917 	ldw	r5,100(r2)
 7002378:	0101c1b4 	movhi	r4,1798
 700237c:	21235e04 	addi	r4,r4,-29320
 7002380:	70011300 	call	7001130 <printf>
 7002384:	e037883a 	mov	sp,fp
 7002388:	dfc00117 	ldw	ra,4(sp)
 700238c:	df000017 	ldw	fp,0(sp)
 7002390:	dec00204 	addi	sp,sp,8
 7002394:	f800283a 	ret

07002398 <get_content_disposition_field>:
 7002398:	defff804 	addi	sp,sp,-32
 700239c:	dfc00715 	stw	ra,28(sp)
 70023a0:	df000615 	stw	fp,24(sp)
 70023a4:	df000604 	addi	fp,sp,24
 70023a8:	e13ffd15 	stw	r4,-12(fp)
 70023ac:	e17ffe15 	stw	r5,-8(fp)
 70023b0:	e1bfff15 	stw	r6,-4(fp)
 70023b4:	e03ffc15 	stw	zero,-16(fp)
 70023b8:	e13fff17 	ldw	r4,-4(fp)
 70023bc:	e17ffd17 	ldw	r5,-12(fp)
 70023c0:	700aa380 	call	700aa38 <strstr>
 70023c4:	e0bffb15 	stw	r2,-20(fp)
 70023c8:	e0bffb17 	ldw	r2,-20(fp)
 70023cc:	1005003a 	cmpeq	r2,r2,zero
 70023d0:	1000111e 	bne	r2,zero,7002418 <get_content_disposition_field+0x80>
 70023d4:	e13ffb17 	ldw	r4,-20(fp)
 70023d8:	01400884 	movi	r5,34
 70023dc:	7009e480 	call	7009e48 <strchr>
 70023e0:	10800044 	addi	r2,r2,1
 70023e4:	e0bffb15 	stw	r2,-20(fp)
 70023e8:	e13ffb17 	ldw	r4,-20(fp)
 70023ec:	01400884 	movi	r5,34
 70023f0:	7009e480 	call	7009e48 <strchr>
 70023f4:	1007883a 	mov	r3,r2
 70023f8:	e0bffb17 	ldw	r2,-20(fp)
 70023fc:	1885c83a 	sub	r2,r3,r2
 7002400:	e0bffa15 	stw	r2,-24(fp)
 7002404:	e1bffa17 	ldw	r6,-24(fp)
 7002408:	e13ffe17 	ldw	r4,-8(fp)
 700240c:	e17ffb17 	ldw	r5,-20(fp)
 7002410:	700a8480 	call	700a848 <strncpy>
 7002414:	00000206 	br	7002420 <get_content_disposition_field+0x88>
 7002418:	00bfffc4 	movi	r2,-1
 700241c:	e0bffc15 	stw	r2,-16(fp)
 7002420:	e0bffc17 	ldw	r2,-16(fp)
 7002424:	e037883a 	mov	sp,fp
 7002428:	dfc00117 	ldw	ra,4(sp)
 700242c:	df000017 	ldw	fp,0(sp)
 7002430:	dec00204 	addi	sp,sp,8
 7002434:	f800283a 	ret

07002438 <find_string_in_buf>:
 7002438:	defff504 	addi	sp,sp,-44
 700243c:	dfc00a15 	stw	ra,40(sp)
 7002440:	df000915 	stw	fp,36(sp)
 7002444:	df000904 	addi	fp,sp,36
 7002448:	e13ffd15 	stw	r4,-12(fp)
 700244c:	e17ffe15 	stw	r5,-8(fp)
 7002450:	e1bfff15 	stw	r6,-4(fp)
 7002454:	e0bffd17 	ldw	r2,-12(fp)
 7002458:	e0bffc15 	stw	r2,-16(fp)
 700245c:	e0bffe17 	ldw	r2,-8(fp)
 7002460:	e0bffb15 	stw	r2,-20(fp)
 7002464:	e03ffa15 	stw	zero,-24(fp)
 7002468:	e13ffe17 	ldw	r4,-8(fp)
 700246c:	700a6e40 	call	700a6e4 <strlen>
 7002470:	e0bff915 	stw	r2,-28(fp)
 7002474:	e0ffff17 	ldw	r3,-4(fp)
 7002478:	e0bff917 	ldw	r2,-28(fp)
 700247c:	1885c83a 	sub	r2,r3,r2
 7002480:	e0bfff15 	stw	r2,-4(fp)
 7002484:	e03ff815 	stw	zero,-32(fp)
 7002488:	00002106 	br	7002510 <find_string_in_buf+0xd8>
 700248c:	e03ff715 	stw	zero,-36(fp)
 7002490:	00001006 	br	70024d4 <find_string_in_buf+0x9c>
 7002494:	e0bff717 	ldw	r2,-36(fp)
 7002498:	1007883a 	mov	r3,r2
 700249c:	e0bffc17 	ldw	r2,-16(fp)
 70024a0:	1885883a 	add	r2,r3,r2
 70024a4:	11000003 	ldbu	r4,0(r2)
 70024a8:	e0bff717 	ldw	r2,-36(fp)
 70024ac:	1007883a 	mov	r3,r2
 70024b0:	e0bffb17 	ldw	r2,-20(fp)
 70024b4:	1885883a 	add	r2,r3,r2
 70024b8:	10800003 	ldbu	r2,0(r2)
 70024bc:	20c03fcc 	andi	r3,r4,255
 70024c0:	10803fcc 	andi	r2,r2,255
 70024c4:	1880061e 	bne	r3,r2,70024e0 <find_string_in_buf+0xa8>
 70024c8:	e0bff717 	ldw	r2,-36(fp)
 70024cc:	10800044 	addi	r2,r2,1
 70024d0:	e0bff715 	stw	r2,-36(fp)
 70024d4:	e0fff717 	ldw	r3,-36(fp)
 70024d8:	e0bff917 	ldw	r2,-28(fp)
 70024dc:	18bfed16 	blt	r3,r2,7002494 <find_string_in_buf+0x5c>
 70024e0:	e0fff717 	ldw	r3,-36(fp)
 70024e4:	e0bff917 	ldw	r2,-28(fp)
 70024e8:	1880031e 	bne	r3,r2,70024f8 <find_string_in_buf+0xc0>
 70024ec:	e0bffc17 	ldw	r2,-16(fp)
 70024f0:	e0bffa15 	stw	r2,-24(fp)
 70024f4:	00000906 	br	700251c <find_string_in_buf+0xe4>
 70024f8:	e0bffc17 	ldw	r2,-16(fp)
 70024fc:	10800044 	addi	r2,r2,1
 7002500:	e0bffc15 	stw	r2,-16(fp)
 7002504:	e0bff817 	ldw	r2,-32(fp)
 7002508:	10800044 	addi	r2,r2,1
 700250c:	e0bff815 	stw	r2,-32(fp)
 7002510:	e0fff817 	ldw	r3,-32(fp)
 7002514:	e0bfff17 	ldw	r2,-4(fp)
 7002518:	18bfdc16 	blt	r3,r2,700248c <find_string_in_buf+0x54>
 700251c:	e0bffa17 	ldw	r2,-24(fp)
 7002520:	e037883a 	mov	sp,fp
 7002524:	dfc00117 	ldw	ra,4(sp)
 7002528:	df000017 	ldw	fp,0(sp)
 700252c:	dec00204 	addi	sp,sp,8
 7002530:	f800283a 	ret

07002534 <http_parse_multipart_header>:
 7002534:	deffb804 	addi	sp,sp,-288
 7002538:	dfc04715 	stw	ra,284(sp)
 700253c:	df004615 	stw	fp,280(sp)
 7002540:	dc404515 	stw	r17,276(sp)
 7002544:	dc004415 	stw	r16,272(sp)
 7002548:	df004404 	addi	fp,sp,272
 700254c:	e13fff15 	stw	r4,-4(fp)
 7002550:	e03fbd05 	stb	zero,-268(fp)
 7002554:	e0bfff17 	ldw	r2,-4(fp)
 7002558:	14400e17 	ldw	r17,56(r2)
 700255c:	e0bfff17 	ldw	r2,-4(fp)
 7002560:	1400df04 	addi	r16,r2,892
 7002564:	e0bfff17 	ldw	r2,-4(fp)
 7002568:	1080df04 	addi	r2,r2,892
 700256c:	1009883a 	mov	r4,r2
 7002570:	700a6e40 	call	700a6e4 <strlen>
 7002574:	10800284 	addi	r2,r2,10
 7002578:	100d883a 	mov	r6,r2
 700257c:	8809883a 	mov	r4,r17
 7002580:	800b883a 	mov	r5,r16
 7002584:	70024380 	call	7002438 <find_string_in_buf>
 7002588:	e0bfbe15 	stw	r2,-264(fp)
 700258c:	e0bfbe17 	ldw	r2,-264(fp)
 7002590:	1005003a 	cmpeq	r2,r2,zero
 7002594:	1000751e 	bne	r2,zero,700276c <http_parse_multipart_header+0x238>
 7002598:	e0bfff17 	ldw	r2,-4(fp)
 700259c:	10800e17 	ldw	r2,56(r2)
 70025a0:	1009883a 	mov	r4,r2
 70025a4:	0141c1b4 	movhi	r5,1798
 70025a8:	29636704 	addi	r5,r5,-29284
 70025ac:	700aa380 	call	700aa38 <strstr>
 70025b0:	e0bfbe15 	stw	r2,-264(fp)
 70025b4:	e0bfbe17 	ldw	r2,-264(fp)
 70025b8:	1005003a 	cmpeq	r2,r2,zero
 70025bc:	10005b1e 	bne	r2,zero,700272c <http_parse_multipart_header+0x1f8>
 70025c0:	e0ffff17 	ldw	r3,-4(fp)
 70025c4:	e0bfbe17 	ldw	r2,-264(fp)
 70025c8:	18800e15 	stw	r2,56(r3)
 70025cc:	e0bfff17 	ldw	r2,-4(fp)
 70025d0:	10800e17 	ldw	r2,56(r2)
 70025d4:	1009883a 	mov	r4,r2
 70025d8:	0141c1b4 	movhi	r5,1798
 70025dc:	29636c04 	addi	r5,r5,-29264
 70025e0:	700aa380 	call	700aa38 <strstr>
 70025e4:	1007883a 	mov	r3,r2
 70025e8:	e0bfff17 	ldw	r2,-4(fp)
 70025ec:	10800e17 	ldw	r2,56(r2)
 70025f0:	1885c83a 	sub	r2,r3,r2
 70025f4:	e0bfbd05 	stb	r2,-268(fp)
 70025f8:	e13fbf04 	addi	r4,fp,-260
 70025fc:	e0bfff17 	ldw	r2,-4(fp)
 7002600:	10800e17 	ldw	r2,56(r2)
 7002604:	100b883a 	mov	r5,r2
 7002608:	e1bfbd03 	ldbu	r6,-268(fp)
 700260c:	700a8480 	call	700a848 <strncpy>
 7002610:	e0bfff17 	ldw	r2,-4(fp)
 7002614:	10809404 	addi	r2,r2,592
 7002618:	100b883a 	mov	r5,r2
 700261c:	e1bfbf04 	addi	r6,fp,-260
 7002620:	0101c1b4 	movhi	r4,1798
 7002624:	21236d04 	addi	r4,r4,-29260
 7002628:	70023980 	call	7002398 <get_content_disposition_field>
 700262c:	e0bfff17 	ldw	r2,-4(fp)
 7002630:	10805404 	addi	r2,r2,336
 7002634:	100b883a 	mov	r5,r2
 7002638:	e1bfbf04 	addi	r6,fp,-260
 700263c:	0101c1b4 	movhi	r4,1798
 7002640:	21236f04 	addi	r4,r4,-29252
 7002644:	70023980 	call	7002398 <get_content_disposition_field>
 7002648:	e0bfff17 	ldw	r2,-4(fp)
 700264c:	10c00e17 	ldw	r3,56(r2)
 7002650:	e0bfbd03 	ldbu	r2,-268(fp)
 7002654:	1887883a 	add	r3,r3,r2
 7002658:	e0bfff17 	ldw	r2,-4(fp)
 700265c:	10c00e15 	stw	r3,56(r2)
 7002660:	e0bfff17 	ldw	r2,-4(fp)
 7002664:	10805404 	addi	r2,r2,336
 7002668:	1009883a 	mov	r4,r2
 700266c:	01400b84 	movi	r5,46
 7002670:	7009e480 	call	7009e48 <strchr>
 7002674:	e0bfbc15 	stw	r2,-272(fp)
 7002678:	e13fbc17 	ldw	r4,-272(fp)
 700267c:	0141c1b4 	movhi	r5,1798
 7002680:	29637204 	addi	r5,r5,-29240
 7002684:	7009d980 	call	7009d98 <strcasecmp>
 7002688:	1005003a 	cmpeq	r2,r2,zero
 700268c:	1000061e 	bne	r2,zero,70026a8 <http_parse_multipart_header+0x174>
 7002690:	e13fbc17 	ldw	r4,-272(fp)
 7002694:	0141c1b4 	movhi	r5,1798
 7002698:	29637404 	addi	r5,r5,-29232
 700269c:	7009d980 	call	7009d98 <strcasecmp>
 70026a0:	1004c03a 	cmpne	r2,r2,zero
 70026a4:	1000031e 	bne	r2,zero,70026b4 <http_parse_multipart_header+0x180>
 70026a8:	e0bfff17 	ldw	r2,-4(fp)
 70026ac:	10000b15 	stw	zero,44(r2)
 70026b0:	00001306 	br	7002700 <http_parse_multipart_header+0x1cc>
 70026b4:	e13fbc17 	ldw	r4,-272(fp)
 70026b8:	0141c1b4 	movhi	r5,1798
 70026bc:	29637604 	addi	r5,r5,-29224
 70026c0:	7009d980 	call	7009d98 <strcasecmp>
 70026c4:	1005003a 	cmpeq	r2,r2,zero
 70026c8:	1000061e 	bne	r2,zero,70026e4 <http_parse_multipart_header+0x1b0>
 70026cc:	e13fbc17 	ldw	r4,-272(fp)
 70026d0:	0141c1b4 	movhi	r5,1798
 70026d4:	29637804 	addi	r5,r5,-29216
 70026d8:	7009d980 	call	7009d98 <strcasecmp>
 70026dc:	1004c03a 	cmpne	r2,r2,zero
 70026e0:	1000041e 	bne	r2,zero,70026f4 <http_parse_multipart_header+0x1c0>
 70026e4:	e0ffff17 	ldw	r3,-4(fp)
 70026e8:	00800044 	movi	r2,1
 70026ec:	18800b15 	stw	r2,44(r3)
 70026f0:	00000306 	br	7002700 <http_parse_multipart_header+0x1cc>
 70026f4:	e0ffff17 	ldw	r3,-4(fp)
 70026f8:	00bfffc4 	movi	r2,-1
 70026fc:	18800b15 	stw	r2,44(r3)
 7002700:	e0bfff17 	ldw	r2,-4(fp)
 7002704:	10800e17 	ldw	r2,56(r2)
 7002708:	1009883a 	mov	r4,r2
 700270c:	0141c1b4 	movhi	r5,1798
 7002710:	29637a04 	addi	r5,r5,-29208
 7002714:	700aa380 	call	700aa38 <strstr>
 7002718:	10800104 	addi	r2,r2,4
 700271c:	1007883a 	mov	r3,r2
 7002720:	e0bfff17 	ldw	r2,-4(fp)
 7002724:	10c00e15 	stw	r3,56(r2)
 7002728:	00001006 	br	700276c <http_parse_multipart_header+0x238>
 700272c:	e0bfff17 	ldw	r2,-4(fp)
 7002730:	10800e17 	ldw	r2,56(r2)
 7002734:	1009883a 	mov	r4,r2
 7002738:	0141c1b4 	movhi	r5,1798
 700273c:	29636c04 	addi	r5,r5,-29264
 7002740:	700aa380 	call	700aa38 <strstr>
 7002744:	e0bfbe15 	stw	r2,-264(fp)
 7002748:	e0bfbe17 	ldw	r2,-264(fp)
 700274c:	1005003a 	cmpeq	r2,r2,zero
 7002750:	1000061e 	bne	r2,zero,700276c <http_parse_multipart_header+0x238>
 7002754:	e0bfff17 	ldw	r2,-4(fp)
 7002758:	10000a15 	stw	zero,40(r2)
 700275c:	e0bfbe17 	ldw	r2,-264(fp)
 7002760:	10c00084 	addi	r3,r2,2
 7002764:	e0bfff17 	ldw	r2,-4(fp)
 7002768:	10c00e15 	stw	r3,56(r2)
 700276c:	0005883a 	mov	r2,zero
 7002770:	e037883a 	mov	sp,fp
 7002774:	dfc00317 	ldw	ra,12(sp)
 7002778:	df000217 	ldw	fp,8(sp)
 700277c:	dc400117 	ldw	r17,4(sp)
 7002780:	dc000017 	ldw	r16,0(sp)
 7002784:	dec00404 	addi	sp,sp,16
 7002788:	f800283a 	ret

0700278c <write_flash>:
 700278c:	defff904 	addi	sp,sp,-28
 7002790:	dfc00615 	stw	ra,24(sp)
 7002794:	df000515 	stw	fp,20(sp)
 7002798:	df000504 	addi	fp,sp,20
 700279c:	e13ffc15 	stw	r4,-16(fp)
 70027a0:	e17ffd15 	stw	r5,-12(fp)
 70027a4:	e1bffe15 	stw	r6,-8(fp)
 70027a8:	e1ffff15 	stw	r7,-4(fp)
 70027ac:	e03ffb15 	stw	zero,-20(fp)
 70027b0:	e1bfff17 	ldw	r6,-4(fp)
 70027b4:	e13ffc17 	ldw	r4,-16(fp)
 70027b8:	e17ffd17 	ldw	r5,-12(fp)
 70027bc:	7000e400 	call	7000e40 <flash_intel_p30_erase>
 70027c0:	1007883a 	mov	r3,r2
 70027c4:	e0bffb17 	ldw	r2,-20(fp)
 70027c8:	10c4b03a 	or	r2,r2,r3
 70027cc:	e0bffb15 	stw	r2,-20(fp)
 70027d0:	e1bffe17 	ldw	r6,-8(fp)
 70027d4:	e0ffff17 	ldw	r3,-4(fp)
 70027d8:	1804d7fa 	srli	r2,r3,31
 70027dc:	10c5883a 	add	r2,r2,r3
 70027e0:	1005d07a 	srai	r2,r2,1
 70027e4:	100f883a 	mov	r7,r2
 70027e8:	e13ffc17 	ldw	r4,-16(fp)
 70027ec:	e17ffd17 	ldw	r5,-12(fp)
 70027f0:	7000c0c0 	call	7000c0c <flash_intel_p30_write>
 70027f4:	1007883a 	mov	r3,r2
 70027f8:	e0bffb17 	ldw	r2,-20(fp)
 70027fc:	10c4b03a 	or	r2,r2,r3
 7002800:	e0bffb15 	stw	r2,-20(fp)
 7002804:	e0fffc17 	ldw	r3,-16(fp)
 7002808:	e0bffd17 	ldw	r2,-12(fp)
 700280c:	1885883a 	add	r2,r3,r2
 7002810:	1007883a 	mov	r3,r2
 7002814:	00803fc4 	movi	r2,255
 7002818:	1880002d 	sthio	r2,0(r3)
 700281c:	e0fffc17 	ldw	r3,-16(fp)
 7002820:	e0bffd17 	ldw	r2,-12(fp)
 7002824:	1885883a 	add	r2,r3,r2
 7002828:	1009883a 	mov	r4,r2
 700282c:	e1bfff17 	ldw	r6,-4(fp)
 7002830:	e17ffe17 	ldw	r5,-8(fp)
 7002834:	70091900 	call	7009190 <memcmp>
 7002838:	1005003a 	cmpeq	r2,r2,zero
 700283c:	1000021e 	bne	r2,zero,7002848 <write_flash+0xbc>
 7002840:	00bfffc4 	movi	r2,-1
 7002844:	e0bffb15 	stw	r2,-20(fp)
 7002848:	e0bffb17 	ldw	r2,-20(fp)
 700284c:	1005003a 	cmpeq	r2,r2,zero
 7002850:	1000051e 	bne	r2,zero,7002868 <write_flash+0xdc>
 7002854:	0101c1b4 	movhi	r4,1798
 7002858:	21237c04 	addi	r4,r4,-29200
 700285c:	e17ffc17 	ldw	r5,-16(fp)
 7002860:	e1bffd17 	ldw	r6,-12(fp)
 7002864:	70011300 	call	7001130 <printf>
 7002868:	e0bffb17 	ldw	r2,-20(fp)
 700286c:	e037883a 	mov	sp,fp
 7002870:	dfc00117 	ldw	ra,4(sp)
 7002874:	df000017 	ldw	fp,0(sp)
 7002878:	dec00204 	addi	sp,sp,8
 700287c:	f800283a 	ret

07002880 <process_uploaded_data>:
 7002880:	deffb204 	addi	sp,sp,-312
 7002884:	dfc04d15 	stw	ra,308(sp)
 7002888:	df004c15 	stw	fp,304(sp)
 700288c:	df004c04 	addi	fp,sp,304
 7002890:	e13ffc15 	stw	r4,-16(fp)
 7002894:	e17ffd15 	stw	r5,-12(fp)
 7002898:	e1bffe15 	stw	r6,-8(fp)
 700289c:	e1ffff15 	stw	r7,-4(fp)
 70028a0:	e03fb715 	stw	zero,-292(fp)
 70028a4:	00006506 	br	7002a3c <process_uploaded_data+0x1bc>
 70028a8:	e0bffc17 	ldw	r2,-16(fp)
 70028ac:	11000117 	ldw	r4,4(r2)
 70028b0:	01400284 	movi	r5,10
 70028b4:	01801404 	movi	r6,80
 70028b8:	70090ac0 	call	70090ac <memchr>
 70028bc:	e0bfb515 	stw	r2,-300(fp)
 70028c0:	e0bfb517 	ldw	r2,-300(fp)
 70028c4:	1005003a 	cmpeq	r2,r2,zero
 70028c8:	1000631e 	bne	r2,zero,7002a58 <process_uploaded_data+0x1d8>
 70028cc:	e0bffc17 	ldw	r2,-16(fp)
 70028d0:	10c00017 	ldw	r3,0(r2)
 70028d4:	e0bfb517 	ldw	r2,-300(fp)
 70028d8:	10c05f2e 	bgeu	r2,r3,7002a58 <process_uploaded_data+0x1d8>
 70028dc:	e0bfb517 	ldw	r2,-300(fp)
 70028e0:	10c00044 	addi	r3,r2,1
 70028e4:	e0bffc17 	ldw	r2,-16(fp)
 70028e8:	10c00115 	stw	r3,4(r2)
 70028ec:	e0bfb903 	ldbu	r2,-284(fp)
 70028f0:	10803fcc 	andi	r2,r2,255
 70028f4:	1005003a 	cmpeq	r2,r2,zero
 70028f8:	1000501e 	bne	r2,zero,7002a3c <process_uploaded_data+0x1bc>
 70028fc:	e0bffc17 	ldw	r2,-16(fp)
 7002900:	10c00317 	ldw	r3,12(r2)
 7002904:	e0bfbb03 	ldbu	r2,-276(fp)
 7002908:	11803fcc 	andi	r6,r2,255
 700290c:	e0bfb904 	addi	r2,fp,-284
 7002910:	10800244 	addi	r2,r2,9
 7002914:	1809883a 	mov	r4,r3
 7002918:	100b883a 	mov	r5,r2
 700291c:	70092040 	call	7009204 <memcpy>
 7002920:	e0bffc17 	ldw	r2,-16(fp)
 7002924:	10c00317 	ldw	r3,12(r2)
 7002928:	e0bfbb03 	ldbu	r2,-276(fp)
 700292c:	10803fcc 	andi	r2,r2,255
 7002930:	1887883a 	add	r3,r3,r2
 7002934:	e0bffc17 	ldw	r2,-16(fp)
 7002938:	10c00315 	stw	r3,12(r2)
 700293c:	e0bffc17 	ldw	r2,-16(fp)
 7002940:	10800317 	ldw	r2,12(r2)
 7002944:	1007883a 	mov	r3,r2
 7002948:	e0bffc17 	ldw	r2,-16(fp)
 700294c:	10800417 	ldw	r2,16(r2)
 7002950:	1885c83a 	sub	r2,r3,r2
 7002954:	e0bfb815 	stw	r2,-288(fp)
 7002958:	e0ffb817 	ldw	r3,-288(fp)
 700295c:	008000b4 	movhi	r2,2
 7002960:	10bfffc4 	addi	r2,r2,-1
 7002964:	10c0350e 	bge	r2,r3,7002a3c <process_uploaded_data+0x1bc>
 7002968:	e13ffe17 	ldw	r4,-8(fp)
 700296c:	e0bfff17 	ldw	r2,-4(fp)
 7002970:	10800017 	ldw	r2,0(r2)
 7002974:	100b883a 	mov	r5,r2
 7002978:	e0bffc17 	ldw	r2,-16(fp)
 700297c:	11800417 	ldw	r6,16(r2)
 7002980:	00800044 	movi	r2,1
 7002984:	d8800015 	stw	r2,0(sp)
 7002988:	01c000b4 	movhi	r7,2
 700298c:	700278c0 	call	700278c <write_flash>
 7002990:	e0bfb715 	stw	r2,-292(fp)
 7002994:	e0bfb717 	ldw	r2,-292(fp)
 7002998:	1004c03a 	cmpne	r2,r2,zero
 700299c:	10002e1e 	bne	r2,zero,7002a58 <process_uploaded_data+0x1d8>
 70029a0:	e0bfff17 	ldw	r2,-4(fp)
 70029a4:	10c00017 	ldw	r3,0(r2)
 70029a8:	008000b4 	movhi	r2,2
 70029ac:	1887883a 	add	r3,r3,r2
 70029b0:	e0bfff17 	ldw	r2,-4(fp)
 70029b4:	10c00015 	stw	r3,0(r2)
 70029b8:	e0bffc17 	ldw	r2,-16(fp)
 70029bc:	10c00417 	ldw	r3,16(r2)
 70029c0:	008000b4 	movhi	r2,2
 70029c4:	1887883a 	add	r3,r3,r2
 70029c8:	e0bffc17 	ldw	r2,-16(fp)
 70029cc:	10c00415 	stw	r3,16(r2)
 70029d0:	e0bffc17 	ldw	r2,-16(fp)
 70029d4:	11000517 	ldw	r4,20(r2)
 70029d8:	e0bffc17 	ldw	r2,-16(fp)
 70029dc:	11400417 	ldw	r5,16(r2)
 70029e0:	e0bffc17 	ldw	r2,-16(fp)
 70029e4:	10800317 	ldw	r2,12(r2)
 70029e8:	1007883a 	mov	r3,r2
 70029ec:	e0bffc17 	ldw	r2,-16(fp)
 70029f0:	10800417 	ldw	r2,16(r2)
 70029f4:	1885c83a 	sub	r2,r3,r2
 70029f8:	100d883a 	mov	r6,r2
 70029fc:	70092a40 	call	70092a4 <memmove>
 7002a00:	e0bffc17 	ldw	r2,-16(fp)
 7002a04:	11000317 	ldw	r4,12(r2)
 7002a08:	e0bffc17 	ldw	r2,-16(fp)
 7002a0c:	10800417 	ldw	r2,16(r2)
 7002a10:	1007883a 	mov	r3,r2
 7002a14:	e0bffc17 	ldw	r2,-16(fp)
 7002a18:	10800517 	ldw	r2,20(r2)
 7002a1c:	1885c83a 	sub	r2,r3,r2
 7002a20:	2087c83a 	sub	r3,r4,r2
 7002a24:	e0bffc17 	ldw	r2,-16(fp)
 7002a28:	10c00315 	stw	r3,12(r2)
 7002a2c:	e0bffc17 	ldw	r2,-16(fp)
 7002a30:	10c00517 	ldw	r3,20(r2)
 7002a34:	e0bffc17 	ldw	r2,-16(fp)
 7002a38:	10c00415 	stw	r3,16(r2)
 7002a3c:	e0bffc17 	ldw	r2,-16(fp)
 7002a40:	10800117 	ldw	r2,4(r2)
 7002a44:	100b883a 	mov	r5,r2
 7002a48:	e13fb904 	addi	r4,fp,-284
 7002a4c:	7001a580 	call	7001a58 <srec_decode>
 7002a50:	1005003a 	cmpeq	r2,r2,zero
 7002a54:	103f941e 	bne	r2,zero,70028a8 <process_uploaded_data+0x28>
 7002a58:	e0bffc17 	ldw	r2,-16(fp)
 7002a5c:	10800317 	ldw	r2,12(r2)
 7002a60:	1007883a 	mov	r3,r2
 7002a64:	e0bffc17 	ldw	r2,-16(fp)
 7002a68:	10800417 	ldw	r2,16(r2)
 7002a6c:	1885c83a 	sub	r2,r3,r2
 7002a70:	e0bfb815 	stw	r2,-288(fp)
 7002a74:	e0800217 	ldw	r2,8(fp)
 7002a78:	1005003a 	cmpeq	r2,r2,zero
 7002a7c:	10003d1e 	bne	r2,zero,7002b74 <process_uploaded_data+0x2f4>
 7002a80:	e0bfb817 	ldw	r2,-288(fp)
 7002a84:	1005003a 	cmpeq	r2,r2,zero
 7002a88:	10003a1e 	bne	r2,zero,7002b74 <process_uploaded_data+0x2f4>
 7002a8c:	e13ffe17 	ldw	r4,-8(fp)
 7002a90:	e0bfff17 	ldw	r2,-4(fp)
 7002a94:	10800017 	ldw	r2,0(r2)
 7002a98:	100b883a 	mov	r5,r2
 7002a9c:	e0bffc17 	ldw	r2,-16(fp)
 7002aa0:	11800417 	ldw	r6,16(r2)
 7002aa4:	00800044 	movi	r2,1
 7002aa8:	d8800015 	stw	r2,0(sp)
 7002aac:	e1ffb817 	ldw	r7,-288(fp)
 7002ab0:	700278c0 	call	700278c <write_flash>
 7002ab4:	e0bfb715 	stw	r2,-292(fp)
 7002ab8:	e0bfb717 	ldw	r2,-292(fp)
 7002abc:	1004c03a 	cmpne	r2,r2,zero
 7002ac0:	10002c1e 	bne	r2,zero,7002b74 <process_uploaded_data+0x2f4>
 7002ac4:	e0bfff17 	ldw	r2,-4(fp)
 7002ac8:	10c00017 	ldw	r3,0(r2)
 7002acc:	e0bfb817 	ldw	r2,-288(fp)
 7002ad0:	1887883a 	add	r3,r3,r2
 7002ad4:	e0bfff17 	ldw	r2,-4(fp)
 7002ad8:	10c00015 	stw	r3,0(r2)
 7002adc:	e0bffc17 	ldw	r2,-16(fp)
 7002ae0:	10c00417 	ldw	r3,16(r2)
 7002ae4:	e0bfb817 	ldw	r2,-288(fp)
 7002ae8:	1887883a 	add	r3,r3,r2
 7002aec:	e0bffc17 	ldw	r2,-16(fp)
 7002af0:	10c00415 	stw	r3,16(r2)
 7002af4:	e0bffc17 	ldw	r2,-16(fp)
 7002af8:	10c00317 	ldw	r3,12(r2)
 7002afc:	e0bffc17 	ldw	r2,-16(fp)
 7002b00:	10800417 	ldw	r2,16(r2)
 7002b04:	10c00c2e 	bgeu	r2,r3,7002b38 <process_uploaded_data+0x2b8>
 7002b08:	e0bffc17 	ldw	r2,-16(fp)
 7002b0c:	11000517 	ldw	r4,20(r2)
 7002b10:	e0bffc17 	ldw	r2,-16(fp)
 7002b14:	11400417 	ldw	r5,16(r2)
 7002b18:	e0bffc17 	ldw	r2,-16(fp)
 7002b1c:	10800317 	ldw	r2,12(r2)
 7002b20:	1007883a 	mov	r3,r2
 7002b24:	e0bffc17 	ldw	r2,-16(fp)
 7002b28:	10800417 	ldw	r2,16(r2)
 7002b2c:	1885c83a 	sub	r2,r3,r2
 7002b30:	100d883a 	mov	r6,r2
 7002b34:	70092a40 	call	70092a4 <memmove>
 7002b38:	e0bffc17 	ldw	r2,-16(fp)
 7002b3c:	11000317 	ldw	r4,12(r2)
 7002b40:	e0bffc17 	ldw	r2,-16(fp)
 7002b44:	10800417 	ldw	r2,16(r2)
 7002b48:	1007883a 	mov	r3,r2
 7002b4c:	e0bffc17 	ldw	r2,-16(fp)
 7002b50:	10800517 	ldw	r2,20(r2)
 7002b54:	1885c83a 	sub	r2,r3,r2
 7002b58:	2087c83a 	sub	r3,r4,r2
 7002b5c:	e0bffc17 	ldw	r2,-16(fp)
 7002b60:	10c00315 	stw	r3,12(r2)
 7002b64:	e0bffc17 	ldw	r2,-16(fp)
 7002b68:	10c00517 	ldw	r3,20(r2)
 7002b6c:	e0bffc17 	ldw	r2,-16(fp)
 7002b70:	10c00415 	stw	r3,16(r2)
 7002b74:	e0bffc17 	ldw	r2,-16(fp)
 7002b78:	10800117 	ldw	r2,4(r2)
 7002b7c:	1007883a 	mov	r3,r2
 7002b80:	e0bffc17 	ldw	r2,-16(fp)
 7002b84:	10800217 	ldw	r2,8(r2)
 7002b88:	1885c83a 	sub	r2,r3,r2
 7002b8c:	e0bfb615 	stw	r2,-296(fp)
 7002b90:	e0bffc17 	ldw	r2,-16(fp)
 7002b94:	10c00017 	ldw	r3,0(r2)
 7002b98:	e0bffc17 	ldw	r2,-16(fp)
 7002b9c:	10800117 	ldw	r2,4(r2)
 7002ba0:	10c00c2e 	bgeu	r2,r3,7002bd4 <process_uploaded_data+0x354>
 7002ba4:	e0bffc17 	ldw	r2,-16(fp)
 7002ba8:	11000217 	ldw	r4,8(r2)
 7002bac:	e0bffc17 	ldw	r2,-16(fp)
 7002bb0:	11400117 	ldw	r5,4(r2)
 7002bb4:	e0bffc17 	ldw	r2,-16(fp)
 7002bb8:	10800017 	ldw	r2,0(r2)
 7002bbc:	1007883a 	mov	r3,r2
 7002bc0:	e0bffc17 	ldw	r2,-16(fp)
 7002bc4:	10800117 	ldw	r2,4(r2)
 7002bc8:	1885c83a 	sub	r2,r3,r2
 7002bcc:	100d883a 	mov	r6,r2
 7002bd0:	70092a40 	call	70092a4 <memmove>
 7002bd4:	e0bffc17 	ldw	r2,-16(fp)
 7002bd8:	10c00017 	ldw	r3,0(r2)
 7002bdc:	e0bfb617 	ldw	r2,-296(fp)
 7002be0:	1887c83a 	sub	r3,r3,r2
 7002be4:	e0bffc17 	ldw	r2,-16(fp)
 7002be8:	10c00015 	stw	r3,0(r2)
 7002bec:	e0bffc17 	ldw	r2,-16(fp)
 7002bf0:	10c00217 	ldw	r3,8(r2)
 7002bf4:	e0bffc17 	ldw	r2,-16(fp)
 7002bf8:	10c00115 	stw	r3,4(r2)
 7002bfc:	e0bffc17 	ldw	r2,-16(fp)
 7002c00:	10800017 	ldw	r2,0(r2)
 7002c04:	e0ffb617 	ldw	r3,-296(fp)
 7002c08:	1009883a 	mov	r4,r2
 7002c0c:	180d883a 	mov	r6,r3
 7002c10:	000b883a 	mov	r5,zero
 7002c14:	70093840 	call	7009384 <memset>
 7002c18:	e0bfb717 	ldw	r2,-292(fp)
 7002c1c:	e037883a 	mov	sp,fp
 7002c20:	dfc00117 	ldw	ra,4(sp)
 7002c24:	df000017 	ldw	fp,0(sp)
 7002c28:	dec00204 	addi	sp,sp,8
 7002c2c:	f800283a 	ret

07002c30 <lookup_flash_offset>:
 7002c30:	defffb04 	addi	sp,sp,-20
 7002c34:	dfc00415 	stw	ra,16(sp)
 7002c38:	df000315 	stw	fp,12(sp)
 7002c3c:	df000304 	addi	fp,sp,12
 7002c40:	e13ffd15 	stw	r4,-12(fp)
 7002c44:	e17ffe15 	stw	r5,-8(fp)
 7002c48:	e1bfff15 	stw	r6,-4(fp)
 7002c4c:	e13ffd17 	ldw	r4,-12(fp)
 7002c50:	0141c1b4 	movhi	r5,1798
 7002c54:	29638b04 	addi	r5,r5,-29140
 7002c58:	7009f280 	call	7009f28 <strcmp>
 7002c5c:	1004c03a 	cmpne	r2,r2,zero
 7002c60:	1000041e 	bne	r2,zero,7002c74 <lookup_flash_offset+0x44>
 7002c64:	e0ffff17 	ldw	r3,-4(fp)
 7002c68:	00802034 	movhi	r2,128
 7002c6c:	18800015 	stw	r2,0(r3)
 7002c70:	00000d06 	br	7002ca8 <lookup_flash_offset+0x78>
 7002c74:	e13ffd17 	ldw	r4,-12(fp)
 7002c78:	0141c1b4 	movhi	r5,1798
 7002c7c:	29638e04 	addi	r5,r5,-29128
 7002c80:	7009f280 	call	7009f28 <strcmp>
 7002c84:	1004c03a 	cmpne	r2,r2,zero
 7002c88:	1000041e 	bne	r2,zero,7002c9c <lookup_flash_offset+0x6c>
 7002c8c:	e0ffff17 	ldw	r3,-4(fp)
 7002c90:	00808f34 	movhi	r2,572
 7002c94:	18800015 	stw	r2,0(r3)
 7002c98:	00000306 	br	7002ca8 <lookup_flash_offset+0x78>
 7002c9c:	e0ffff17 	ldw	r3,-4(fp)
 7002ca0:	00bfffc4 	movi	r2,-1
 7002ca4:	18800015 	stw	r2,0(r3)
 7002ca8:	e0bfff17 	ldw	r2,-4(fp)
 7002cac:	10800017 	ldw	r2,0(r2)
 7002cb0:	10bfffd0 	cmplti	r2,r2,-1
 7002cb4:	1000021e 	bne	r2,zero,7002cc0 <lookup_flash_offset+0x90>
 7002cb8:	e0bffe17 	ldw	r2,-8(fp)
 7002cbc:	10000015 	stw	zero,0(r2)
 7002cc0:	0005883a 	mov	r2,zero
 7002cc4:	e037883a 	mov	sp,fp
 7002cc8:	dfc00117 	ldw	ra,4(sp)
 7002ccc:	df000017 	ldw	fp,0(sp)
 7002cd0:	dec00204 	addi	sp,sp,8
 7002cd4:	f800283a 	ret

07002cd8 <file_upload>:
 7002cd8:	defff204 	addi	sp,sp,-56
 7002cdc:	dfc00d15 	stw	ra,52(sp)
 7002ce0:	df000c15 	stw	fp,48(sp)
 7002ce4:	dc400b15 	stw	r17,44(sp)
 7002ce8:	dc000a15 	stw	r16,40(sp)
 7002cec:	df000a04 	addi	fp,sp,40
 7002cf0:	e13ffe15 	stw	r4,-8(fp)
 7002cf4:	d0a06517 	ldw	r2,-32364(gp)
 7002cf8:	1004c03a 	cmpne	r2,r2,zero
 7002cfc:	1000041e 	bne	r2,zero,7002d10 <file_upload+0x38>
 7002d00:	0081c1b4 	movhi	r2,1798
 7002d04:	10882204 	addi	r2,r2,8328
 7002d08:	10800017 	ldw	r2,0(r2)
 7002d0c:	d0a06515 	stw	r2,-32364(gp)
 7002d10:	e0bffe17 	ldw	r2,-8(fp)
 7002d14:	14400e17 	ldw	r17,56(r2)
 7002d18:	e0bffe17 	ldw	r2,-8(fp)
 7002d1c:	1400df04 	addi	r16,r2,892
 7002d20:	e0bffe17 	ldw	r2,-8(fp)
 7002d24:	1080df04 	addi	r2,r2,892
 7002d28:	1009883a 	mov	r4,r2
 7002d2c:	700a6e40 	call	700a6e4 <strlen>
 7002d30:	10800104 	addi	r2,r2,4
 7002d34:	100d883a 	mov	r6,r2
 7002d38:	8809883a 	mov	r4,r17
 7002d3c:	800b883a 	mov	r5,r16
 7002d40:	70024380 	call	7002438 <find_string_in_buf>
 7002d44:	1005003a 	cmpeq	r2,r2,zero
 7002d48:	1000101e 	bne	r2,zero,7002d8c <file_upload+0xb4>
 7002d4c:	e13ffe17 	ldw	r4,-8(fp)
 7002d50:	70025340 	call	7002534 <http_parse_multipart_header>
 7002d54:	1004c03a 	cmpne	r2,r2,zero
 7002d58:	1000061e 	bne	r2,zero,7002d74 <file_upload+0x9c>
 7002d5c:	e0bffe17 	ldw	r2,-8(fp)
 7002d60:	11009404 	addi	r4,r2,592
 7002d64:	d1600004 	addi	r5,gp,-32768
 7002d68:	d1a00104 	addi	r6,gp,-32764
 7002d6c:	7002c300 	call	7002c30 <lookup_flash_offset>
 7002d70:	00000606 	br	7002d8c <file_upload+0xb4>
 7002d74:	0101c1b4 	movhi	r4,1798
 7002d78:	21239104 	addi	r4,r4,-29116
 7002d7c:	70011300 	call	7001130 <printf>
 7002d80:	e0fffe17 	ldw	r3,-8(fp)
 7002d84:	00800104 	movi	r2,4
 7002d88:	18800015 	stw	r2,0(r3)
 7002d8c:	e0bffe17 	ldw	r2,-8(fp)
 7002d90:	11000e17 	ldw	r4,56(r2)
 7002d94:	e0bffe17 	ldw	r2,-8(fp)
 7002d98:	1140df04 	addi	r5,r2,892
 7002d9c:	e0bffe17 	ldw	r2,-8(fp)
 7002da0:	10800f17 	ldw	r2,60(r2)
 7002da4:	1007883a 	mov	r3,r2
 7002da8:	e0bffe17 	ldw	r2,-8(fp)
 7002dac:	10800e17 	ldw	r2,56(r2)
 7002db0:	188dc83a 	sub	r6,r3,r2
 7002db4:	70024380 	call	7002438 <find_string_in_buf>
 7002db8:	e0bffd15 	stw	r2,-12(fp)
 7002dbc:	e0bffd17 	ldw	r2,-12(fp)
 7002dc0:	1005003a 	cmpeq	r2,r2,zero
 7002dc4:	1000081e 	bne	r2,zero,7002de8 <file_upload+0x110>
 7002dc8:	e0fffd17 	ldw	r3,-12(fp)
 7002dcc:	e0bffe17 	ldw	r2,-8(fp)
 7002dd0:	10800e17 	ldw	r2,56(r2)
 7002dd4:	1885c83a 	sub	r2,r3,r2
 7002dd8:	e0bffc15 	stw	r2,-16(fp)
 7002ddc:	00800044 	movi	r2,1
 7002de0:	e0bff915 	stw	r2,-28(fp)
 7002de4:	00000806 	br	7002e08 <file_upload+0x130>
 7002de8:	e0bffe17 	ldw	r2,-8(fp)
 7002dec:	10800f17 	ldw	r2,60(r2)
 7002df0:	1007883a 	mov	r3,r2
 7002df4:	e0bffe17 	ldw	r2,-8(fp)
 7002df8:	10800e17 	ldw	r2,56(r2)
 7002dfc:	1885c83a 	sub	r2,r3,r2
 7002e00:	e0bffc15 	stw	r2,-16(fp)
 7002e04:	e03ff915 	stw	zero,-28(fp)
 7002e08:	e0bffe17 	ldw	r2,-8(fp)
 7002e0c:	10c00617 	ldw	r3,24(r2)
 7002e10:	e0bffc17 	ldw	r2,-16(fp)
 7002e14:	1887883a 	add	r3,r3,r2
 7002e18:	e0bffe17 	ldw	r2,-8(fp)
 7002e1c:	10c00615 	stw	r3,24(r2)
 7002e20:	d0a00117 	ldw	r2,-32764(gp)
 7002e24:	10800050 	cmplti	r2,r2,1
 7002e28:	10003a1e 	bne	r2,zero,7002f14 <file_upload+0x23c>
 7002e2c:	e0bffe17 	ldw	r2,-8(fp)
 7002e30:	1080de17 	ldw	r2,888(r2)
 7002e34:	11000017 	ldw	r4,0(r2)
 7002e38:	e0bffe17 	ldw	r2,-8(fp)
 7002e3c:	10800e17 	ldw	r2,56(r2)
 7002e40:	e0fffc17 	ldw	r3,-16(fp)
 7002e44:	100b883a 	mov	r5,r2
 7002e48:	180d883a 	mov	r6,r3
 7002e4c:	70092040 	call	7009204 <memcpy>
 7002e50:	1004c03a 	cmpne	r2,r2,zero
 7002e54:	1000031e 	bne	r2,zero,7002e64 <file_upload+0x18c>
 7002e58:	0101c1b4 	movhi	r4,1798
 7002e5c:	2123a304 	addi	r4,r4,-29044
 7002e60:	70011300 	call	7001130 <printf>
 7002e64:	e0bffe17 	ldw	r2,-8(fp)
 7002e68:	1100de17 	ldw	r4,888(r2)
 7002e6c:	e0bffe17 	ldw	r2,-8(fp)
 7002e70:	1080de17 	ldw	r2,888(r2)
 7002e74:	10c00017 	ldw	r3,0(r2)
 7002e78:	e0bffc17 	ldw	r2,-16(fp)
 7002e7c:	1885883a 	add	r2,r3,r2
 7002e80:	20800015 	stw	r2,0(r4)
 7002e84:	e0bffe17 	ldw	r2,-8(fp)
 7002e88:	1100de17 	ldw	r4,888(r2)
 7002e8c:	e0bffe17 	ldw	r2,-8(fp)
 7002e90:	11400b17 	ldw	r5,44(r2)
 7002e94:	d1a00017 	ldw	r6,-32768(gp)
 7002e98:	e0bff917 	ldw	r2,-28(fp)
 7002e9c:	d8800015 	stw	r2,0(sp)
 7002ea0:	d1e00104 	addi	r7,gp,-32764
 7002ea4:	70028800 	call	7002880 <process_uploaded_data>
 7002ea8:	e0bff917 	ldw	r2,-28(fp)
 7002eac:	1005003a 	cmpeq	r2,r2,zero
 7002eb0:	1000181e 	bne	r2,zero,7002f14 <file_upload+0x23c>
 7002eb4:	e0bffe17 	ldw	r2,-8(fp)
 7002eb8:	1080de17 	ldw	r2,888(r2)
 7002ebc:	11000217 	ldw	r4,8(r2)
 7002ec0:	e0bffe17 	ldw	r2,-8(fp)
 7002ec4:	1080de17 	ldw	r2,888(r2)
 7002ec8:	10800017 	ldw	r2,0(r2)
 7002ecc:	1007883a 	mov	r3,r2
 7002ed0:	e0bffe17 	ldw	r2,-8(fp)
 7002ed4:	1080de17 	ldw	r2,888(r2)
 7002ed8:	10800217 	ldw	r2,8(r2)
 7002edc:	1885c83a 	sub	r2,r3,r2
 7002ee0:	100d883a 	mov	r6,r2
 7002ee4:	000b883a 	mov	r5,zero
 7002ee8:	70093840 	call	7009384 <memset>
 7002eec:	e0bffe17 	ldw	r2,-8(fp)
 7002ef0:	1100de17 	ldw	r4,888(r2)
 7002ef4:	e0bffe17 	ldw	r2,-8(fp)
 7002ef8:	10c0de17 	ldw	r3,888(r2)
 7002efc:	e0bffe17 	ldw	r2,-8(fp)
 7002f00:	1080de17 	ldw	r2,888(r2)
 7002f04:	10800217 	ldw	r2,8(r2)
 7002f08:	18800115 	stw	r2,4(r3)
 7002f0c:	18800117 	ldw	r2,4(r3)
 7002f10:	20800015 	stw	r2,0(r4)
 7002f14:	e0bffe17 	ldw	r2,-8(fp)
 7002f18:	10c00e17 	ldw	r3,56(r2)
 7002f1c:	e0bffc17 	ldw	r2,-16(fp)
 7002f20:	1887883a 	add	r3,r3,r2
 7002f24:	e0bffe17 	ldw	r2,-8(fp)
 7002f28:	10c00e15 	stw	r3,56(r2)
 7002f2c:	e0bffe17 	ldw	r2,-8(fp)
 7002f30:	10800e17 	ldw	r2,56(r2)
 7002f34:	1007883a 	mov	r3,r2
 7002f38:	e0bffe17 	ldw	r2,-8(fp)
 7002f3c:	10801217 	ldw	r2,72(r2)
 7002f40:	1885c83a 	sub	r2,r3,r2
 7002f44:	e0bffb15 	stw	r2,-20(fp)
 7002f48:	e0bffe17 	ldw	r2,-8(fp)
 7002f4c:	11001217 	ldw	r4,72(r2)
 7002f50:	e0bffe17 	ldw	r2,-8(fp)
 7002f54:	11400e17 	ldw	r5,56(r2)
 7002f58:	e0bffe17 	ldw	r2,-8(fp)
 7002f5c:	10800f17 	ldw	r2,60(r2)
 7002f60:	1007883a 	mov	r3,r2
 7002f64:	e0bffe17 	ldw	r2,-8(fp)
 7002f68:	10800e17 	ldw	r2,56(r2)
 7002f6c:	1885c83a 	sub	r2,r3,r2
 7002f70:	100d883a 	mov	r6,r2
 7002f74:	70092a40 	call	70092a4 <memmove>
 7002f78:	e0bffe17 	ldw	r2,-8(fp)
 7002f7c:	10c01217 	ldw	r3,72(r2)
 7002f80:	e0bffe17 	ldw	r2,-8(fp)
 7002f84:	10c00e15 	stw	r3,56(r2)
 7002f88:	e0bffe17 	ldw	r2,-8(fp)
 7002f8c:	10c00f17 	ldw	r3,60(r2)
 7002f90:	e0bffb17 	ldw	r2,-20(fp)
 7002f94:	1887c83a 	sub	r3,r3,r2
 7002f98:	e0bffe17 	ldw	r2,-8(fp)
 7002f9c:	10c00f15 	stw	r3,60(r2)
 7002fa0:	e0bffe17 	ldw	r2,-8(fp)
 7002fa4:	10800f17 	ldw	r2,60(r2)
 7002fa8:	e0fffb17 	ldw	r3,-20(fp)
 7002fac:	1009883a 	mov	r4,r2
 7002fb0:	180d883a 	mov	r6,r3
 7002fb4:	000b883a 	mov	r5,zero
 7002fb8:	70093840 	call	7009384 <memset>
 7002fbc:	e0bffe17 	ldw	r2,-8(fp)
 7002fc0:	11000e17 	ldw	r4,56(r2)
 7002fc4:	e0bffe17 	ldw	r2,-8(fp)
 7002fc8:	1140df04 	addi	r5,r2,892
 7002fcc:	e0bffe17 	ldw	r2,-8(fp)
 7002fd0:	10800f17 	ldw	r2,60(r2)
 7002fd4:	1007883a 	mov	r3,r2
 7002fd8:	e0bffe17 	ldw	r2,-8(fp)
 7002fdc:	10800e17 	ldw	r2,56(r2)
 7002fe0:	188dc83a 	sub	r6,r3,r2
 7002fe4:	70024380 	call	7002438 <find_string_in_buf>
 7002fe8:	1004c03a 	cmpne	r2,r2,zero
 7002fec:	103f481e 	bne	r2,zero,7002d10 <file_upload+0x38>
 7002ff0:	e0bffe17 	ldw	r2,-8(fp)
 7002ff4:	10800a17 	ldw	r2,40(r2)
 7002ff8:	1004c03a 	cmpne	r2,r2,zero
 7002ffc:	10004f1e 	bne	r2,zero,700313c <file_upload+0x464>
 7003000:	e0bffe17 	ldw	r2,-8(fp)
 7003004:	1080de17 	ldw	r2,888(r2)
 7003008:	11000217 	ldw	r4,8(r2)
 700300c:	70089440 	call	7008944 <free>
 7003010:	e0bffe17 	ldw	r2,-8(fp)
 7003014:	1080de17 	ldw	r2,888(r2)
 7003018:	11000517 	ldw	r4,20(r2)
 700301c:	70089440 	call	7008944 <free>
 7003020:	e0bffe17 	ldw	r2,-8(fp)
 7003024:	1100de17 	ldw	r4,888(r2)
 7003028:	70089440 	call	7008944 <free>
 700302c:	00c1c234 	movhi	r3,1800
 7003030:	18ff3804 	addi	r3,r3,-800
 7003034:	00801904 	movi	r2,100
 7003038:	18800005 	stb	r2,0(r3)
 700303c:	00801bc4 	movi	r2,111
 7003040:	18800045 	stb	r2,1(r3)
 7003044:	00801b84 	movi	r2,110
 7003048:	18800085 	stb	r2,2(r3)
 700304c:	00801944 	movi	r2,101
 7003050:	188000c5 	stb	r2,3(r3)
 7003054:	18000105 	stb	zero,4(r3)
 7003058:	00c1c234 	movhi	r3,1800
 700305c:	18ff3804 	addi	r3,r3,-800
 7003060:	00801904 	movi	r2,100
 7003064:	18800315 	stw	r2,12(r3)
 7003068:	0081c234 	movhi	r2,1800
 700306c:	10bf3804 	addi	r2,r2,-800
 7003070:	10000415 	stw	zero,16(r2)
 7003074:	0081c1f4 	movhi	r2,1799
 7003078:	1086b684 	addi	r2,r2,6874
 700307c:	00c1c1b4 	movhi	r3,1798
 7003080:	18e3af04 	addi	r3,r3,-28996
 7003084:	1009883a 	mov	r4,r2
 7003088:	180b883a 	mov	r5,r3
 700308c:	01800584 	movi	r6,22
 7003090:	70092040 	call	7009204 <memcpy>
 7003094:	0081c1b4 	movhi	r2,1798
 7003098:	10880f04 	addi	r2,r2,8252
 700309c:	11000017 	ldw	r4,0(r2)
 70030a0:	0141c1f4 	movhi	r5,1799
 70030a4:	2946b684 	addi	r5,r5,6874
 70030a8:	701cf600 	call	701cf60 <OSMboxPost>
 70030ac:	10803fcc 	andi	r2,r2,255
 70030b0:	1004c03a 	cmpne	r2,r2,zero
 70030b4:	103ff71e 	bne	r2,zero,7003094 <file_upload+0x3bc>
 70030b8:	0009883a 	mov	r4,zero
 70030bc:	000b883a 	mov	r5,zero
 70030c0:	000d883a 	mov	r6,zero
 70030c4:	01c00584 	movi	r7,22
 70030c8:	70215e00 	call	70215e0 <OSTimeDlyHMSM>
 70030cc:	0081c1f4 	movhi	r2,1799
 70030d0:	1086b684 	addi	r2,r2,6874
 70030d4:	00c1c1b4 	movhi	r3,1798
 70030d8:	18e3b504 	addi	r3,r3,-28972
 70030dc:	1009883a 	mov	r4,r2
 70030e0:	180b883a 	mov	r5,r3
 70030e4:	01801304 	movi	r6,76
 70030e8:	70092040 	call	7009204 <memcpy>
 70030ec:	0081c1b4 	movhi	r2,1798
 70030f0:	10880f04 	addi	r2,r2,8252
 70030f4:	11000017 	ldw	r4,0(r2)
 70030f8:	0141c1f4 	movhi	r5,1799
 70030fc:	2946b684 	addi	r5,r5,6874
 7003100:	701cf600 	call	701cf60 <OSMboxPost>
 7003104:	10803fcc 	andi	r2,r2,255
 7003108:	1004c03a 	cmpne	r2,r2,zero
 700310c:	103ff71e 	bne	r2,zero,70030ec <file_upload+0x414>
 7003110:	0009883a 	mov	r4,zero
 7003114:	000b883a 	mov	r5,zero
 7003118:	000d883a 	mov	r6,zero
 700311c:	01c00584 	movi	r7,22
 7003120:	70215e00 	call	70215e0 <OSTimeDlyHMSM>
 7003124:	e13ffe17 	ldw	r4,-8(fp)
 7003128:	70049740 	call	7004974 <http_find_file>
 700312c:	e0fffe17 	ldw	r3,-8(fp)
 7003130:	00800044 	movi	r2,1
 7003134:	18800415 	stw	r2,16(r3)
 7003138:	00005b06 	br	70032a8 <file_upload+0x5d0>
 700313c:	e0bffe17 	ldw	r2,-8(fp)
 7003140:	10000015 	stw	zero,0(r2)
 7003144:	e0bffe17 	ldw	r2,-8(fp)
 7003148:	10800617 	ldw	r2,24(r2)
 700314c:	11000664 	muli	r4,r2,25
 7003150:	e0bffe17 	ldw	r2,-8(fp)
 7003154:	11400517 	ldw	r5,20(r2)
 7003158:	7006eac0 	call	7006eac <__divsi3>
 700315c:	1085883a 	add	r2,r2,r2
 7003160:	1085883a 	add	r2,r2,r2
 7003164:	e0bff815 	stw	r2,-32(fp)
 7003168:	d0e06417 	ldw	r3,-32368(gp)
 700316c:	e0bff817 	ldw	r2,-32(fp)
 7003170:	18804d0e 	bge	r3,r2,70032a8 <file_upload+0x5d0>
 7003174:	0081c1b4 	movhi	r2,1798
 7003178:	10882204 	addi	r2,r2,8328
 700317c:	10800017 	ldw	r2,0(r2)
 7003180:	1007883a 	mov	r3,r2
 7003184:	d0a06517 	ldw	r2,-32364(gp)
 7003188:	1889c83a 	sub	r4,r3,r2
 700318c:	0081c1b4 	movhi	r2,1798
 7003190:	10882104 	addi	r2,r2,8324
 7003194:	10800017 	ldw	r2,0(r2)
 7003198:	100b883a 	mov	r5,r2
 700319c:	7006f6c0 	call	7006f6c <__udivsi3>
 70031a0:	e0bffa15 	stw	r2,-24(fp)
 70031a4:	e0bffe17 	ldw	r2,-8(fp)
 70031a8:	11000617 	ldw	r4,24(r2)
 70031ac:	e17ffa17 	ldw	r5,-24(fp)
 70031b0:	7006eac0 	call	7006eac <__divsi3>
 70031b4:	e0bfff15 	stw	r2,-4(fp)
 70031b8:	e0ffff17 	ldw	r3,-4(fp)
 70031bc:	1804403a 	cmpge	r2,r3,zero
 70031c0:	1000031e 	bne	r2,zero,70031d0 <file_upload+0x4f8>
 70031c4:	e0bfff17 	ldw	r2,-4(fp)
 70031c8:	1080ffc4 	addi	r2,r2,1023
 70031cc:	e0bfff15 	stw	r2,-4(fp)
 70031d0:	e0ffff17 	ldw	r3,-4(fp)
 70031d4:	1805d2ba 	srai	r2,r3,10
 70031d8:	e0bff715 	stw	r2,-36(fp)
 70031dc:	00c1c234 	movhi	r3,1800
 70031e0:	18ff3804 	addi	r3,r3,-800
 70031e4:	00801d44 	movi	r2,117
 70031e8:	18800005 	stb	r2,0(r3)
 70031ec:	00801c04 	movi	r2,112
 70031f0:	18800045 	stb	r2,1(r3)
 70031f4:	00801b04 	movi	r2,108
 70031f8:	18800085 	stb	r2,2(r3)
 70031fc:	00801bc4 	movi	r2,111
 7003200:	188000c5 	stb	r2,3(r3)
 7003204:	00801844 	movi	r2,97
 7003208:	18800105 	stb	r2,4(r3)
 700320c:	00801904 	movi	r2,100
 7003210:	18800145 	stb	r2,5(r3)
 7003214:	00801a44 	movi	r2,105
 7003218:	18800185 	stb	r2,6(r3)
 700321c:	00801b84 	movi	r2,110
 7003220:	188001c5 	stb	r2,7(r3)
 7003224:	008019c4 	movi	r2,103
 7003228:	18800205 	stb	r2,8(r3)
 700322c:	18000245 	stb	zero,9(r3)
 7003230:	00c1c234 	movhi	r3,1800
 7003234:	18ff3804 	addi	r3,r3,-800
 7003238:	e0bff817 	ldw	r2,-32(fp)
 700323c:	18800315 	stw	r2,12(r3)
 7003240:	00c1c234 	movhi	r3,1800
 7003244:	18ff3804 	addi	r3,r3,-800
 7003248:	e0bff717 	ldw	r2,-36(fp)
 700324c:	18800415 	stw	r2,16(r3)
 7003250:	0101c1f4 	movhi	r4,1799
 7003254:	2106b684 	addi	r4,r4,6874
 7003258:	0141c1b4 	movhi	r5,1798
 700325c:	2963c804 	addi	r5,r5,-28896
 7003260:	e1bff817 	ldw	r6,-32(fp)
 7003264:	7009a640 	call	7009a64 <sprintf>
 7003268:	0081c1b4 	movhi	r2,1798
 700326c:	10880f04 	addi	r2,r2,8252
 7003270:	11000017 	ldw	r4,0(r2)
 7003274:	0141c1f4 	movhi	r5,1799
 7003278:	2946b684 	addi	r5,r5,6874
 700327c:	701cf600 	call	701cf60 <OSMboxPost>
 7003280:	10803fcc 	andi	r2,r2,255
 7003284:	1004c03a 	cmpne	r2,r2,zero
 7003288:	103ff71e 	bne	r2,zero,7003268 <file_upload+0x590>
 700328c:	0009883a 	mov	r4,zero
 7003290:	000b883a 	mov	r5,zero
 7003294:	000d883a 	mov	r6,zero
 7003298:	01c00584 	movi	r7,22
 700329c:	70215e00 	call	70215e0 <OSTimeDlyHMSM>
 70032a0:	e0bff817 	ldw	r2,-32(fp)
 70032a4:	d0a06415 	stw	r2,-32368(gp)
 70032a8:	e037883a 	mov	sp,fp
 70032ac:	dfc00317 	ldw	ra,12(sp)
 70032b0:	df000217 	ldw	fp,8(sp)
 70032b4:	dc400117 	ldw	r17,4(sp)
 70032b8:	dc000017 	ldw	r16,0(sp)
 70032bc:	dec00404 	addi	sp,sp,16
 70032c0:	f800283a 	ret

070032c4 <http_reset_connection>:
 70032c4:	defffc04 	addi	sp,sp,-16
 70032c8:	dfc00315 	stw	ra,12(sp)
 70032cc:	df000215 	stw	fp,8(sp)
 70032d0:	df000204 	addi	fp,sp,8
 70032d4:	e13ffe15 	stw	r4,-8(fp)
 70032d8:	e17fff15 	stw	r5,-4(fp)
 70032dc:	e0bffe17 	ldw	r2,-8(fp)
 70032e0:	1009883a 	mov	r4,r2
 70032e4:	0188fd04 	movi	r6,9204
 70032e8:	000b883a 	mov	r5,zero
 70032ec:	70093840 	call	7009384 <memset>
 70032f0:	e0fffe17 	ldw	r3,-8(fp)
 70032f4:	00bfffc4 	movi	r2,-1
 70032f8:	18800315 	stw	r2,12(r3)
 70032fc:	e0bffe17 	ldw	r2,-8(fp)
 7003300:	10000015 	stw	zero,0(r2)
 7003304:	e0fffe17 	ldw	r3,-8(fp)
 7003308:	00800504 	movi	r2,20
 700330c:	18800715 	stw	r2,28(r3)
 7003310:	e0bfff17 	ldw	r2,-4(fp)
 7003314:	1004937a 	slli	r2,r2,13
 7003318:	1007883a 	mov	r3,r2
 700331c:	0081c1f4 	movhi	r2,1799
 7003320:	108ef704 	addi	r2,r2,15324
 7003324:	1885883a 	add	r2,r3,r2
 7003328:	1007883a 	mov	r3,r2
 700332c:	e0bffe17 	ldw	r2,-8(fp)
 7003330:	10c01215 	stw	r3,72(r2)
 7003334:	e0bfff17 	ldw	r2,-4(fp)
 7003338:	1004937a 	slli	r2,r2,13
 700333c:	1007883a 	mov	r3,r2
 7003340:	0081c234 	movhi	r2,1800
 7003344:	10bf3d04 	addi	r2,r2,-780
 7003348:	1885883a 	add	r2,r3,r2
 700334c:	1007883a 	mov	r3,r2
 7003350:	e0bffe17 	ldw	r2,-8(fp)
 7003354:	10c01315 	stw	r3,76(r2)
 7003358:	e0bfff17 	ldw	r2,-4(fp)
 700335c:	1004937a 	slli	r2,r2,13
 7003360:	1007883a 	mov	r3,r2
 7003364:	0081c1f4 	movhi	r2,1799
 7003368:	108ef704 	addi	r2,r2,15324
 700336c:	1885883a 	add	r2,r3,r2
 7003370:	1007883a 	mov	r3,r2
 7003374:	e0bffe17 	ldw	r2,-8(fp)
 7003378:	10c00f15 	stw	r3,60(r2)
 700337c:	e0bfff17 	ldw	r2,-4(fp)
 7003380:	1004937a 	slli	r2,r2,13
 7003384:	1007883a 	mov	r3,r2
 7003388:	0081c1f4 	movhi	r2,1799
 700338c:	108ef704 	addi	r2,r2,15324
 7003390:	1885883a 	add	r2,r3,r2
 7003394:	1007883a 	mov	r3,r2
 7003398:	e0bffe17 	ldw	r2,-8(fp)
 700339c:	10c00e15 	stw	r3,56(r2)
 70033a0:	e037883a 	mov	sp,fp
 70033a4:	dfc00117 	ldw	ra,4(sp)
 70033a8:	df000017 	ldw	fp,0(sp)
 70033ac:	dec00204 	addi	sp,sp,8
 70033b0:	f800283a 	ret

070033b4 <http_manage_connection>:
 70033b4:	defffa04 	addi	sp,sp,-24
 70033b8:	dfc00515 	stw	ra,20(sp)
 70033bc:	df000415 	stw	fp,16(sp)
 70033c0:	df000404 	addi	fp,sp,16
 70033c4:	e13ffd15 	stw	r4,-12(fp)
 70033c8:	e17ffe15 	stw	r5,-8(fp)
 70033cc:	e03ffc15 	stw	zero,-16(fp)
 70033d0:	e0bffd17 	ldw	r2,-12(fp)
 70033d4:	10800017 	ldw	r2,0(r2)
 70033d8:	1005003a 	cmpeq	r2,r2,zero
 70033dc:	1000081e 	bne	r2,zero,7003400 <http_manage_connection+0x4c>
 70033e0:	e0bffd17 	ldw	r2,-12(fp)
 70033e4:	10800017 	ldw	r2,0(r2)
 70033e8:	10800060 	cmpeqi	r2,r2,1
 70033ec:	1000041e 	bne	r2,zero,7003400 <http_manage_connection+0x4c>
 70033f0:	e0bffd17 	ldw	r2,-12(fp)
 70033f4:	10800017 	ldw	r2,0(r2)
 70033f8:	10800098 	cmpnei	r2,r2,2
 70033fc:	1000111e 	bne	r2,zero,7003444 <http_manage_connection+0x90>
 7003400:	0081c1b4 	movhi	r2,1798
 7003404:	10882204 	addi	r2,r2,8328
 7003408:	10800017 	ldw	r2,0(r2)
 700340c:	e0bffc15 	stw	r2,-16(fp)
 7003410:	e0bffd17 	ldw	r2,-12(fp)
 7003414:	10c00d17 	ldw	r3,52(r2)
 7003418:	e0bffc17 	ldw	r2,-16(fp)
 700341c:	10c5c83a 	sub	r2,r2,r3
 7003420:	1084e230 	cmpltui	r2,r2,5000
 7003424:	1000071e 	bne	r2,zero,7003444 <http_manage_connection+0x90>
 7003428:	e0bffd17 	ldw	r2,-12(fp)
 700342c:	10800a17 	ldw	r2,40(r2)
 7003430:	10800060 	cmpeqi	r2,r2,1
 7003434:	1000031e 	bne	r2,zero,7003444 <http_manage_connection+0x90>
 7003438:	e0fffd17 	ldw	r3,-12(fp)
 700343c:	00800104 	movi	r2,4
 7003440:	18800015 	stw	r2,0(r3)
 7003444:	e0bffd17 	ldw	r2,-12(fp)
 7003448:	10800017 	ldw	r2,0(r2)
 700344c:	108000d8 	cmpnei	r2,r2,3
 7003450:	1000201e 	bne	r2,zero,70034d4 <http_manage_connection+0x120>
 7003454:	e0bffd17 	ldw	r2,-12(fp)
 7003458:	10800c17 	ldw	r2,48(r2)
 700345c:	1005003a 	cmpeq	r2,r2,zero
 7003460:	1000031e 	bne	r2,zero,7003470 <http_manage_connection+0xbc>
 7003464:	e0bffd17 	ldw	r2,-12(fp)
 7003468:	11000c17 	ldw	r4,48(r2)
 700346c:	70071740 	call	7007174 <fclose>
 7003470:	e0bffd17 	ldw	r2,-12(fp)
 7003474:	10800717 	ldw	r2,28(r2)
 7003478:	10ffffc4 	addi	r3,r2,-1
 700347c:	e0bffd17 	ldw	r2,-12(fp)
 7003480:	10c00715 	stw	r3,28(r2)
 7003484:	e0bffd17 	ldw	r2,-12(fp)
 7003488:	10000915 	stw	zero,36(r2)
 700348c:	e0bffd17 	ldw	r2,-12(fp)
 7003490:	10800717 	ldw	r2,28(r2)
 7003494:	1004c03a 	cmpne	r2,r2,zero
 7003498:	1000031e 	bne	r2,zero,70034a8 <http_manage_connection+0xf4>
 700349c:	e0fffd17 	ldw	r3,-12(fp)
 70034a0:	00800044 	movi	r2,1
 70034a4:	18800415 	stw	r2,16(r3)
 70034a8:	e0bffd17 	ldw	r2,-12(fp)
 70034ac:	10800417 	ldw	r2,16(r2)
 70034b0:	1005003a 	cmpeq	r2,r2,zero
 70034b4:	1000031e 	bne	r2,zero,70034c4 <http_manage_connection+0x110>
 70034b8:	00800144 	movi	r2,5
 70034bc:	e0bfff15 	stw	r2,-4(fp)
 70034c0:	00000106 	br	70034c8 <http_manage_connection+0x114>
 70034c4:	e03fff15 	stw	zero,-4(fp)
 70034c8:	e0bffd17 	ldw	r2,-12(fp)
 70034cc:	e0ffff17 	ldw	r3,-4(fp)
 70034d0:	10c00015 	stw	r3,0(r2)
 70034d4:	e0bffd17 	ldw	r2,-12(fp)
 70034d8:	10800017 	ldw	r2,0(r2)
 70034dc:	10800118 	cmpnei	r2,r2,4
 70034e0:	1000101e 	bne	r2,zero,7003524 <http_manage_connection+0x170>
 70034e4:	e0bffd17 	ldw	r2,-12(fp)
 70034e8:	10800c17 	ldw	r2,48(r2)
 70034ec:	1005003a 	cmpeq	r2,r2,zero
 70034f0:	1000031e 	bne	r2,zero,7003500 <http_manage_connection+0x14c>
 70034f4:	e0bffd17 	ldw	r2,-12(fp)
 70034f8:	11000c17 	ldw	r4,48(r2)
 70034fc:	70071740 	call	7007174 <fclose>
 7003500:	e0bffd17 	ldw	r2,-12(fp)
 7003504:	10801217 	ldw	r2,72(r2)
 7003508:	1009883a 	mov	r4,r2
 700350c:	01880004 	movi	r6,8192
 7003510:	000b883a 	mov	r5,zero
 7003514:	70093840 	call	7009384 <memset>
 7003518:	e0fffd17 	ldw	r3,-12(fp)
 700351c:	00800144 	movi	r2,5
 7003520:	18800015 	stw	r2,0(r3)
 7003524:	e0bffd17 	ldw	r2,-12(fp)
 7003528:	10800017 	ldw	r2,0(r2)
 700352c:	10800158 	cmpnei	r2,r2,5
 7003530:	1000061e 	bne	r2,zero,700354c <http_manage_connection+0x198>
 7003534:	e0bffd17 	ldw	r2,-12(fp)
 7003538:	11000317 	ldw	r4,12(r2)
 700353c:	702dca40 	call	702dca4 <close>
 7003540:	e13ffd17 	ldw	r4,-12(fp)
 7003544:	e17ffe17 	ldw	r5,-8(fp)
 7003548:	70032c40 	call	70032c4 <http_reset_connection>
 700354c:	e037883a 	mov	sp,fp
 7003550:	dfc00117 	ldw	ra,4(sp)
 7003554:	df000017 	ldw	fp,0(sp)
 7003558:	dec00204 	addi	sp,sp,8
 700355c:	f800283a 	ret

07003560 <http_handle_accept>:
 7003560:	defff304 	addi	sp,sp,-52
 7003564:	dfc00c15 	stw	ra,48(sp)
 7003568:	df000b15 	stw	fp,44(sp)
 700356c:	df000b04 	addi	fp,sp,44
 7003570:	e13ffd15 	stw	r4,-12(fp)
 7003574:	e17ffe15 	stw	r5,-8(fp)
 7003578:	e03ff715 	stw	zero,-36(fp)
 700357c:	00800404 	movi	r2,16
 7003580:	e0bff815 	stw	r2,-32(fp)
 7003584:	e03ff615 	stw	zero,-40(fp)
 7003588:	00000b06 	br	70035b8 <http_handle_accept+0x58>
 700358c:	e0bff617 	ldw	r2,-40(fp)
 7003590:	1088fd24 	muli	r2,r2,9204
 7003594:	1007883a 	mov	r3,r2
 7003598:	e0bffe17 	ldw	r2,-8(fp)
 700359c:	1885883a 	add	r2,r3,r2
 70035a0:	10800317 	ldw	r2,12(r2)
 70035a4:	10bfffe0 	cmpeqi	r2,r2,-1
 70035a8:	1000061e 	bne	r2,zero,70035c4 <http_handle_accept+0x64>
 70035ac:	e0bff617 	ldw	r2,-40(fp)
 70035b0:	10800044 	addi	r2,r2,1
 70035b4:	e0bff615 	stw	r2,-40(fp)
 70035b8:	e0bff617 	ldw	r2,-40(fp)
 70035bc:	10800190 	cmplti	r2,r2,6
 70035c0:	103ff21e 	bne	r2,zero,700358c <http_handle_accept+0x2c>
 70035c4:	e0bff617 	ldw	r2,-40(fp)
 70035c8:	10800198 	cmpnei	r2,r2,6
 70035cc:	1000031e 	bne	r2,zero,70035dc <http_handle_accept+0x7c>
 70035d0:	00bfffc4 	movi	r2,-1
 70035d4:	e0bfff15 	stw	r2,-4(fp)
 70035d8:	00002506 	br	7003670 <http_handle_accept+0x110>
 70035dc:	e17ff904 	addi	r5,fp,-28
 70035e0:	e1bff804 	addi	r6,fp,-32
 70035e4:	e13ffd17 	ldw	r4,-12(fp)
 70035e8:	70302bc0 	call	70302bc <bsd_accept>
 70035ec:	e0bff515 	stw	r2,-44(fp)
 70035f0:	e0bff517 	ldw	r2,-44(fp)
 70035f4:	1004403a 	cmpge	r2,r2,zero
 70035f8:	10000b1e 	bne	r2,zero,7003628 <http_handle_accept+0xc8>
 70035fc:	0081c1b4 	movhi	r2,1798
 7003600:	1087ba04 	addi	r2,r2,7912
 7003604:	10800017 	ldw	r2,0(r2)
 7003608:	11000317 	ldw	r4,12(r2)
 700360c:	0141c1b4 	movhi	r5,1798
 7003610:	2963d904 	addi	r5,r5,-28828
 7003614:	e1bff517 	ldw	r6,-44(fp)
 7003618:	70012440 	call	7001244 <fprintf>
 700361c:	e0bff517 	ldw	r2,-44(fp)
 7003620:	e0bfff15 	stw	r2,-4(fp)
 7003624:	00001206 	br	7003670 <http_handle_accept+0x110>
 7003628:	e0bff617 	ldw	r2,-40(fp)
 700362c:	1088fd24 	muli	r2,r2,9204
 7003630:	1007883a 	mov	r3,r2
 7003634:	e0bffe17 	ldw	r2,-8(fp)
 7003638:	1887883a 	add	r3,r3,r2
 700363c:	e0bff517 	ldw	r2,-44(fp)
 7003640:	18800315 	stw	r2,12(r3)
 7003644:	e0bff617 	ldw	r2,-40(fp)
 7003648:	1088fd24 	muli	r2,r2,9204
 700364c:	1007883a 	mov	r3,r2
 7003650:	e0bffe17 	ldw	r2,-8(fp)
 7003654:	1887883a 	add	r3,r3,r2
 7003658:	0081c1b4 	movhi	r2,1798
 700365c:	10882204 	addi	r2,r2,8328
 7003660:	10800017 	ldw	r2,0(r2)
 7003664:	18800d15 	stw	r2,52(r3)
 7003668:	e0bff717 	ldw	r2,-36(fp)
 700366c:	e0bfff15 	stw	r2,-4(fp)
 7003670:	e0bfff17 	ldw	r2,-4(fp)
 7003674:	e037883a 	mov	sp,fp
 7003678:	dfc00117 	ldw	ra,4(sp)
 700367c:	df000017 	ldw	fp,0(sp)
 7003680:	dec00204 	addi	sp,sp,8
 7003684:	f800283a 	ret

07003688 <http_read_line>:
 7003688:	defffb04 	addi	sp,sp,-20
 700368c:	dfc00415 	stw	ra,16(sp)
 7003690:	df000315 	stw	fp,12(sp)
 7003694:	df000304 	addi	fp,sp,12
 7003698:	e13fff15 	stw	r4,-4(fp)
 700369c:	e03ffd15 	stw	zero,-12(fp)
 70036a0:	e0bfff17 	ldw	r2,-4(fp)
 70036a4:	10800e17 	ldw	r2,56(r2)
 70036a8:	1009883a 	mov	r4,r2
 70036ac:	01400284 	movi	r5,10
 70036b0:	7009e480 	call	7009e48 <strchr>
 70036b4:	e0bffe15 	stw	r2,-8(fp)
 70036b8:	e0bffe17 	ldw	r2,-8(fp)
 70036bc:	1004c03a 	cmpne	r2,r2,zero
 70036c0:	1000031e 	bne	r2,zero,70036d0 <http_read_line+0x48>
 70036c4:	00bfffc4 	movi	r2,-1
 70036c8:	e0bffd15 	stw	r2,-12(fp)
 70036cc:	00001306 	br	700371c <http_read_line+0x94>
 70036d0:	e0bfff17 	ldw	r2,-4(fp)
 70036d4:	10c01217 	ldw	r3,72(r2)
 70036d8:	e0bffe17 	ldw	r2,-8(fp)
 70036dc:	1880092e 	bgeu	r3,r2,7003704 <http_read_line+0x7c>
 70036e0:	e0bffe17 	ldw	r2,-8(fp)
 70036e4:	10bfffc4 	addi	r2,r2,-1
 70036e8:	10800003 	ldbu	r2,0(r2)
 70036ec:	10803fcc 	andi	r2,r2,255
 70036f0:	10800358 	cmpnei	r2,r2,13
 70036f4:	1000031e 	bne	r2,zero,7003704 <http_read_line+0x7c>
 70036f8:	e0bffe17 	ldw	r2,-8(fp)
 70036fc:	10bfffc4 	addi	r2,r2,-1
 7003700:	10000005 	stb	zero,0(r2)
 7003704:	e0bffe17 	ldw	r2,-8(fp)
 7003708:	10000005 	stb	zero,0(r2)
 700370c:	e0bffe17 	ldw	r2,-8(fp)
 7003710:	10c00044 	addi	r3,r2,1
 7003714:	e0bfff17 	ldw	r2,-4(fp)
 7003718:	10c00e15 	stw	r3,56(r2)
 700371c:	e0bffd17 	ldw	r2,-12(fp)
 7003720:	e037883a 	mov	sp,fp
 7003724:	dfc00117 	ldw	ra,4(sp)
 7003728:	df000017 	ldw	fp,0(sp)
 700372c:	dec00204 	addi	sp,sp,8
 7003730:	f800283a 	ret

07003734 <http_parse_type_boundary>:
 7003734:	deffb804 	addi	sp,sp,-288
 7003738:	dfc04715 	stw	ra,284(sp)
 700373c:	df004615 	stw	fp,280(sp)
 7003740:	df004604 	addi	fp,sp,280
 7003744:	e13ffc15 	stw	r4,-16(fp)
 7003748:	e17ffd15 	stw	r5,-12(fp)
 700374c:	e1bffe15 	stw	r6,-8(fp)
 7003750:	e0bffe17 	ldw	r2,-8(fp)
 7003754:	10804050 	cmplti	r2,r2,257
 7003758:	1000061e 	bne	r2,zero,7003774 <http_parse_type_boundary+0x40>
 700375c:	0101c1b4 	movhi	r4,1798
 7003760:	2123e404 	addi	r4,r4,-28784
 7003764:	70097a00 	call	70097a0 <puts>
 7003768:	00bfffc4 	movi	r2,-1
 700376c:	e0bfff15 	stw	r2,-4(fp)
 7003770:	00002806 	br	7003814 <http_parse_type_boundary+0xe0>
 7003774:	e1bffe17 	ldw	r6,-8(fp)
 7003778:	e13fbc04 	addi	r4,fp,-272
 700377c:	e17ffd17 	ldw	r5,-12(fp)
 7003780:	700a8480 	call	700a848 <strncpy>
 7003784:	e0bffe17 	ldw	r2,-8(fp)
 7003788:	1007883a 	mov	r3,r2
 700378c:	e0bfbc04 	addi	r2,fp,-272
 7003790:	10c5883a 	add	r2,r2,r3
 7003794:	10000005 	stb	zero,0(r2)
 7003798:	e13fbc04 	addi	r4,fp,-272
 700379c:	01400ec4 	movi	r5,59
 70037a0:	7009e480 	call	7009e48 <strchr>
 70037a4:	e0bfbb15 	stw	r2,-276(fp)
 70037a8:	e0bfbb17 	ldw	r2,-276(fp)
 70037ac:	1005003a 	cmpeq	r2,r2,zero
 70037b0:	1000121e 	bne	r2,zero,70037fc <http_parse_type_boundary+0xc8>
 70037b4:	e13fbc04 	addi	r4,fp,-272
 70037b8:	01400f44 	movi	r5,61
 70037bc:	7009e480 	call	7009e48 <strchr>
 70037c0:	10800084 	addi	r2,r2,2
 70037c4:	e0bfba15 	stw	r2,-280(fp)
 70037c8:	e0bffc17 	ldw	r2,-16(fp)
 70037cc:	1080df04 	addi	r2,r2,892
 70037d0:	1009883a 	mov	r4,r2
 70037d4:	e17fba17 	ldw	r5,-280(fp)
 70037d8:	7009fe40 	call	7009fe4 <strcpy>
 70037dc:	e0bfbb17 	ldw	r2,-276(fp)
 70037e0:	10000005 	stb	zero,0(r2)
 70037e4:	e0bffc17 	ldw	r2,-16(fp)
 70037e8:	1080d404 	addi	r2,r2,848
 70037ec:	1009883a 	mov	r4,r2
 70037f0:	e17fbc04 	addi	r5,fp,-272
 70037f4:	7009fe40 	call	7009fe4 <strcpy>
 70037f8:	00000506 	br	7003810 <http_parse_type_boundary+0xdc>
 70037fc:	e0bffc17 	ldw	r2,-16(fp)
 7003800:	1080d404 	addi	r2,r2,848
 7003804:	1009883a 	mov	r4,r2
 7003808:	e17fbc04 	addi	r5,fp,-272
 700380c:	7009fe40 	call	7009fe4 <strcpy>
 7003810:	e03fff15 	stw	zero,-4(fp)
 7003814:	e0bfff17 	ldw	r2,-4(fp)
 7003818:	e037883a 	mov	sp,fp
 700381c:	dfc00117 	ldw	ra,4(sp)
 7003820:	df000017 	ldw	fp,0(sp)
 7003824:	dec00204 	addi	sp,sp,8
 7003828:	f800283a 	ret

0700382c <http_process_headers>:
 700382c:	defff404 	addi	sp,sp,-48
 7003830:	dfc00b15 	stw	ra,44(sp)
 7003834:	df000a15 	stw	fp,40(sp)
 7003838:	df000a04 	addi	fp,sp,40
 700383c:	e13ffe15 	stw	r4,-8(fp)
 7003840:	e0bffe17 	ldw	r2,-8(fp)
 7003844:	10800e17 	ldw	r2,56(r2)
 7003848:	e0bffa15 	stw	r2,-24(fp)
 700384c:	e0bffe17 	ldw	r2,-8(fp)
 7003850:	10800e17 	ldw	r2,56(r2)
 7003854:	1009883a 	mov	r4,r2
 7003858:	0141c1b4 	movhi	r5,1798
 700385c:	29636c04 	addi	r5,r5,-29264
 7003860:	01800084 	movi	r6,2
 7003864:	700a7580 	call	700a758 <strncmp>
 7003868:	1004c03a 	cmpne	r2,r2,zero
 700386c:	1000031e 	bne	r2,zero,700387c <http_process_headers+0x50>
 7003870:	00bfffc4 	movi	r2,-1
 7003874:	e0bfff15 	stw	r2,-4(fp)
 7003878:	00006f06 	br	7003a38 <http_process_headers+0x20c>
 700387c:	e0bffe17 	ldw	r2,-8(fp)
 7003880:	10800e17 	ldw	r2,56(r2)
 7003884:	1009883a 	mov	r4,r2
 7003888:	01400e84 	movi	r5,58
 700388c:	7009e480 	call	7009e48 <strchr>
 7003890:	e0bff915 	stw	r2,-28(fp)
 7003894:	e0bff917 	ldw	r2,-28(fp)
 7003898:	1005003a 	cmpeq	r2,r2,zero
 700389c:	1000181e 	bne	r2,zero,7003900 <http_process_headers+0xd4>
 70038a0:	e0bff917 	ldw	r2,-28(fp)
 70038a4:	10c00044 	addi	r3,r2,1
 70038a8:	e0bffe17 	ldw	r2,-8(fp)
 70038ac:	10c00e15 	stw	r3,56(r2)
 70038b0:	e0bffe17 	ldw	r2,-8(fp)
 70038b4:	10800e17 	ldw	r2,56(r2)
 70038b8:	1007883a 	mov	r3,r2
 70038bc:	e0bffe17 	ldw	r2,-8(fp)
 70038c0:	10801217 	ldw	r2,72(r2)
 70038c4:	1887c83a 	sub	r3,r3,r2
 70038c8:	e0bffe17 	ldw	r2,-8(fp)
 70038cc:	10c00615 	stw	r3,24(r2)
 70038d0:	e13ffa17 	ldw	r4,-24(fp)
 70038d4:	0141c1b4 	movhi	r5,1798
 70038d8:	2963f504 	addi	r5,r5,-28716
 70038dc:	700b0980 	call	700b098 <strtok>
 70038e0:	e0bffd15 	stw	r2,-12(fp)
 70038e4:	e13ffd17 	ldw	r4,-12(fp)
 70038e8:	0141c1b4 	movhi	r5,1798
 70038ec:	2963f604 	addi	r5,r5,-28712
 70038f0:	7009d980 	call	7009d98 <strcasecmp>
 70038f4:	1005003a 	cmpeq	r2,r2,zero
 70038f8:	1000041e 	bne	r2,zero,700390c <http_process_headers+0xe0>
 70038fc:	00001a06 	br	7003968 <http_process_headers+0x13c>
 7003900:	00bfffc4 	movi	r2,-1
 7003904:	e0bfff15 	stw	r2,-4(fp)
 7003908:	00004b06 	br	7003a38 <http_process_headers+0x20c>
 700390c:	e0bffd17 	ldw	r2,-12(fp)
 7003910:	10800444 	addi	r2,r2,17
 7003914:	10800003 	ldbu	r2,0(r2)
 7003918:	e0bff805 	stb	r2,-32(fp)
 700391c:	e0bffd17 	ldw	r2,-12(fp)
 7003920:	10800444 	addi	r2,r2,17
 7003924:	10000005 	stb	zero,0(r2)
 7003928:	e0bffd17 	ldw	r2,-12(fp)
 700392c:	10800304 	addi	r2,r2,12
 7003930:	1009883a 	mov	r4,r2
 7003934:	0141c1b4 	movhi	r5,1798
 7003938:	2963f904 	addi	r5,r5,-28700
 700393c:	7009d980 	call	7009d98 <strcasecmp>
 7003940:	1004c03a 	cmpne	r2,r2,zero
 7003944:	1000031e 	bne	r2,zero,7003954 <http_process_headers+0x128>
 7003948:	e0fffe17 	ldw	r3,-8(fp)
 700394c:	00800044 	movi	r2,1
 7003950:	18800415 	stw	r2,16(r3)
 7003954:	e0bffd17 	ldw	r2,-12(fp)
 7003958:	10c00444 	addi	r3,r2,17
 700395c:	e0bff803 	ldbu	r2,-32(fp)
 7003960:	18800005 	stb	r2,0(r3)
 7003964:	00003306 	br	7003a34 <http_process_headers+0x208>
 7003968:	e13ffd17 	ldw	r4,-12(fp)
 700396c:	0141c1b4 	movhi	r5,1798
 7003970:	2963fb04 	addi	r5,r5,-28692
 7003974:	7009d980 	call	7009d98 <strcasecmp>
 7003978:	1004c03a 	cmpne	r2,r2,zero
 700397c:	1000081e 	bne	r2,zero,70039a0 <http_process_headers+0x174>
 7003980:	e0bffd17 	ldw	r2,-12(fp)
 7003984:	10800404 	addi	r2,r2,16
 7003988:	1009883a 	mov	r4,r2
 700398c:	7006f880 	call	7006f88 <atoi>
 7003990:	1007883a 	mov	r3,r2
 7003994:	e0bffe17 	ldw	r2,-8(fp)
 7003998:	10c00515 	stw	r3,20(r2)
 700399c:	00002506 	br	7003a34 <http_process_headers+0x208>
 70039a0:	e13ffd17 	ldw	r4,-12(fp)
 70039a4:	0141c1b4 	movhi	r5,1798
 70039a8:	2963ff04 	addi	r5,r5,-28676
 70039ac:	7009d980 	call	7009d98 <strcasecmp>
 70039b0:	1004c03a 	cmpne	r2,r2,zero
 70039b4:	10001f1e 	bne	r2,zero,7003a34 <http_process_headers+0x208>
 70039b8:	e0bffe17 	ldw	r2,-8(fp)
 70039bc:	10800e17 	ldw	r2,56(r2)
 70039c0:	1009883a 	mov	r4,r2
 70039c4:	01400344 	movi	r5,13
 70039c8:	7009e480 	call	7009e48 <strchr>
 70039cc:	e0bffc15 	stw	r2,-16(fp)
 70039d0:	e13ffd17 	ldw	r4,-12(fp)
 70039d4:	700a6e40 	call	700a6e4 <strlen>
 70039d8:	e0bff615 	stw	r2,-40(fp)
 70039dc:	e13ffc17 	ldw	r4,-16(fp)
 70039e0:	e0bff617 	ldw	r2,-40(fp)
 70039e4:	1007883a 	mov	r3,r2
 70039e8:	e0bffd17 	ldw	r2,-12(fp)
 70039ec:	1885883a 	add	r2,r3,r2
 70039f0:	2085c83a 	sub	r2,r4,r2
 70039f4:	10bfff84 	addi	r2,r2,-2
 70039f8:	e0bff715 	stw	r2,-36(fp)
 70039fc:	e0bff717 	ldw	r2,-36(fp)
 7003a00:	1007883a 	mov	r3,r2
 7003a04:	e0bffc17 	ldw	r2,-16(fp)
 7003a08:	10c5c83a 	sub	r2,r2,r3
 7003a0c:	e0bffb15 	stw	r2,-20(fp)
 7003a10:	e17ffb17 	ldw	r5,-20(fp)
 7003a14:	e13ffe17 	ldw	r4,-8(fp)
 7003a18:	e1bff717 	ldw	r6,-36(fp)
 7003a1c:	70037340 	call	7003734 <http_parse_type_boundary>
 7003a20:	1004403a 	cmpge	r2,r2,zero
 7003a24:	1000031e 	bne	r2,zero,7003a34 <http_process_headers+0x208>
 7003a28:	00bfffc4 	movi	r2,-1
 7003a2c:	e0bfff15 	stw	r2,-4(fp)
 7003a30:	00000106 	br	7003a38 <http_process_headers+0x20c>
 7003a34:	e03fff15 	stw	zero,-4(fp)
 7003a38:	e0bfff17 	ldw	r2,-4(fp)
 7003a3c:	e037883a 	mov	sp,fp
 7003a40:	dfc00117 	ldw	ra,4(sp)
 7003a44:	df000017 	ldw	fp,0(sp)
 7003a48:	dec00204 	addi	sp,sp,8
 7003a4c:	f800283a 	ret

07003a50 <http_process_request>:
 7003a50:	defff904 	addi	sp,sp,-28
 7003a54:	dfc00615 	stw	ra,24(sp)
 7003a58:	df000515 	stw	fp,20(sp)
 7003a5c:	df000504 	addi	fp,sp,20
 7003a60:	e13ffe15 	stw	r4,-8(fp)
 7003a64:	e03ffd15 	stw	zero,-12(fp)
 7003a68:	e03ffc15 	stw	zero,-16(fp)
 7003a6c:	e03ffb15 	stw	zero,-20(fp)
 7003a70:	e0bffe17 	ldw	r2,-8(fp)
 7003a74:	10800e17 	ldw	r2,56(r2)
 7003a78:	1009883a 	mov	r4,r2
 7003a7c:	0141c1b4 	movhi	r5,1798
 7003a80:	29640304 	addi	r5,r5,-28660
 7003a84:	700aa380 	call	700aa38 <strstr>
 7003a88:	e0bffb15 	stw	r2,-20(fp)
 7003a8c:	e0bffb17 	ldw	r2,-20(fp)
 7003a90:	1005003a 	cmpeq	r2,r2,zero
 7003a94:	1000071e 	bne	r2,zero,7003ab4 <http_process_request+0x64>
 7003a98:	e0fffe17 	ldw	r3,-8(fp)
 7003a9c:	00800044 	movi	r2,1
 7003aa0:	18800115 	stw	r2,4(r3)
 7003aa4:	e0fffe17 	ldw	r3,-8(fp)
 7003aa8:	e0bffb17 	ldw	r2,-20(fp)
 7003aac:	18800e15 	stw	r2,56(r3)
 7003ab0:	00001f06 	br	7003b30 <http_process_request+0xe0>
 7003ab4:	e0bffe17 	ldw	r2,-8(fp)
 7003ab8:	10800e17 	ldw	r2,56(r2)
 7003abc:	1009883a 	mov	r4,r2
 7003ac0:	0141c1b4 	movhi	r5,1798
 7003ac4:	29640404 	addi	r5,r5,-28656
 7003ac8:	700aa380 	call	700aa38 <strstr>
 7003acc:	e0bffb15 	stw	r2,-20(fp)
 7003ad0:	e0bffb17 	ldw	r2,-20(fp)
 7003ad4:	1005003a 	cmpeq	r2,r2,zero
 7003ad8:	1000071e 	bne	r2,zero,7003af8 <http_process_request+0xa8>
 7003adc:	e0fffe17 	ldw	r3,-8(fp)
 7003ae0:	00800084 	movi	r2,2
 7003ae4:	18800115 	stw	r2,4(r3)
 7003ae8:	e0fffe17 	ldw	r3,-8(fp)
 7003aec:	e0bffb17 	ldw	r2,-20(fp)
 7003af0:	18800e15 	stw	r2,56(r3)
 7003af4:	00000e06 	br	7003b30 <http_process_request+0xe0>
 7003af8:	0081c1b4 	movhi	r2,1798
 7003afc:	1087ba04 	addi	r2,r2,7912
 7003b00:	10800017 	ldw	r2,0(r2)
 7003b04:	11c00317 	ldw	r7,12(r2)
 7003b08:	0101c1b4 	movhi	r4,1798
 7003b0c:	21240604 	addi	r4,r4,-28648
 7003b10:	01400044 	movi	r5,1
 7003b14:	01800784 	movi	r6,30
 7003b18:	70086480 	call	7008648 <fwrite>
 7003b1c:	e0bffe17 	ldw	r2,-8(fp)
 7003b20:	10000115 	stw	zero,4(r2)
 7003b24:	00bfffc4 	movi	r2,-1
 7003b28:	e0bfff15 	stw	r2,-4(fp)
 7003b2c:	00007a06 	br	7003d18 <http_process_request+0x2c8>
 7003b30:	e0bffe17 	ldw	r2,-8(fp)
 7003b34:	10800e17 	ldw	r2,56(r2)
 7003b38:	1009883a 	mov	r4,r2
 7003b3c:	01400804 	movi	r5,32
 7003b40:	7009e480 	call	7009e48 <strchr>
 7003b44:	1007883a 	mov	r3,r2
 7003b48:	e0bffe17 	ldw	r2,-8(fp)
 7003b4c:	10c00e15 	stw	r3,56(r2)
 7003b50:	e0bffe17 	ldw	r2,-8(fp)
 7003b54:	10800e17 	ldw	r2,56(r2)
 7003b58:	1005003a 	cmpeq	r2,r2,zero
 7003b5c:	1000151e 	bne	r2,zero,7003bb4 <http_process_request+0x164>
 7003b60:	e0bffe17 	ldw	r2,-8(fp)
 7003b64:	10800e17 	ldw	r2,56(r2)
 7003b68:	10c00044 	addi	r3,r2,1
 7003b6c:	e0bffe17 	ldw	r2,-8(fp)
 7003b70:	10c00e15 	stw	r3,56(r2)
 7003b74:	e0bffe17 	ldw	r2,-8(fp)
 7003b78:	10800e17 	ldw	r2,56(r2)
 7003b7c:	e0bffd15 	stw	r2,-12(fp)
 7003b80:	e0bffe17 	ldw	r2,-8(fp)
 7003b84:	10800e17 	ldw	r2,56(r2)
 7003b88:	1009883a 	mov	r4,r2
 7003b8c:	01400804 	movi	r5,32
 7003b90:	7009e480 	call	7009e48 <strchr>
 7003b94:	1007883a 	mov	r3,r2
 7003b98:	e0bffe17 	ldw	r2,-8(fp)
 7003b9c:	10c00e15 	stw	r3,56(r2)
 7003ba0:	e0bffe17 	ldw	r2,-8(fp)
 7003ba4:	10800e17 	ldw	r2,56(r2)
 7003ba8:	1004c03a 	cmpne	r2,r2,zero
 7003bac:	1000041e 	bne	r2,zero,7003bc0 <http_process_request+0x170>
 7003bb0:	00001206 	br	7003bfc <http_process_request+0x1ac>
 7003bb4:	00bfffc4 	movi	r2,-1
 7003bb8:	e0bfff15 	stw	r2,-4(fp)
 7003bbc:	00005606 	br	7003d18 <http_process_request+0x2c8>
 7003bc0:	e0bffe17 	ldw	r2,-8(fp)
 7003bc4:	10800e17 	ldw	r2,56(r2)
 7003bc8:	10000005 	stb	zero,0(r2)
 7003bcc:	e0bffe17 	ldw	r2,-8(fp)
 7003bd0:	10800e17 	ldw	r2,56(r2)
 7003bd4:	10c00044 	addi	r3,r2,1
 7003bd8:	e0bffe17 	ldw	r2,-8(fp)
 7003bdc:	10c00e15 	stw	r3,56(r2)
 7003be0:	e0bffe17 	ldw	r2,-8(fp)
 7003be4:	10800e17 	ldw	r2,56(r2)
 7003be8:	e0bffc15 	stw	r2,-16(fp)
 7003bec:	e0bffc17 	ldw	r2,-16(fp)
 7003bf0:	1005003a 	cmpeq	r2,r2,zero
 7003bf4:	10000b1e 	bne	r2,zero,7003c24 <http_process_request+0x1d4>
 7003bf8:	00000306 	br	7003c08 <http_process_request+0x1b8>
 7003bfc:	00bfffc4 	movi	r2,-1
 7003c00:	e0bfff15 	stw	r2,-4(fp)
 7003c04:	00004406 	br	7003d18 <http_process_request+0x2c8>
 7003c08:	e13ffc17 	ldw	r4,-16(fp)
 7003c0c:	0141c1b4 	movhi	r5,1798
 7003c10:	29640e04 	addi	r5,r5,-28616
 7003c14:	01800144 	movi	r6,5
 7003c18:	700a7580 	call	700a758 <strncmp>
 7003c1c:	1005003a 	cmpeq	r2,r2,zero
 7003c20:	1000031e 	bne	r2,zero,7003c30 <http_process_request+0x1e0>
 7003c24:	00bfffc4 	movi	r2,-1
 7003c28:	e0bfff15 	stw	r2,-4(fp)
 7003c2c:	00003a06 	br	7003d18 <http_process_request+0x2c8>
 7003c30:	e0bffc17 	ldw	r2,-16(fp)
 7003c34:	10800144 	addi	r2,r2,5
 7003c38:	10800003 	ldbu	r2,0(r2)
 7003c3c:	10803fcc 	andi	r2,r2,255
 7003c40:	1007883a 	mov	r3,r2
 7003c44:	0081c1b4 	movhi	r2,1798
 7003c48:	1087b904 	addi	r2,r2,7908
 7003c4c:	10800017 	ldw	r2,0(r2)
 7003c50:	1885883a 	add	r2,r3,r2
 7003c54:	10800003 	ldbu	r2,0(r2)
 7003c58:	10803fcc 	andi	r2,r2,255
 7003c5c:	1080010c 	andi	r2,r2,4
 7003c60:	1005003a 	cmpeq	r2,r2,zero
 7003c64:	1000141e 	bne	r2,zero,7003cb8 <http_process_request+0x268>
 7003c68:	e0bffc17 	ldw	r2,-16(fp)
 7003c6c:	10800184 	addi	r2,r2,6
 7003c70:	10800003 	ldbu	r2,0(r2)
 7003c74:	10803fcc 	andi	r2,r2,255
 7003c78:	10800b98 	cmpnei	r2,r2,46
 7003c7c:	10000e1e 	bne	r2,zero,7003cb8 <http_process_request+0x268>
 7003c80:	e0bffc17 	ldw	r2,-16(fp)
 7003c84:	108001c4 	addi	r2,r2,7
 7003c88:	10800003 	ldbu	r2,0(r2)
 7003c8c:	10803fcc 	andi	r2,r2,255
 7003c90:	1007883a 	mov	r3,r2
 7003c94:	0081c1b4 	movhi	r2,1798
 7003c98:	1087b904 	addi	r2,r2,7908
 7003c9c:	10800017 	ldw	r2,0(r2)
 7003ca0:	1885883a 	add	r2,r3,r2
 7003ca4:	10800003 	ldbu	r2,0(r2)
 7003ca8:	10803fcc 	andi	r2,r2,255
 7003cac:	1080010c 	andi	r2,r2,4
 7003cb0:	1004c03a 	cmpne	r2,r2,zero
 7003cb4:	1000031e 	bne	r2,zero,7003cc4 <http_process_request+0x274>
 7003cb8:	00bfffc4 	movi	r2,-1
 7003cbc:	e0bfff15 	stw	r2,-4(fp)
 7003cc0:	00001506 	br	7003d18 <http_process_request+0x2c8>
 7003cc4:	e0bffc17 	ldw	r2,-16(fp)
 7003cc8:	10800144 	addi	r2,r2,5
 7003ccc:	10800003 	ldbu	r2,0(r2)
 7003cd0:	10803fcc 	andi	r2,r2,255
 7003cd4:	10c002a4 	muli	r3,r2,10
 7003cd8:	e0bffc17 	ldw	r2,-16(fp)
 7003cdc:	108001c4 	addi	r2,r2,7
 7003ce0:	10800003 	ldbu	r2,0(r2)
 7003ce4:	10803fcc 	andi	r2,r2,255
 7003ce8:	1885883a 	add	r2,r3,r2
 7003cec:	108086c8 	cmpgei	r2,r2,539
 7003cf0:	1000031e 	bne	r2,zero,7003d00 <http_process_request+0x2b0>
 7003cf4:	e0fffe17 	ldw	r3,-8(fp)
 7003cf8:	00800044 	movi	r2,1
 7003cfc:	18800415 	stw	r2,16(r3)
 7003d00:	e0bffe17 	ldw	r2,-8(fp)
 7003d04:	1080f304 	addi	r2,r2,972
 7003d08:	1009883a 	mov	r4,r2
 7003d0c:	e17ffd17 	ldw	r5,-12(fp)
 7003d10:	7009fe40 	call	7009fe4 <strcpy>
 7003d14:	e03fff15 	stw	zero,-4(fp)
 7003d18:	e0bfff17 	ldw	r2,-4(fp)
 7003d1c:	e037883a 	mov	sp,fp
 7003d20:	dfc00117 	ldw	ra,4(sp)
 7003d24:	df000017 	ldw	fp,0(sp)
 7003d28:	dec00204 	addi	sp,sp,8
 7003d2c:	f800283a 	ret

07003d30 <send_progress>:
 7003d30:	defff704 	addi	sp,sp,-36
 7003d34:	dfc00815 	stw	ra,32(sp)
 7003d38:	df000715 	stw	fp,28(sp)
 7003d3c:	df000704 	addi	fp,sp,28
 7003d40:	e13fff15 	stw	r4,-4(fp)
 7003d44:	e0bfff17 	ldw	r2,-4(fp)
 7003d48:	10801317 	ldw	r2,76(r2)
 7003d4c:	e0bffe15 	stw	r2,-8(fp)
 7003d50:	01008004 	movi	r4,512
 7003d54:	70089580 	call	7008958 <malloc>
 7003d58:	e0bffd15 	stw	r2,-12(fp)
 7003d5c:	e0bffd17 	ldw	r2,-12(fp)
 7003d60:	e0bffc15 	stw	r2,-16(fp)
 7003d64:	e0fffe17 	ldw	r3,-8(fp)
 7003d68:	00801204 	movi	r2,72
 7003d6c:	18800005 	stb	r2,0(r3)
 7003d70:	00801504 	movi	r2,84
 7003d74:	18800045 	stb	r2,1(r3)
 7003d78:	00801504 	movi	r2,84
 7003d7c:	18800085 	stb	r2,2(r3)
 7003d80:	00801404 	movi	r2,80
 7003d84:	188000c5 	stb	r2,3(r3)
 7003d88:	00800bc4 	movi	r2,47
 7003d8c:	18800105 	stb	r2,4(r3)
 7003d90:	00800c44 	movi	r2,49
 7003d94:	18800145 	stb	r2,5(r3)
 7003d98:	00800b84 	movi	r2,46
 7003d9c:	18800185 	stb	r2,6(r3)
 7003da0:	00800c44 	movi	r2,49
 7003da4:	188001c5 	stb	r2,7(r3)
 7003da8:	00800804 	movi	r2,32
 7003dac:	18800205 	stb	r2,8(r3)
 7003db0:	18000245 	stb	zero,9(r3)
 7003db4:	e0bffe17 	ldw	r2,-8(fp)
 7003db8:	10800244 	addi	r2,r2,9
 7003dbc:	e0bffe15 	stw	r2,-8(fp)
 7003dc0:	e0fffe17 	ldw	r3,-8(fp)
 7003dc4:	00800c84 	movi	r2,50
 7003dc8:	18800005 	stb	r2,0(r3)
 7003dcc:	00800c04 	movi	r2,48
 7003dd0:	18800045 	stb	r2,1(r3)
 7003dd4:	00800c04 	movi	r2,48
 7003dd8:	18800085 	stb	r2,2(r3)
 7003ddc:	00800804 	movi	r2,32
 7003de0:	188000c5 	stb	r2,3(r3)
 7003de4:	008013c4 	movi	r2,79
 7003de8:	18800105 	stb	r2,4(r3)
 7003dec:	008012c4 	movi	r2,75
 7003df0:	18800145 	stb	r2,5(r3)
 7003df4:	00800344 	movi	r2,13
 7003df8:	18800185 	stb	r2,6(r3)
 7003dfc:	00800284 	movi	r2,10
 7003e00:	188001c5 	stb	r2,7(r3)
 7003e04:	18000205 	stb	zero,8(r3)
 7003e08:	e0bffe17 	ldw	r2,-8(fp)
 7003e0c:	10800204 	addi	r2,r2,8
 7003e10:	e0bffe15 	stw	r2,-8(fp)
 7003e14:	e0bffe17 	ldw	r2,-8(fp)
 7003e18:	00c1c1b4 	movhi	r3,1798
 7003e1c:	18e41004 	addi	r3,r3,-28608
 7003e20:	1009883a 	mov	r4,r2
 7003e24:	180b883a 	mov	r5,r3
 7003e28:	018006c4 	movi	r6,27
 7003e2c:	70092040 	call	7009204 <memcpy>
 7003e30:	e0bffe17 	ldw	r2,-8(fp)
 7003e34:	10800684 	addi	r2,r2,26
 7003e38:	e0bffe15 	stw	r2,-8(fp)
 7003e3c:	e0bffe17 	ldw	r2,-8(fp)
 7003e40:	00c1c1b4 	movhi	r3,1798
 7003e44:	18e41704 	addi	r3,r3,-28580
 7003e48:	1009883a 	mov	r4,r2
 7003e4c:	180b883a 	mov	r5,r3
 7003e50:	01801404 	movi	r6,80
 7003e54:	70092040 	call	7009204 <memcpy>
 7003e58:	e0bffe17 	ldw	r2,-8(fp)
 7003e5c:	108013c4 	addi	r2,r2,79
 7003e60:	e0bffe15 	stw	r2,-8(fp)
 7003e64:	e13ffd17 	ldw	r4,-12(fp)
 7003e68:	0081c234 	movhi	r2,1800
 7003e6c:	10bf3804 	addi	r2,r2,-800
 7003e70:	11c00317 	ldw	r7,12(r2)
 7003e74:	0081c234 	movhi	r2,1800
 7003e78:	10bf3804 	addi	r2,r2,-800
 7003e7c:	10800417 	ldw	r2,16(r2)
 7003e80:	d8800015 	stw	r2,0(sp)
 7003e84:	0141c1b4 	movhi	r5,1798
 7003e88:	29642b04 	addi	r5,r5,-28500
 7003e8c:	0181c234 	movhi	r6,1800
 7003e90:	31bf3804 	addi	r6,r6,-800
 7003e94:	7009a640 	call	7009a64 <sprintf>
 7003e98:	1007883a 	mov	r3,r2
 7003e9c:	e0bffc17 	ldw	r2,-16(fp)
 7003ea0:	10c5883a 	add	r2,r2,r3
 7003ea4:	e0bffc15 	stw	r2,-16(fp)
 7003ea8:	e13ffd17 	ldw	r4,-12(fp)
 7003eac:	700a6e40 	call	700a6e4 <strlen>
 7003eb0:	e0bffb15 	stw	r2,-20(fp)
 7003eb4:	e0bffe17 	ldw	r2,-8(fp)
 7003eb8:	00c1c1b4 	movhi	r3,1798
 7003ebc:	18e43c04 	addi	r3,r3,-28432
 7003ec0:	1009883a 	mov	r4,r2
 7003ec4:	180b883a 	mov	r5,r3
 7003ec8:	01800444 	movi	r6,17
 7003ecc:	70092040 	call	7009204 <memcpy>
 7003ed0:	e0bffe17 	ldw	r2,-8(fp)
 7003ed4:	10800404 	addi	r2,r2,16
 7003ed8:	e0bffe15 	stw	r2,-8(fp)
 7003edc:	e13ffe17 	ldw	r4,-8(fp)
 7003ee0:	0141c1b4 	movhi	r5,1798
 7003ee4:	29644104 	addi	r5,r5,-28412
 7003ee8:	e1bffb17 	ldw	r6,-20(fp)
 7003eec:	7009a640 	call	7009a64 <sprintf>
 7003ef0:	1007883a 	mov	r3,r2
 7003ef4:	e0bffe17 	ldw	r2,-8(fp)
 7003ef8:	10c5883a 	add	r2,r2,r3
 7003efc:	e0bffe15 	stw	r2,-8(fp)
 7003f00:	e0bffe17 	ldw	r2,-8(fp)
 7003f04:	00c1c1b4 	movhi	r3,1798
 7003f08:	18e44304 	addi	r3,r3,-28404
 7003f0c:	1009883a 	mov	r4,r2
 7003f10:	180b883a 	mov	r5,r3
 7003f14:	01800504 	movi	r6,20
 7003f18:	70092040 	call	7009204 <memcpy>
 7003f1c:	e0bffe17 	ldw	r2,-8(fp)
 7003f20:	108004c4 	addi	r2,r2,19
 7003f24:	e0bffe15 	stw	r2,-8(fp)
 7003f28:	e0fffe17 	ldw	r3,-8(fp)
 7003f2c:	00800344 	movi	r2,13
 7003f30:	18800005 	stb	r2,0(r3)
 7003f34:	00800284 	movi	r2,10
 7003f38:	18800045 	stb	r2,1(r3)
 7003f3c:	18000085 	stb	zero,2(r3)
 7003f40:	e0bffe17 	ldw	r2,-8(fp)
 7003f44:	10800084 	addi	r2,r2,2
 7003f48:	e0bffe15 	stw	r2,-8(fp)
 7003f4c:	e13ffe17 	ldw	r4,-8(fp)
 7003f50:	0141c1b4 	movhi	r5,1798
 7003f54:	29644804 	addi	r5,r5,-28384
 7003f58:	e1bffd17 	ldw	r6,-12(fp)
 7003f5c:	7009a640 	call	7009a64 <sprintf>
 7003f60:	1007883a 	mov	r3,r2
 7003f64:	e0bffe17 	ldw	r2,-8(fp)
 7003f68:	10c5883a 	add	r2,r2,r3
 7003f6c:	e0bffe15 	stw	r2,-8(fp)
 7003f70:	e13ffd17 	ldw	r4,-12(fp)
 7003f74:	70089440 	call	7008944 <free>
 7003f78:	e0bfff17 	ldw	r2,-4(fp)
 7003f7c:	11000317 	ldw	r4,12(r2)
 7003f80:	e0bfff17 	ldw	r2,-4(fp)
 7003f84:	10801317 	ldw	r2,76(r2)
 7003f88:	100b883a 	mov	r5,r2
 7003f8c:	e0fffe17 	ldw	r3,-8(fp)
 7003f90:	e0bfff17 	ldw	r2,-4(fp)
 7003f94:	10801317 	ldw	r2,76(r2)
 7003f98:	188dc83a 	sub	r6,r3,r2
 7003f9c:	000f883a 	mov	r7,zero
 7003fa0:	703b3cc0 	call	703b3cc <t_send>
 7003fa4:	e0bffa15 	stw	r2,-24(fp)
 7003fa8:	e0bffa17 	ldw	r2,-24(fp)
 7003fac:	1004403a 	cmpge	r2,r2,zero
 7003fb0:	10000b1e 	bne	r2,zero,7003fe0 <send_progress+0x2b0>
 7003fb4:	0081c1b4 	movhi	r2,1798
 7003fb8:	1087ba04 	addi	r2,r2,7912
 7003fbc:	10800017 	ldw	r2,0(r2)
 7003fc0:	11000317 	ldw	r4,12(r2)
 7003fc4:	0141c1b4 	movhi	r5,1798
 7003fc8:	29644904 	addi	r5,r5,-28380
 7003fcc:	e1bffa17 	ldw	r6,-24(fp)
 7003fd0:	70012440 	call	7001244 <fprintf>
 7003fd4:	e0ffff17 	ldw	r3,-4(fp)
 7003fd8:	00800104 	movi	r2,4
 7003fdc:	18800015 	stw	r2,0(r3)
 7003fe0:	e037883a 	mov	sp,fp
 7003fe4:	dfc00117 	ldw	ra,4(sp)
 7003fe8:	df000017 	ldw	fp,0(sp)
 7003fec:	dec00204 	addi	sp,sp,8
 7003ff0:	f800283a 	ret

07003ff4 <http_send_file_chunk>:
 7003ff4:	defff504 	addi	sp,sp,-44
 7003ff8:	dfc00a15 	stw	ra,40(sp)
 7003ffc:	df000915 	stw	fp,36(sp)
 7004000:	df000904 	addi	fp,sp,36
 7004004:	e13ffc15 	stw	r4,-16(fp)
 7004008:	e03ffb15 	stw	zero,-20(fp)
 700400c:	e03ffa15 	stw	zero,-24(fp)
 7004010:	e03ff915 	stw	zero,-28(fp)
 7004014:	e03ff815 	stw	zero,-32(fp)
 7004018:	e0bffc17 	ldw	r2,-16(fp)
 700401c:	10c00917 	ldw	r3,36(r2)
 7004020:	e0bffc17 	ldw	r2,-16(fp)
 7004024:	10800817 	ldw	r2,32(r2)
 7004028:	18804d0e 	bge	r3,r2,7004160 <http_send_file_chunk+0x16c>
 700402c:	e0bffc17 	ldw	r2,-16(fp)
 7004030:	10801317 	ldw	r2,76(r2)
 7004034:	e0bfff15 	stw	r2,-4(fp)
 7004038:	e0bffc17 	ldw	r2,-16(fp)
 700403c:	10c00817 	ldw	r3,32(r2)
 7004040:	e0bffc17 	ldw	r2,-16(fp)
 7004044:	10800917 	ldw	r2,36(r2)
 7004048:	1885c83a 	sub	r2,r3,r2
 700404c:	e0bffe15 	stw	r2,-8(fp)
 7004050:	e0fffe17 	ldw	r3,-8(fp)
 7004054:	18880050 	cmplti	r2,r3,8193
 7004058:	1000021e 	bne	r2,zero,7004064 <http_send_file_chunk+0x70>
 700405c:	00880004 	movi	r2,8192
 7004060:	e0bffe15 	stw	r2,-8(fp)
 7004064:	e1bffe17 	ldw	r6,-8(fp)
 7004068:	e0bffc17 	ldw	r2,-16(fp)
 700406c:	11c00c17 	ldw	r7,48(r2)
 7004070:	e13fff17 	ldw	r4,-4(fp)
 7004074:	01400044 	movi	r5,1
 7004078:	70079cc0 	call	70079cc <fread>
 700407c:	e0bff915 	stw	r2,-28(fp)
 7004080:	e0bffc17 	ldw	r2,-16(fp)
 7004084:	10801317 	ldw	r2,76(r2)
 7004088:	e0bff715 	stw	r2,-36(fp)
 700408c:	00003106 	br	7004154 <http_send_file_chunk+0x160>
 7004090:	e0bffc17 	ldw	r2,-16(fp)
 7004094:	11000317 	ldw	r4,12(r2)
 7004098:	e17ff717 	ldw	r5,-36(fp)
 700409c:	e1bff917 	ldw	r6,-28(fp)
 70040a0:	000f883a 	mov	r7,zero
 70040a4:	703b3cc0 	call	703b3cc <t_send>
 70040a8:	e0bff815 	stw	r2,-32(fp)
 70040ac:	e0bff817 	ldw	r2,-32(fp)
 70040b0:	1004403a 	cmpge	r2,r2,zero
 70040b4:	10000e1e 	bne	r2,zero,70040f0 <http_send_file_chunk+0xfc>
 70040b8:	0081c1b4 	movhi	r2,1798
 70040bc:	1087ba04 	addi	r2,r2,7912
 70040c0:	10800017 	ldw	r2,0(r2)
 70040c4:	11000317 	ldw	r4,12(r2)
 70040c8:	0141c1b4 	movhi	r5,1798
 70040cc:	29645404 	addi	r5,r5,-28336
 70040d0:	e1bff817 	ldw	r6,-32(fp)
 70040d4:	70012440 	call	7001244 <fprintf>
 70040d8:	e0fffc17 	ldw	r3,-16(fp)
 70040dc:	00800104 	movi	r2,4
 70040e0:	18800015 	stw	r2,0(r3)
 70040e4:	e0fff817 	ldw	r3,-32(fp)
 70040e8:	e0fffd15 	stw	r3,-12(fp)
 70040ec:	00002606 	br	7004188 <http_send_file_chunk+0x194>
 70040f0:	0081c1b4 	movhi	r2,1798
 70040f4:	10882204 	addi	r2,r2,8328
 70040f8:	10800017 	ldw	r2,0(r2)
 70040fc:	1007883a 	mov	r3,r2
 7004100:	e0bffc17 	ldw	r2,-16(fp)
 7004104:	10c00d15 	stw	r3,52(r2)
 7004108:	e0fffb17 	ldw	r3,-20(fp)
 700410c:	e0bff817 	ldw	r2,-32(fp)
 7004110:	1885883a 	add	r2,r3,r2
 7004114:	e0bffb15 	stw	r2,-20(fp)
 7004118:	e0bffc17 	ldw	r2,-16(fp)
 700411c:	10c00917 	ldw	r3,36(r2)
 7004120:	e0bff817 	ldw	r2,-32(fp)
 7004124:	1887883a 	add	r3,r3,r2
 7004128:	e0bffc17 	ldw	r2,-16(fp)
 700412c:	10c00915 	stw	r3,36(r2)
 7004130:	e0bff817 	ldw	r2,-32(fp)
 7004134:	1007883a 	mov	r3,r2
 7004138:	e0bff717 	ldw	r2,-36(fp)
 700413c:	10c5883a 	add	r2,r2,r3
 7004140:	e0bff715 	stw	r2,-36(fp)
 7004144:	e0fff917 	ldw	r3,-28(fp)
 7004148:	e0bff817 	ldw	r2,-32(fp)
 700414c:	1885c83a 	sub	r2,r3,r2
 7004150:	e0bff915 	stw	r2,-28(fp)
 7004154:	e0fffb17 	ldw	r3,-20(fp)
 7004158:	e0bff917 	ldw	r2,-28(fp)
 700415c:	18bfcc16 	blt	r3,r2,7004090 <http_send_file_chunk+0x9c>
 7004160:	e0bffc17 	ldw	r2,-16(fp)
 7004164:	10c00917 	ldw	r3,36(r2)
 7004168:	e0bffc17 	ldw	r2,-16(fp)
 700416c:	10800817 	ldw	r2,32(r2)
 7004170:	18800316 	blt	r3,r2,7004180 <http_send_file_chunk+0x18c>
 7004174:	e0fffc17 	ldw	r3,-16(fp)
 7004178:	008000c4 	movi	r2,3
 700417c:	18800015 	stw	r2,0(r3)
 7004180:	e0bffa17 	ldw	r2,-24(fp)
 7004184:	e0bffd15 	stw	r2,-12(fp)
 7004188:	e0bffd17 	ldw	r2,-12(fp)
 700418c:	e037883a 	mov	sp,fp
 7004190:	dfc00117 	ldw	ra,4(sp)
 7004194:	df000017 	ldw	fp,0(sp)
 7004198:	dec00204 	addi	sp,sp,8
 700419c:	f800283a 	ret

070041a0 <http_send_file_header>:
 70041a0:	defff304 	addi	sp,sp,-52
 70041a4:	dfc00c15 	stw	ra,48(sp)
 70041a8:	df000b15 	stw	fp,44(sp)
 70041ac:	df000b04 	addi	fp,sp,44
 70041b0:	e13ffb15 	stw	r4,-20(fp)
 70041b4:	e17ffc15 	stw	r5,-16(fp)
 70041b8:	e1bffd15 	stw	r6,-12(fp)
 70041bc:	e03ff815 	stw	zero,-32(fp)
 70041c0:	e03ff715 	stw	zero,-36(fp)
 70041c4:	e0bffb17 	ldw	r2,-20(fp)
 70041c8:	10801317 	ldw	r2,76(r2)
 70041cc:	e0bff615 	stw	r2,-40(fp)
 70041d0:	e13ffc17 	ldw	r4,-16(fp)
 70041d4:	01400b84 	movi	r5,46
 70041d8:	7009e480 	call	7009e48 <strchr>
 70041dc:	e0bff515 	stw	r2,-44(fp)
 70041e0:	e0fff617 	ldw	r3,-40(fp)
 70041e4:	00801204 	movi	r2,72
 70041e8:	18800005 	stb	r2,0(r3)
 70041ec:	00801504 	movi	r2,84
 70041f0:	18800045 	stb	r2,1(r3)
 70041f4:	00801504 	movi	r2,84
 70041f8:	18800085 	stb	r2,2(r3)
 70041fc:	00801404 	movi	r2,80
 7004200:	188000c5 	stb	r2,3(r3)
 7004204:	00800bc4 	movi	r2,47
 7004208:	18800105 	stb	r2,4(r3)
 700420c:	00800c44 	movi	r2,49
 7004210:	18800145 	stb	r2,5(r3)
 7004214:	00800b84 	movi	r2,46
 7004218:	18800185 	stb	r2,6(r3)
 700421c:	00800c44 	movi	r2,49
 7004220:	188001c5 	stb	r2,7(r3)
 7004224:	00800804 	movi	r2,32
 7004228:	18800205 	stb	r2,8(r3)
 700422c:	18000245 	stb	zero,9(r3)
 7004230:	e0bff617 	ldw	r2,-40(fp)
 7004234:	10800244 	addi	r2,r2,9
 7004238:	e0bff615 	stw	r2,-40(fp)
 700423c:	e0bffd17 	ldw	r2,-12(fp)
 7004240:	e0bfff15 	stw	r2,-4(fp)
 7004244:	e0ffff17 	ldw	r3,-4(fp)
 7004248:	18803220 	cmpeqi	r2,r3,200
 700424c:	1000041e 	bne	r2,zero,7004260 <http_send_file_header+0xc0>
 7004250:	e0ffff17 	ldw	r3,-4(fp)
 7004254:	18806520 	cmpeqi	r2,r3,404
 7004258:	1000171e 	bne	r2,zero,70042b8 <http_send_file_header+0x118>
 700425c:	00002106 	br	70042e4 <http_send_file_header+0x144>
 7004260:	e0fff617 	ldw	r3,-40(fp)
 7004264:	00800c84 	movi	r2,50
 7004268:	18800005 	stb	r2,0(r3)
 700426c:	00800c04 	movi	r2,48
 7004270:	18800045 	stb	r2,1(r3)
 7004274:	00800c04 	movi	r2,48
 7004278:	18800085 	stb	r2,2(r3)
 700427c:	00800804 	movi	r2,32
 7004280:	188000c5 	stb	r2,3(r3)
 7004284:	008013c4 	movi	r2,79
 7004288:	18800105 	stb	r2,4(r3)
 700428c:	008012c4 	movi	r2,75
 7004290:	18800145 	stb	r2,5(r3)
 7004294:	00800344 	movi	r2,13
 7004298:	18800185 	stb	r2,6(r3)
 700429c:	00800284 	movi	r2,10
 70042a0:	188001c5 	stb	r2,7(r3)
 70042a4:	18000205 	stb	zero,8(r3)
 70042a8:	e0bff617 	ldw	r2,-40(fp)
 70042ac:	10800204 	addi	r2,r2,8
 70042b0:	e0bff615 	stw	r2,-40(fp)
 70042b4:	00001906 	br	700431c <http_send_file_header+0x17c>
 70042b8:	e0bff617 	ldw	r2,-40(fp)
 70042bc:	00c1c1b4 	movhi	r3,1798
 70042c0:	18e45e04 	addi	r3,r3,-28296
 70042c4:	1009883a 	mov	r4,r2
 70042c8:	180b883a 	mov	r5,r3
 70042cc:	01800404 	movi	r6,16
 70042d0:	70092040 	call	7009204 <memcpy>
 70042d4:	e0bff617 	ldw	r2,-40(fp)
 70042d8:	108003c4 	addi	r2,r2,15
 70042dc:	e0bff615 	stw	r2,-40(fp)
 70042e0:	00000e06 	br	700431c <http_send_file_header+0x17c>
 70042e4:	0081c1b4 	movhi	r2,1798
 70042e8:	1087ba04 	addi	r2,r2,7912
 70042ec:	10800017 	ldw	r2,0(r2)
 70042f0:	11000317 	ldw	r4,12(r2)
 70042f4:	0141c1b4 	movhi	r5,1798
 70042f8:	29646204 	addi	r5,r5,-28280
 70042fc:	e1bffd17 	ldw	r6,-12(fp)
 7004300:	70012440 	call	7001244 <fprintf>
 7004304:	e0fffb17 	ldw	r3,-20(fp)
 7004308:	00800104 	movi	r2,4
 700430c:	18800015 	stw	r2,0(r3)
 7004310:	00bfffc4 	movi	r2,-1
 7004314:	e0bffe15 	stw	r2,-8(fp)
 7004318:	00019006 	br	700495c <http_send_file_header+0x7bc>
 700431c:	e0bff617 	ldw	r2,-40(fp)
 7004320:	00c1c1b4 	movhi	r3,1798
 7004324:	18e46e04 	addi	r3,r3,-28232
 7004328:	1009883a 	mov	r4,r2
 700432c:	180b883a 	mov	r5,r3
 7004330:	018003c4 	movi	r6,15
 7004334:	70092040 	call	7009204 <memcpy>
 7004338:	e0bff617 	ldw	r2,-40(fp)
 700433c:	10800384 	addi	r2,r2,14
 7004340:	e0bff615 	stw	r2,-40(fp)
 7004344:	e13ff517 	ldw	r4,-44(fp)
 7004348:	0141c1b4 	movhi	r5,1798
 700434c:	29647204 	addi	r5,r5,-28216
 7004350:	7009d980 	call	7009d98 <strcasecmp>
 7004354:	1004c03a 	cmpne	r2,r2,zero
 7004358:	10001c1e 	bne	r2,zero,70043cc <http_send_file_header+0x22c>
 700435c:	e0fff617 	ldw	r3,-40(fp)
 7004360:	00801d04 	movi	r2,116
 7004364:	18800005 	stb	r2,0(r3)
 7004368:	00801944 	movi	r2,101
 700436c:	18800045 	stb	r2,1(r3)
 7004370:	00801e04 	movi	r2,120
 7004374:	18800085 	stb	r2,2(r3)
 7004378:	00801d04 	movi	r2,116
 700437c:	188000c5 	stb	r2,3(r3)
 7004380:	00800bc4 	movi	r2,47
 7004384:	18800105 	stb	r2,4(r3)
 7004388:	00801a04 	movi	r2,104
 700438c:	18800145 	stb	r2,5(r3)
 7004390:	00801d04 	movi	r2,116
 7004394:	18800185 	stb	r2,6(r3)
 7004398:	00801b44 	movi	r2,109
 700439c:	188001c5 	stb	r2,7(r3)
 70043a0:	00801b04 	movi	r2,108
 70043a4:	18800205 	stb	r2,8(r3)
 70043a8:	00800344 	movi	r2,13
 70043ac:	18800245 	stb	r2,9(r3)
 70043b0:	00800284 	movi	r2,10
 70043b4:	18800285 	stb	r2,10(r3)
 70043b8:	180002c5 	stb	zero,11(r3)
 70043bc:	e0bff617 	ldw	r2,-40(fp)
 70043c0:	108002c4 	addi	r2,r2,11
 70043c4:	e0bff615 	stw	r2,-40(fp)
 70043c8:	0000eb06 	br	7004778 <http_send_file_header+0x5d8>
 70043cc:	e13ff517 	ldw	r4,-44(fp)
 70043d0:	0141c1b4 	movhi	r5,1798
 70043d4:	29647404 	addi	r5,r5,-28208
 70043d8:	7009d980 	call	7009d98 <strcasecmp>
 70043dc:	1004c03a 	cmpne	r2,r2,zero
 70043e0:	10001e1e 	bne	r2,zero,700445c <http_send_file_header+0x2bc>
 70043e4:	e0fff617 	ldw	r3,-40(fp)
 70043e8:	00801d04 	movi	r2,116
 70043ec:	18800005 	stb	r2,0(r3)
 70043f0:	00801944 	movi	r2,101
 70043f4:	18800045 	stb	r2,1(r3)
 70043f8:	00801e04 	movi	r2,120
 70043fc:	18800085 	stb	r2,2(r3)
 7004400:	00801d04 	movi	r2,116
 7004404:	188000c5 	stb	r2,3(r3)
 7004408:	00800bc4 	movi	r2,47
 700440c:	18800105 	stb	r2,4(r3)
 7004410:	00801c04 	movi	r2,112
 7004414:	18800145 	stb	r2,5(r3)
 7004418:	00801b04 	movi	r2,108
 700441c:	18800185 	stb	r2,6(r3)
 7004420:	00801844 	movi	r2,97
 7004424:	188001c5 	stb	r2,7(r3)
 7004428:	00801a44 	movi	r2,105
 700442c:	18800205 	stb	r2,8(r3)
 7004430:	00801b84 	movi	r2,110
 7004434:	18800245 	stb	r2,9(r3)
 7004438:	00800344 	movi	r2,13
 700443c:	18800285 	stb	r2,10(r3)
 7004440:	00800284 	movi	r2,10
 7004444:	188002c5 	stb	r2,11(r3)
 7004448:	18000305 	stb	zero,12(r3)
 700444c:	e0bff617 	ldw	r2,-40(fp)
 7004450:	10800304 	addi	r2,r2,12
 7004454:	e0bff615 	stw	r2,-40(fp)
 7004458:	0000c706 	br	7004778 <http_send_file_header+0x5d8>
 700445c:	e13ff517 	ldw	r4,-44(fp)
 7004460:	0141c1b4 	movhi	r5,1798
 7004464:	29647604 	addi	r5,r5,-28200
 7004468:	7009d980 	call	7009d98 <strcasecmp>
 700446c:	1004c03a 	cmpne	r2,r2,zero
 7004470:	10001c1e 	bne	r2,zero,70044e4 <http_send_file_header+0x344>
 7004474:	e0fff617 	ldw	r3,-40(fp)
 7004478:	00801a44 	movi	r2,105
 700447c:	18800005 	stb	r2,0(r3)
 7004480:	00801b44 	movi	r2,109
 7004484:	18800045 	stb	r2,1(r3)
 7004488:	00801844 	movi	r2,97
 700448c:	18800085 	stb	r2,2(r3)
 7004490:	008019c4 	movi	r2,103
 7004494:	188000c5 	stb	r2,3(r3)
 7004498:	00801944 	movi	r2,101
 700449c:	18800105 	stb	r2,4(r3)
 70044a0:	00800bc4 	movi	r2,47
 70044a4:	18800145 	stb	r2,5(r3)
 70044a8:	00801a84 	movi	r2,106
 70044ac:	18800185 	stb	r2,6(r3)
 70044b0:	00801c04 	movi	r2,112
 70044b4:	188001c5 	stb	r2,7(r3)
 70044b8:	008019c4 	movi	r2,103
 70044bc:	18800205 	stb	r2,8(r3)
 70044c0:	00800344 	movi	r2,13
 70044c4:	18800245 	stb	r2,9(r3)
 70044c8:	00800284 	movi	r2,10
 70044cc:	18800285 	stb	r2,10(r3)
 70044d0:	180002c5 	stb	zero,11(r3)
 70044d4:	e0bff617 	ldw	r2,-40(fp)
 70044d8:	108002c4 	addi	r2,r2,11
 70044dc:	e0bff615 	stw	r2,-40(fp)
 70044e0:	0000a506 	br	7004778 <http_send_file_header+0x5d8>
 70044e4:	e13ff517 	ldw	r4,-44(fp)
 70044e8:	0141c1b4 	movhi	r5,1798
 70044ec:	29647804 	addi	r5,r5,-28192
 70044f0:	7009d980 	call	7009d98 <strcasecmp>
 70044f4:	1004c03a 	cmpne	r2,r2,zero
 70044f8:	10001c1e 	bne	r2,zero,700456c <http_send_file_header+0x3cc>
 70044fc:	e0fff617 	ldw	r3,-40(fp)
 7004500:	00801a44 	movi	r2,105
 7004504:	18800005 	stb	r2,0(r3)
 7004508:	00801b44 	movi	r2,109
 700450c:	18800045 	stb	r2,1(r3)
 7004510:	00801844 	movi	r2,97
 7004514:	18800085 	stb	r2,2(r3)
 7004518:	008019c4 	movi	r2,103
 700451c:	188000c5 	stb	r2,3(r3)
 7004520:	00801944 	movi	r2,101
 7004524:	18800105 	stb	r2,4(r3)
 7004528:	00800bc4 	movi	r2,47
 700452c:	18800145 	stb	r2,5(r3)
 7004530:	008019c4 	movi	r2,103
 7004534:	18800185 	stb	r2,6(r3)
 7004538:	00801a44 	movi	r2,105
 700453c:	188001c5 	stb	r2,7(r3)
 7004540:	00801984 	movi	r2,102
 7004544:	18800205 	stb	r2,8(r3)
 7004548:	00800344 	movi	r2,13
 700454c:	18800245 	stb	r2,9(r3)
 7004550:	00800284 	movi	r2,10
 7004554:	18800285 	stb	r2,10(r3)
 7004558:	180002c5 	stb	zero,11(r3)
 700455c:	e0bff617 	ldw	r2,-40(fp)
 7004560:	108002c4 	addi	r2,r2,11
 7004564:	e0bff615 	stw	r2,-40(fp)
 7004568:	00008306 	br	7004778 <http_send_file_header+0x5d8>
 700456c:	e13ff517 	ldw	r4,-44(fp)
 7004570:	0141c1b4 	movhi	r5,1798
 7004574:	29647a04 	addi	r5,r5,-28184
 7004578:	7009d980 	call	7009d98 <strcasecmp>
 700457c:	1004c03a 	cmpne	r2,r2,zero
 7004580:	10001c1e 	bne	r2,zero,70045f4 <http_send_file_header+0x454>
 7004584:	e0fff617 	ldw	r3,-40(fp)
 7004588:	00801a44 	movi	r2,105
 700458c:	18800005 	stb	r2,0(r3)
 7004590:	00801b44 	movi	r2,109
 7004594:	18800045 	stb	r2,1(r3)
 7004598:	00801844 	movi	r2,97
 700459c:	18800085 	stb	r2,2(r3)
 70045a0:	008019c4 	movi	r2,103
 70045a4:	188000c5 	stb	r2,3(r3)
 70045a8:	00801944 	movi	r2,101
 70045ac:	18800105 	stb	r2,4(r3)
 70045b0:	00800bc4 	movi	r2,47
 70045b4:	18800145 	stb	r2,5(r3)
 70045b8:	00801c04 	movi	r2,112
 70045bc:	18800185 	stb	r2,6(r3)
 70045c0:	00801b84 	movi	r2,110
 70045c4:	188001c5 	stb	r2,7(r3)
 70045c8:	008019c4 	movi	r2,103
 70045cc:	18800205 	stb	r2,8(r3)
 70045d0:	00800344 	movi	r2,13
 70045d4:	18800245 	stb	r2,9(r3)
 70045d8:	00800284 	movi	r2,10
 70045dc:	18800285 	stb	r2,10(r3)
 70045e0:	180002c5 	stb	zero,11(r3)
 70045e4:	e0bff617 	ldw	r2,-40(fp)
 70045e8:	108002c4 	addi	r2,r2,11
 70045ec:	e0bff615 	stw	r2,-40(fp)
 70045f0:	00006106 	br	7004778 <http_send_file_header+0x5d8>
 70045f4:	e13ff517 	ldw	r4,-44(fp)
 70045f8:	0141c1b4 	movhi	r5,1798
 70045fc:	29647c04 	addi	r5,r5,-28176
 7004600:	7009d980 	call	7009d98 <strcasecmp>
 7004604:	1004c03a 	cmpne	r2,r2,zero
 7004608:	10000b1e 	bne	r2,zero,7004638 <http_send_file_header+0x498>
 700460c:	e0bff617 	ldw	r2,-40(fp)
 7004610:	00c1c1b4 	movhi	r3,1798
 7004614:	18e41004 	addi	r3,r3,-28608
 7004618:	1009883a 	mov	r4,r2
 700461c:	180b883a 	mov	r5,r3
 7004620:	018006c4 	movi	r6,27
 7004624:	70092040 	call	7009204 <memcpy>
 7004628:	e0bff617 	ldw	r2,-40(fp)
 700462c:	10800684 	addi	r2,r2,26
 7004630:	e0bff615 	stw	r2,-40(fp)
 7004634:	00005006 	br	7004778 <http_send_file_header+0x5d8>
 7004638:	e13ff517 	ldw	r4,-44(fp)
 700463c:	0141c1b4 	movhi	r5,1798
 7004640:	29647d04 	addi	r5,r5,-28172
 7004644:	7009d980 	call	7009d98 <strcasecmp>
 7004648:	1004c03a 	cmpne	r2,r2,zero
 700464c:	10001a1e 	bne	r2,zero,70046b8 <http_send_file_header+0x518>
 7004650:	e0fff617 	ldw	r3,-40(fp)
 7004654:	00801d04 	movi	r2,116
 7004658:	18800005 	stb	r2,0(r3)
