Archive member included because of file (symbol)

d:/altera/12.1sp1b243/nios2eds/bin/gnu/h-i686-mingw32/bin/../lib/gcc/nios2-elf/4.1.2\libgcc.a(lib2-divmod.o)
                              obj/default/src/webserver.o (__divsi3)
d:/altera/12.1sp1b243/nios2eds/bin/gnu/h-i686-mingw32/bin/../lib/gcc/nios2-elf/4.1.2/../../../../nios2-elf/lib\libc.a(lib_a-atoi.o)
                              obj/default/src/webserver.o (atoi)
d:/altera/12.1sp1b243/nios2eds/bin/gnu/h-i686-mingw32/bin/../lib/gcc/nios2-elf/4.1.2/../../../../nios2-elf/lib\libc.a(lib_a-calloc.o)
                              obj/default/src/webserver.o (calloc)
d:/altera/12.1sp1b243/nios2eds/bin/gnu/h-i686-mingw32/bin/../lib/gcc/nios2-elf/4.1.2/../../../../nios2-elf/lib\libc.a(lib_a-callocr.o)
                              d:/altera/12.1sp1b243/nios2eds/bin/gnu/h-i686-mingw32/bin/../lib/gcc/nios2-elf/4.1.2/../../../../nios2-elf/lib\libc.a(lib_a-calloc.o) (_calloc_r)
d:/altera/12.1sp1b243/nios2eds/bin/gnu/h-i686-mingw32/bin/../lib/gcc/nios2-elf/4.1.2/../../../../nios2-elf/lib\libc.a(lib_a-ctype_.o)
                              obj/default/src/webserver.o (__ctype_ptr)
d:/altera/12.1sp1b243/nios2eds/bin/gnu/h-i686-mingw32/bin/../lib/gcc/nios2-elf/4.1.2/../../../../nios2-elf/lib\libc.a(lib_a-fclose.o)
                              obj/default/src/main.o (fclose)
d:/altera/12.1sp1b243/nios2eds/bin/gnu/h-i686-mingw32/bin/../lib/gcc/nios2-elf/4.1.2/../../../../nios2-elf/lib\libc.a(lib_a-fflush.o)
                              d:/altera/12.1sp1b243/nios2eds/bin/gnu/h-i686-mingw32/bin/../lib/gcc/nios2-elf/4.1.2/../../../../nios2-elf/lib\libc.a(lib_a-fclose.o) (_fflush_r)
d:/altera/12.1sp1b243/nios2eds/bin/gnu/h-i686-mingw32/bin/../lib/gcc/nios2-elf/4.1.2/../../../../nios2-elf/lib\libc.a(lib_a-fgetpos.o)
                              obj/default/src/webserver.o (fgetpos)
d:/altera/12.1sp1b243/nios2eds/bin/gnu/h-i686-mingw32/bin/../lib/gcc/nios2-elf/4.1.2/../../../../nios2-elf/lib\libc.a(lib_a-findfp.o)
                              d:/altera/12.1sp1b243/nios2eds/bin/gnu/h-i686-mingw32/bin/../lib/gcc/nios2-elf/4.1.2/../../../../nios2-elf/lib\libc.a(lib_a-fclose.o) (__sfp_lock_acquire)
d:/altera/12.1sp1b243/nios2eds/bin/gnu/h-i686-mingw32/bin/../lib/gcc/nios2-elf/4.1.2/../../../../nios2-elf/lib\libc.a(lib_a-fopen.o)
                              obj/default/src/main.o (fopen)
d:/altera/12.1sp1b243/nios2eds/bin/gnu/h-i686-mingw32/bin/../lib/gcc/nios2-elf/4.1.2/../../../../nios2-elf/lib\libc.a(lib_a-fread.o)
                              obj/default/src/webserver.o (fread)
d:/altera/12.1sp1b243/nios2eds/bin/gnu/h-i686-mingw32/bin/../lib/gcc/nios2-elf/4.1.2/../../../../nios2-elf/lib\libc.a(lib_a-freer.o)
                              d:/altera/12.1sp1b243/nios2eds/bin/gnu/h-i686-mingw32/bin/../lib/gcc/nios2-elf/4.1.2/../../../../nios2-elf/lib\libc.a(lib_a-fclose.o) (_free_r)
d:/altera/12.1sp1b243/nios2eds/bin/gnu/h-i686-mingw32/bin/../lib/gcc/nios2-elf/4.1.2/../../../../nios2-elf/lib\libc.a(lib_a-fseek.o)
                              d:/altera/12.1sp1b243/nios2eds/bin/gnu/h-i686-mingw32/bin/../lib/gcc/nios2-elf/4.1.2/../../../../nios2-elf/lib\libc.a(lib_a-fopen.o) (_fseek_r)
d:/altera/12.1sp1b243/nios2eds/bin/gnu/h-i686-mingw32/bin/../lib/gcc/nios2-elf/4.1.2/../../../../nios2-elf/lib\libc.a(lib_a-fstatr.o)
                              d:/altera/12.1sp1b243/nios2eds/bin/gnu/h-i686-mingw32/bin/../lib/gcc/nios2-elf/4.1.2/../../../../nios2-elf/lib\libc.a(lib_a-fseek.o) (_fstat_r)
d:/altera/12.1sp1b243/nios2eds/bin/gnu/h-i686-mingw32/bin/../lib/gcc/nios2-elf/4.1.2/../../../../nios2-elf/lib\libc.a(lib_a-ftell.o)
                              d:/altera/12.1sp1b243/nios2eds/bin/gnu/h-i686-mingw32/bin/../lib/gcc/nios2-elf/4.1.2/../../../../nios2-elf/lib\libc.a(lib_a-fgetpos.o) (_ftell_r)
d:/altera/12.1sp1b243/nios2eds/bin/gnu/h-i686-mingw32/bin/../lib/gcc/nios2-elf/4.1.2/../../../../nios2-elf/lib\libc.a(lib_a-fwalk.o)
                              d:/altera/12.1sp1b243/nios2eds/bin/gnu/h-i686-mingw32/bin/../lib/gcc/nios2-elf/4.1.2/../../../../nios2-elf/lib\libc.a(lib_a-fflush.o) (_fwalk_reent)
d:/altera/12.1sp1b243/nios2eds/bin/gnu/h-i686-mingw32/bin/../lib/gcc/nios2-elf/4.1.2/../../../../nios2-elf/lib\libc.a(lib_a-fwrite.o)
                              obj/default/src/main.o (fwrite)
d:/altera/12.1sp1b243/nios2eds/bin/gnu/h-i686-mingw32/bin/../lib/gcc/nios2-elf/4.1.2/../../../../nios2-elf/lib\libc.a(lib_a-getc.o)
                              obj/default/src/webserver.o (getc)
d:/altera/12.1sp1b243/nios2eds/bin/gnu/h-i686-mingw32/bin/../lib/gcc/nios2-elf/4.1.2/../../../../nios2-elf/lib\libc.a(lib_a-impure.o)
                              obj/default/src/os_utils.o (_impure_ptr)
d:/altera/12.1sp1b243/nios2eds/bin/gnu/h-i686-mingw32/bin/../lib/gcc/nios2-elf/4.1.2/../../../../nios2-elf/lib\libc.a(lib_a-int_errno.o)
                              d:/altera/12.1sp1b243/nios2eds/bin/gnu/h-i686-mingw32/bin/../lib/gcc/nios2-elf/4.1.2/../../../../nios2-elf/lib\libc.a(lib_a-fstatr.o) (errno)
d:/altera/12.1sp1b243/nios2eds/bin/gnu/h-i686-mingw32/bin/../lib/gcc/nios2-elf/4.1.2/../../../../nios2-elf/lib\libc.a(lib_a-makebuf.o)
                              d:/altera/12.1sp1b243/nios2eds/bin/gnu/h-i686-mingw32/bin/../lib/gcc/nios2-elf/4.1.2/../../../../nios2-elf/lib\libc.a(lib_a-fseek.o) (__smakebuf_r)
d:/altera/12.1sp1b243/nios2eds/bin/gnu/h-i686-mingw32/bin/../lib/gcc/nios2-elf/4.1.2/../../../../nios2-elf/lib\libc.a(lib_a-malloc.o)
                              obj/default/src/os_utils.o (free)
d:/altera/12.1sp1b243/nios2eds/bin/gnu/h-i686-mingw32/bin/../lib/gcc/nios2-elf/4.1.2/../../../../nios2-elf/lib\libc.a(lib_a-mallocr.o)
                              d:/altera/12.1sp1b243/nios2eds/bin/gnu/h-i686-mingw32/bin/../lib/gcc/nios2-elf/4.1.2/../../../../nios2-elf/lib\libc.a(lib_a-callocr.o) (_malloc_r)
d:/altera/12.1sp1b243/nios2eds/bin/gnu/h-i686-mingw32/bin/../lib/gcc/nios2-elf/4.1.2/../../../../nios2-elf/lib\libc.a(lib_a-memchr.o)
                              obj/default/src/webserver.o (memchr)
d:/altera/12.1sp1b243/nios2eds/bin/gnu/h-i686-mingw32/bin/../lib/gcc/nios2-elf/4.1.2/../../../../nios2-elf/lib\libc.a(lib_a-memcmp.o)
                              obj/default/src/reconfig_utils.o (memcmp)
d:/altera/12.1sp1b243/nios2eds/bin/gnu/h-i686-mingw32/bin/../lib/gcc/nios2-elf/4.1.2/../../../../nios2-elf/lib\libc.a(lib_a-memcpy.o)
                              obj/default/src/main.o (memcpy)
d:/altera/12.1sp1b243/nios2eds/bin/gnu/h-i686-mingw32/bin/../lib/gcc/nios2-elf/4.1.2/../../../../nios2-elf/lib\libc.a(lib_a-memmove.o)
                              obj/default/src/webserver.o (memmove)
d:/altera/12.1sp1b243/nios2eds/bin/gnu/h-i686-mingw32/bin/../lib/gcc/nios2-elf/4.1.2/../../../../nios2-elf/lib\libc.a(lib_a-memset.o)
                              obj/default/src/reconfig_utils.o (memset)
d:/altera/12.1sp1b243/nios2eds/bin/gnu/h-i686-mingw32/bin/../lib/gcc/nios2-elf/4.1.2/../../../../nios2-elf/lib\libc.a(lib_a-openr.o)
                              d:/altera/12.1sp1b243/nios2eds/bin/gnu/h-i686-mingw32/bin/../lib/gcc/nios2-elf/4.1.2/../../../../nios2-elf/lib\libc.a(lib_a-fopen.o) (_open_r)
d:/altera/12.1sp1b243/nios2eds/bin/gnu/h-i686-mingw32/bin/../lib/gcc/nios2-elf/4.1.2/../../../../nios2-elf/lib\libc.a(lib_a-perror.o)
                              obj/default/src/os_utils.o (perror)
d:/altera/12.1sp1b243/nios2eds/bin/gnu/h-i686-mingw32/bin/../lib/gcc/nios2-elf/4.1.2/../../../../nios2-elf/lib\libc.a(lib_a-putc.o)
                              obj/default/src/webserver.o (putc)
d:/altera/12.1sp1b243/nios2eds/bin/gnu/h-i686-mingw32/bin/../lib/gcc/nios2-elf/4.1.2/../../../../nios2-elf/lib\libc.a(lib_a-puts.o)
                              obj/default/src/os_utils.o (puts)
d:/altera/12.1sp1b243/nios2eds/bin/gnu/h-i686-mingw32/bin/../lib/gcc/nios2-elf/4.1.2/../../../../nios2-elf/lib\libc.a(lib_a-refill.o)
                              d:/altera/12.1sp1b243/nios2eds/bin/gnu/h-i686-mingw32/bin/../lib/gcc/nios2-elf/4.1.2/../../../../nios2-elf/lib\libc.a(lib_a-fread.o) (__srefill_r)
d:/altera/12.1sp1b243/nios2eds/bin/gnu/h-i686-mingw32/bin/../lib/gcc/nios2-elf/4.1.2/../../../../nios2-elf/lib\libc.a(lib_a-rget.o)
                              d:/altera/12.1sp1b243/nios2eds/bin/gnu/h-i686-mingw32/bin/../lib/gcc/nios2-elf/4.1.2/../../../../nios2-elf/lib\libc.a(lib_a-getc.o) (__srget_r)
d:/altera/12.1sp1b243/nios2eds/bin/gnu/h-i686-mingw32/bin/../lib/gcc/nios2-elf/4.1.2/../../../../nios2-elf/lib\libc.a(lib_a-sbrkr.o)
                              d:/altera/12.1sp1b243/nios2eds/bin/gnu/h-i686-mingw32/bin/../lib/gcc/nios2-elf/4.1.2/../../../../nios2-elf/lib\libc.a(lib_a-freer.o) (_sbrk_r)
d:/altera/12.1sp1b243/nios2eds/bin/gnu/h-i686-mingw32/bin/../lib/gcc/nios2-elf/4.1.2/../../../../nios2-elf/lib\libc.a(lib_a-sprintf.o)
                              obj/default/src/srec/srec.o (sprintf)
d:/altera/12.1sp1b243/nios2eds/bin/gnu/h-i686-mingw32/bin/../lib/gcc/nios2-elf/4.1.2/../../../../nios2-elf/lib\libc.a(lib_a-sscanf.o)
                              obj/default/src/webserver.o (sscanf)
d:/altera/12.1sp1b243/nios2eds/bin/gnu/h-i686-mingw32/bin/../lib/gcc/nios2-elf/4.1.2/../../../../nios2-elf/lib\libc.a(lib_a-stdio.o)
                              d:/altera/12.1sp1b243/nios2eds/bin/gnu/h-i686-mingw32/bin/../lib/gcc/nios2-elf/4.1.2/../../../../nios2-elf/lib\libc.a(lib_a-findfp.o) (__sclose)
d:/altera/12.1sp1b243/nios2eds/bin/gnu/h-i686-mingw32/bin/../lib/gcc/nios2-elf/4.1.2/../../../../nios2-elf/lib\libc.a(lib_a-strcasecmp.o)
                              obj/default/src/webserver.o (strcasecmp)
d:/altera/12.1sp1b243/nios2eds/bin/gnu/h-i686-mingw32/bin/../lib/gcc/nios2-elf/4.1.2/../../../../nios2-elf/lib\libc.a(lib_a-strchr.o)
                              obj/default/src/webserver.o (strchr)
d:/altera/12.1sp1b243/nios2eds/bin/gnu/h-i686-mingw32/bin/../lib/gcc/nios2-elf/4.1.2/../../../../nios2-elf/lib\libc.a(lib_a-strcmp.o)
                              obj/default/src/webserver.o (strcmp)
d:/altera/12.1sp1b243/nios2eds/bin/gnu/h-i686-mingw32/bin/../lib/gcc/nios2-elf/4.1.2/../../../../nios2-elf/lib\libc.a(lib_a-strcpy.o)
                              obj/default/src/webserver.o (strcpy)
d:/altera/12.1sp1b243/nios2eds/bin/gnu/h-i686-mingw32/bin/../lib/gcc/nios2-elf/4.1.2/../../../../nios2-elf/lib\libc.a(lib_a-strerror.o)
                              d:/altera/12.1sp1b243/nios2eds/bin/gnu/h-i686-mingw32/bin/../lib/gcc/nios2-elf/4.1.2/../../../../nios2-elf/lib\libc.a(lib_a-perror.o) (strerror)
d:/altera/12.1sp1b243/nios2eds/bin/gnu/h-i686-mingw32/bin/../lib/gcc/nios2-elf/4.1.2/../../../../nios2-elf/lib\libc.a(lib_a-strlen.o)
                              obj/default/src/main.o (strlen)
d:/altera/12.1sp1b243/nios2eds/bin/gnu/h-i686-mingw32/bin/../lib/gcc/nios2-elf/4.1.2/../../../../nios2-elf/lib\libc.a(lib_a-strncmp.o)
                              obj/default/src/webserver.o (strncmp)
d:/altera/12.1sp1b243/nios2eds/bin/gnu/h-i686-mingw32/bin/../lib/gcc/nios2-elf/4.1.2/../../../../nios2-elf/lib\libc.a(lib_a-strncpy.o)
                              obj/default/src/webserver.o (strncpy)
d:/altera/12.1sp1b243/nios2eds/bin/gnu/h-i686-mingw32/bin/../lib/gcc/nios2-elf/4.1.2/../../../../nios2-elf/lib\libc.a(lib_a-strstr.o)
                              obj/default/src/webserver.o (strstr)
d:/altera/12.1sp1b243/nios2eds/bin/gnu/h-i686-mingw32/bin/../lib/gcc/nios2-elf/4.1.2/../../../../nios2-elf/lib\libc.a(lib_a-strtok.o)
                              obj/default/src/webserver.o (strtok)
d:/altera/12.1sp1b243/nios2eds/bin/gnu/h-i686-mingw32/bin/../lib/gcc/nios2-elf/4.1.2/../../../../nios2-elf/lib\libc.a(lib_a-strtok_r.o)
                              d:/altera/12.1sp1b243/nios2eds/bin/gnu/h-i686-mingw32/bin/../lib/gcc/nios2-elf/4.1.2/../../../../nios2-elf/lib\libc.a(lib_a-strtok.o) (__strtok_r)
d:/altera/12.1sp1b243/nios2eds/bin/gnu/h-i686-mingw32/bin/../lib/gcc/nios2-elf/4.1.2/../../../../nios2-elf/lib\libc.a(lib_a-strtol.o)
                              d:/altera/12.1sp1b243/nios2eds/bin/gnu/h-i686-mingw32/bin/../lib/gcc/nios2-elf/4.1.2/../../../../nios2-elf/lib\libc.a(lib_a-atoi.o) (_strtol_r)
d:/altera/12.1sp1b243/nios2eds/bin/gnu/h-i686-mingw32/bin/../lib/gcc/nios2-elf/4.1.2/../../../../nios2-elf/lib\libc.a(lib_a-u_strerr.o)
                              d:/altera/12.1sp1b243/nios2eds/bin/gnu/h-i686-mingw32/bin/../lib/gcc/nios2-elf/4.1.2/../../../../nios2-elf/lib\libc.a(lib_a-strerror.o) (_user_strerror)
d:/altera/12.1sp1b243/nios2eds/bin/gnu/h-i686-mingw32/bin/../lib/gcc/nios2-elf/4.1.2/../../../../nios2-elf/lib\libc.a(lib_a-vfprintf.o)
                              d:/altera/12.1sp1b243/nios2eds/bin/gnu/h-i686-mingw32/bin/../lib/gcc/nios2-elf/4.1.2/../../../../nios2-elf/lib\libc.a(lib_a-sprintf.o) (___vfprintf_internal_r)
d:/altera/12.1sp1b243/nios2eds/bin/gnu/h-i686-mingw32/bin/../lib/gcc/nios2-elf/4.1.2/../../../../nios2-elf/lib\libc.a(lib_a-vfscanf.o)
                              d:/altera/12.1sp1b243/nios2eds/bin/gnu/h-i686-mingw32/bin/../lib/gcc/nios2-elf/4.1.2/../../../../nios2-elf/lib\libc.a(lib_a-sscanf.o) (__svfscanf_r)
d:/altera/12.1sp1b243/nios2eds/bin/gnu/h-i686-mingw32/bin/../lib/gcc/nios2-elf/4.1.2/../../../../nios2-elf/lib\libc.a(lib_a-vsprintf.o)
                              obj/default/src/os_utils.o (vsprintf)
d:/altera/12.1sp1b243/nios2eds/bin/gnu/h-i686-mingw32/bin/../lib/gcc/nios2-elf/4.1.2/../../../../nios2-elf/lib\libc.a(lib_a-wbuf.o)
                              d:/altera/12.1sp1b243/nios2eds/bin/gnu/h-i686-mingw32/bin/../lib/gcc/nios2-elf/4.1.2/../../../../nios2-elf/lib\libc.a(lib_a-putc.o) (__swbuf_r)
d:/altera/12.1sp1b243/nios2eds/bin/gnu/h-i686-mingw32/bin/../lib/gcc/nios2-elf/4.1.2/../../../../nios2-elf/lib\libc.a(lib_a-writer.o)
                              d:/altera/12.1sp1b243/nios2eds/bin/gnu/h-i686-mingw32/bin/../lib/gcc/nios2-elf/4.1.2/../../../../nios2-elf/lib\libc.a(lib_a-stdio.o) (_write_r)
d:/altera/12.1sp1b243/nios2eds/bin/gnu/h-i686-mingw32/bin/../lib/gcc/nios2-elf/4.1.2/../../../../nios2-elf/lib\libc.a(lib_a-wsetup.o)
                              d:/altera/12.1sp1b243/nios2eds/bin/gnu/h-i686-mingw32/bin/../lib/gcc/nios2-elf/4.1.2/../../../../nios2-elf/lib\libc.a(lib_a-vfprintf.o) (__swsetup_r)
d:/altera/12.1sp1b243/nios2eds/bin/gnu/h-i686-mingw32/bin/../lib/gcc/nios2-elf/4.1.2/../../../../nios2-elf/lib\libc.a(lib_a-closer.o)
                              d:/altera/12.1sp1b243/nios2eds/bin/gnu/h-i686-mingw32/bin/../lib/gcc/nios2-elf/4.1.2/../../../../nios2-elf/lib\libc.a(lib_a-stdio.o) (_close_r)
d:/altera/12.1sp1b243/nios2eds/bin/gnu/h-i686-mingw32/bin/../lib/gcc/nios2-elf/4.1.2/../../../../nios2-elf/lib\libc.a(lib_a-dtoa.o)
                              d:/altera/12.1sp1b243/nios2eds/bin/gnu/h-i686-mingw32/bin/../lib/gcc/nios2-elf/4.1.2/../../../../nios2-elf/lib\libc.a(lib_a-vfprintf.o) (_dtoa_r)
d:/altera/12.1sp1b243/nios2eds/bin/gnu/h-i686-mingw32/bin/../lib/gcc/nios2-elf/4.1.2/../../../../nios2-elf/lib\libc.a(lib_a-flags.o)
                              d:/altera/12.1sp1b243/nios2eds/bin/gnu/h-i686-mingw32/bin/../lib/gcc/nios2-elf/4.1.2/../../../../nios2-elf/lib\libc.a(lib_a-fopen.o) (__sflags)
d:/altera/12.1sp1b243/nios2eds/bin/gnu/h-i686-mingw32/bin/../lib/gcc/nios2-elf/4.1.2/../../../../nios2-elf/lib\libc.a(lib_a-fputc.o)
                              d:/altera/12.1sp1b243/nios2eds/bin/gnu/h-i686-mingw32/bin/../lib/gcc/nios2-elf/4.1.2/../../../../nios2-elf/lib\libc.a(lib_a-perror.o) (fputc)
d:/altera/12.1sp1b243/nios2eds/bin/gnu/h-i686-mingw32/bin/../lib/gcc/nios2-elf/4.1.2/../../../../nios2-elf/lib\libc.a(lib_a-fputs.o)
                              d:/altera/12.1sp1b243/nios2eds/bin/gnu/h-i686-mingw32/bin/../lib/gcc/nios2-elf/4.1.2/../../../../nios2-elf/lib\libc.a(lib_a-perror.o) (fputs)
d:/altera/12.1sp1b243/nios2eds/bin/gnu/h-i686-mingw32/bin/../lib/gcc/nios2-elf/4.1.2/../../../../nios2-elf/lib\libc.a(lib_a-fvwrite.o)
                              d:/altera/12.1sp1b243/nios2eds/bin/gnu/h-i686-mingw32/bin/../lib/gcc/nios2-elf/4.1.2/../../../../nios2-elf/lib\libc.a(lib_a-fwrite.o) (__sfvwrite_r)
d:/altera/12.1sp1b243/nios2eds/bin/gnu/h-i686-mingw32/bin/../lib/gcc/nios2-elf/4.1.2/../../../../nios2-elf/lib\libc.a(lib_a-isattyr.o)
                              d:/altera/12.1sp1b243/nios2eds/bin/gnu/h-i686-mingw32/bin/../lib/gcc/nios2-elf/4.1.2/../../../../nios2-elf/lib\libc.a(lib_a-makebuf.o) (_isatty_r)
d:/altera/12.1sp1b243/nios2eds/bin/gnu/h-i686-mingw32/bin/../lib/gcc/nios2-elf/4.1.2/../../../../nios2-elf/lib\libc.a(lib_a-iswspace.o)
                              d:/altera/12.1sp1b243/nios2eds/bin/gnu/h-i686-mingw32/bin/../lib/gcc/nios2-elf/4.1.2/../../../../nios2-elf/lib\libc.a(lib_a-vfscanf.o) (iswspace)
d:/altera/12.1sp1b243/nios2eds/bin/gnu/h-i686-mingw32/bin/../lib/gcc/nios2-elf/4.1.2/../../../../nios2-elf/lib\libc.a(lib_a-locale.o)
                              d:/altera/12.1sp1b243/nios2eds/bin/gnu/h-i686-mingw32/bin/../lib/gcc/nios2-elf/4.1.2/../../../../nios2-elf/lib\libc.a(lib_a-vfprintf.o) (_localeconv_r)
d:/altera/12.1sp1b243/nios2eds/bin/gnu/h-i686-mingw32/bin/../lib/gcc/nios2-elf/4.1.2/../../../../nios2-elf/lib\libc.a(lib_a-lseekr.o)
                              d:/altera/12.1sp1b243/nios2eds/bin/gnu/h-i686-mingw32/bin/../lib/gcc/nios2-elf/4.1.2/../../../../nios2-elf/lib\libc.a(lib_a-stdio.o) (_lseek_r)
d:/altera/12.1sp1b243/nios2eds/bin/gnu/h-i686-mingw32/bin/../lib/gcc/nios2-elf/4.1.2/../../../../nios2-elf/lib\libc.a(lib_a-mbrtowc.o)
                              d:/altera/12.1sp1b243/nios2eds/bin/gnu/h-i686-mingw32/bin/../lib/gcc/nios2-elf/4.1.2/../../../../nios2-elf/lib\libc.a(lib_a-vfscanf.o) (_mbrtowc_r)
d:/altera/12.1sp1b243/nios2eds/bin/gnu/h-i686-mingw32/bin/../lib/gcc/nios2-elf/4.1.2/../../../../nios2-elf/lib\libc.a(lib_a-mbtowc_r.o)
                              d:/altera/12.1sp1b243/nios2eds/bin/gnu/h-i686-mingw32/bin/../lib/gcc/nios2-elf/4.1.2/../../../../nios2-elf/lib\libc.a(lib_a-mbrtowc.o) (_mbtowc_r)
d:/altera/12.1sp1b243/nios2eds/bin/gnu/h-i686-mingw32/bin/../lib/gcc/nios2-elf/4.1.2/../../../../nios2-elf/lib\libc.a(lib_a-mprec.o)
                              d:/altera/12.1sp1b243/nios2eds/bin/gnu/h-i686-mingw32/bin/../lib/gcc/nios2-elf/4.1.2/../../../../nios2-elf/lib\libc.a(lib_a-dtoa.o) (_Bfree)
d:/altera/12.1sp1b243/nios2eds/bin/gnu/h-i686-mingw32/bin/../lib/gcc/nios2-elf/4.1.2/../../../../nios2-elf/lib\libc.a(lib_a-readr.o)
                              d:/altera/12.1sp1b243/nios2eds/bin/gnu/h-i686-mingw32/bin/../lib/gcc/nios2-elf/4.1.2/../../../../nios2-elf/lib\libc.a(lib_a-stdio.o) (_read_r)
d:/altera/12.1sp1b243/nios2eds/bin/gnu/h-i686-mingw32/bin/../lib/gcc/nios2-elf/4.1.2/../../../../nios2-elf/lib\libc.a(lib_a-reallocr.o)
                              d:/altera/12.1sp1b243/nios2eds/bin/gnu/h-i686-mingw32/bin/../lib/gcc/nios2-elf/4.1.2/../../../../nios2-elf/lib\libc.a(lib_a-fvwrite.o) (_realloc_r)
d:/altera/12.1sp1b243/nios2eds/bin/gnu/h-i686-mingw32/bin/../lib/gcc/nios2-elf/4.1.2/../../../../nios2-elf/lib\libc.a(lib_a-s_isinfd.o)
                              d:/altera/12.1sp1b243/nios2eds/bin/gnu/h-i686-mingw32/bin/../lib/gcc/nios2-elf/4.1.2/../../../../nios2-elf/lib\libc.a(lib_a-vfprintf.o) (__isinfd)
d:/altera/12.1sp1b243/nios2eds/bin/gnu/h-i686-mingw32/bin/../lib/gcc/nios2-elf/4.1.2/../../../../nios2-elf/lib\libc.a(lib_a-s_isnand.o)
                              d:/altera/12.1sp1b243/nios2eds/bin/gnu/h-i686-mingw32/bin/../lib/gcc/nios2-elf/4.1.2/../../../../nios2-elf/lib\libc.a(lib_a-vfprintf.o) (__isnand)
d:/altera/12.1sp1b243/nios2eds/bin/gnu/h-i686-mingw32/bin/../lib/gcc/nios2-elf/4.1.2/../../../../nios2-elf/lib\libc.a(lib_a-sccl.o)
                              d:/altera/12.1sp1b243/nios2eds/bin/gnu/h-i686-mingw32/bin/../lib/gcc/nios2-elf/4.1.2/../../../../nios2-elf/lib\libc.a(lib_a-vfscanf.o) (__sccl)
d:/altera/12.1sp1b243/nios2eds/bin/gnu/h-i686-mingw32/bin/../lib/gcc/nios2-elf/4.1.2/../../../../nios2-elf/lib\libc.a(lib_a-sf_nan.o)
                              d:/altera/12.1sp1b243/nios2eds/bin/gnu/h-i686-mingw32/bin/../lib/gcc/nios2-elf/4.1.2/../../../../nios2-elf/lib\libc.a(lib_a-vfscanf.o) (nanf)
d:/altera/12.1sp1b243/nios2eds/bin/gnu/h-i686-mingw32/bin/../lib/gcc/nios2-elf/4.1.2/../../../../nios2-elf/lib\libc.a(lib_a-strtod.o)
                              d:/altera/12.1sp1b243/nios2eds/bin/gnu/h-i686-mingw32/bin/../lib/gcc/nios2-elf/4.1.2/../../../../nios2-elf/lib\libc.a(lib_a-vfscanf.o) (_strtod_r)
d:/altera/12.1sp1b243/nios2eds/bin/gnu/h-i686-mingw32/bin/../lib/gcc/nios2-elf/4.1.2/../../../../nios2-elf/lib\libc.a(lib_a-strtoll_r.o)
                              d:/altera/12.1sp1b243/nios2eds/bin/gnu/h-i686-mingw32/bin/../lib/gcc/nios2-elf/4.1.2/../../../../nios2-elf/lib\libc.a(lib_a-vfscanf.o) (_strtoll_r)
d:/altera/12.1sp1b243/nios2eds/bin/gnu/h-i686-mingw32/bin/../lib/gcc/nios2-elf/4.1.2/../../../../nios2-elf/lib\libc.a(lib_a-strtoul.o)
                              d:/altera/12.1sp1b243/nios2eds/bin/gnu/h-i686-mingw32/bin/../lib/gcc/nios2-elf/4.1.2/../../../../nios2-elf/lib\libc.a(lib_a-vfscanf.o) (_strtoul_r)
d:/altera/12.1sp1b243/nios2eds/bin/gnu/h-i686-mingw32/bin/../lib/gcc/nios2-elf/4.1.2/../../../../nios2-elf/lib\libc.a(lib_a-strtoull_r.o)
                              d:/altera/12.1sp1b243/nios2eds/bin/gnu/h-i686-mingw32/bin/../lib/gcc/nios2-elf/4.1.2/../../../../nios2-elf/lib\libc.a(lib_a-vfscanf.o) (_strtoull_r)
d:/altera/12.1sp1b243/nios2eds/bin/gnu/h-i686-mingw32/bin/../lib/gcc/nios2-elf/4.1.2/../../../../nios2-elf/lib\libc.a(lib_a-ungetc.o)
                              d:/altera/12.1sp1b243/nios2eds/bin/gnu/h-i686-mingw32/bin/../lib/gcc/nios2-elf/4.1.2/../../../../nios2-elf/lib\libc.a(lib_a-vfscanf.o) (_ungetc_r)
d:/altera/12.1sp1b243/nios2eds/bin/gnu/h-i686-mingw32/bin/../lib/gcc/nios2-elf/4.1.2/../../../../nios2-elf/lib\libc.a(lib_a-gdtoa-gethex.o)
                              d:/altera/12.1sp1b243/nios2eds/bin/gnu/h-i686-mingw32/bin/../lib/gcc/nios2-elf/4.1.2/../../../../nios2-elf/lib\libc.a(lib_a-strtod.o) (__gethex)
d:/altera/12.1sp1b243/nios2eds/bin/gnu/h-i686-mingw32/bin/../lib/gcc/nios2-elf/4.1.2/../../../../nios2-elf/lib\libc.a(lib_a-gdtoa-hexnan.o)
                              d:/altera/12.1sp1b243/nios2eds/bin/gnu/h-i686-mingw32/bin/../lib/gcc/nios2-elf/4.1.2/../../../../nios2-elf/lib\libc.a(lib_a-strtod.o) (__hexnan)
d:/altera/12.1sp1b243/nios2eds/bin/gnu/h-i686-mingw32/bin/../lib/gcc/nios2-elf/4.1.2\libgcc.a(_muldi3.o)
                              d:/altera/12.1sp1b243/nios2eds/bin/gnu/h-i686-mingw32/bin/../lib/gcc/nios2-elf/4.1.2/../../../../nios2-elf/lib\libc.a(lib_a-strtoll_r.o) (__muldi3)
d:/altera/12.1sp1b243/nios2eds/bin/gnu/h-i686-mingw32/bin/../lib/gcc/nios2-elf/4.1.2\libgcc.a(_fixunsdfsi.o)
                              d:/altera/12.1sp1b243/nios2eds/bin/gnu/h-i686-mingw32/bin/../lib/gcc/nios2-elf/4.1.2/../../../../nios2-elf/lib\libc.a(lib_a-strtod.o) (__fixunsdfsi)
d:/altera/12.1sp1b243/nios2eds/bin/gnu/h-i686-mingw32/bin/../lib/gcc/nios2-elf/4.1.2\libgcc.a(_udivdi3.o)
                              d:/altera/12.1sp1b243/nios2eds/bin/gnu/h-i686-mingw32/bin/../lib/gcc/nios2-elf/4.1.2/../../../../nios2-elf/lib\libc.a(lib_a-vfprintf.o) (__udivdi3)
d:/altera/12.1sp1b243/nios2eds/bin/gnu/h-i686-mingw32/bin/../lib/gcc/nios2-elf/4.1.2\libgcc.a(_umoddi3.o)
                              d:/altera/12.1sp1b243/nios2eds/bin/gnu/h-i686-mingw32/bin/../lib/gcc/nios2-elf/4.1.2/../../../../nios2-elf/lib\libc.a(lib_a-vfprintf.o) (__umoddi3)
d:/altera/12.1sp1b243/nios2eds/bin/gnu/h-i686-mingw32/bin/../lib/gcc/nios2-elf/4.1.2\libgcc.a(_ne_sf.o)
                              d:/altera/12.1sp1b243/nios2eds/bin/gnu/h-i686-mingw32/bin/../lib/gcc/nios2-elf/4.1.2/../../../../nios2-elf/lib\libc.a(lib_a-strtod.o) (__nesf2)
d:/altera/12.1sp1b243/nios2eds/bin/gnu/h-i686-mingw32/bin/../lib/gcc/nios2-elf/4.1.2\libgcc.a(_gt_sf.o)
                              d:/altera/12.1sp1b243/nios2eds/bin/gnu/h-i686-mingw32/bin/../lib/gcc/nios2-elf/4.1.2/../../../../nios2-elf/lib\libc.a(lib_a-strtod.o) (__gtsf2)
d:/altera/12.1sp1b243/nios2eds/bin/gnu/h-i686-mingw32/bin/../lib/gcc/nios2-elf/4.1.2\libgcc.a(_lt_sf.o)
                              d:/altera/12.1sp1b243/nios2eds/bin/gnu/h-i686-mingw32/bin/../lib/gcc/nios2-elf/4.1.2/../../../../nios2-elf/lib\libc.a(lib_a-strtod.o) (__ltsf2)
d:/altera/12.1sp1b243/nios2eds/bin/gnu/h-i686-mingw32/bin/../lib/gcc/nios2-elf/4.1.2\libgcc.a(_addsub_df.o)
                              d:/altera/12.1sp1b243/nios2eds/bin/gnu/h-i686-mingw32/bin/../lib/gcc/nios2-elf/4.1.2/../../../../nios2-elf/lib\libc.a(lib_a-dtoa.o) (__subdf3)
d:/altera/12.1sp1b243/nios2eds/bin/gnu/h-i686-mingw32/bin/../lib/gcc/nios2-elf/4.1.2\libgcc.a(_mul_df.o)
                              d:/altera/12.1sp1b243/nios2eds/bin/gnu/h-i686-mingw32/bin/../lib/gcc/nios2-elf/4.1.2/../../../../nios2-elf/lib\libc.a(lib_a-dtoa.o) (__muldf3)
d:/altera/12.1sp1b243/nios2eds/bin/gnu/h-i686-mingw32/bin/../lib/gcc/nios2-elf/4.1.2\libgcc.a(_div_df.o)
                              d:/altera/12.1sp1b243/nios2eds/bin/gnu/h-i686-mingw32/bin/../lib/gcc/nios2-elf/4.1.2/../../../../nios2-elf/lib\libc.a(lib_a-dtoa.o) (__divdf3)
d:/altera/12.1sp1b243/nios2eds/bin/gnu/h-i686-mingw32/bin/../lib/gcc/nios2-elf/4.1.2\libgcc.a(_eq_df.o)
                              d:/altera/12.1sp1b243/nios2eds/bin/gnu/h-i686-mingw32/bin/../lib/gcc/nios2-elf/4.1.2/../../../../nios2-elf/lib\libc.a(lib_a-vfprintf.o) (__eqdf2)
d:/altera/12.1sp1b243/nios2eds/bin/gnu/h-i686-mingw32/bin/../lib/gcc/nios2-elf/4.1.2\libgcc.a(_ne_df.o)
                              d:/altera/12.1sp1b243/nios2eds/bin/gnu/h-i686-mingw32/bin/../lib/gcc/nios2-elf/4.1.2/../../../../nios2-elf/lib\libc.a(lib_a-vfprintf.o) (__nedf2)
d:/altera/12.1sp1b243/nios2eds/bin/gnu/h-i686-mingw32/bin/../lib/gcc/nios2-elf/4.1.2\libgcc.a(_gt_df.o)
                              d:/altera/12.1sp1b243/nios2eds/bin/gnu/h-i686-mingw32/bin/../lib/gcc/nios2-elf/4.1.2/../../../../nios2-elf/lib\libc.a(lib_a-dtoa.o) (__gtdf2)
d:/altera/12.1sp1b243/nios2eds/bin/gnu/h-i686-mingw32/bin/../lib/gcc/nios2-elf/4.1.2\libgcc.a(_ge_df.o)
                              d:/altera/12.1sp1b243/nios2eds/bin/gnu/h-i686-mingw32/bin/../lib/gcc/nios2-elf/4.1.2/../../../../nios2-elf/lib\libc.a(lib_a-dtoa.o) (__gedf2)
d:/altera/12.1sp1b243/nios2eds/bin/gnu/h-i686-mingw32/bin/../lib/gcc/nios2-elf/4.1.2\libgcc.a(_lt_df.o)
                              d:/altera/12.1sp1b243/nios2eds/bin/gnu/h-i686-mingw32/bin/../lib/gcc/nios2-elf/4.1.2/../../../../nios2-elf/lib\libc.a(lib_a-vfprintf.o) (__ltdf2)
d:/altera/12.1sp1b243/nios2eds/bin/gnu/h-i686-mingw32/bin/../lib/gcc/nios2-elf/4.1.2\libgcc.a(_le_df.o)
                              d:/altera/12.1sp1b243/nios2eds/bin/gnu/h-i686-mingw32/bin/../lib/gcc/nios2-elf/4.1.2/../../../../nios2-elf/lib\libc.a(lib_a-strtod.o) (__ledf2)
d:/altera/12.1sp1b243/nios2eds/bin/gnu/h-i686-mingw32/bin/../lib/gcc/nios2-elf/4.1.2\libgcc.a(_si_to_df.o)
                              d:/altera/12.1sp1b243/nios2eds/bin/gnu/h-i686-mingw32/bin/../lib/gcc/nios2-elf/4.1.2/../../../../nios2-elf/lib\libc.a(lib_a-dtoa.o) (__floatsidf)
d:/altera/12.1sp1b243/nios2eds/bin/gnu/h-i686-mingw32/bin/../lib/gcc/nios2-elf/4.1.2\libgcc.a(_df_to_si.o)
                              d:/altera/12.1sp1b243/nios2eds/bin/gnu/h-i686-mingw32/bin/../lib/gcc/nios2-elf/4.1.2/../../../../nios2-elf/lib\libc.a(lib_a-dtoa.o) (__fixdfsi)
d:/altera/12.1sp1b243/nios2eds/bin/gnu/h-i686-mingw32/bin/../lib/gcc/nios2-elf/4.1.2\libgcc.a(_df_to_sf.o)
                              d:/altera/12.1sp1b243/nios2eds/bin/gnu/h-i686-mingw32/bin/../lib/gcc/nios2-elf/4.1.2/../../../../nios2-elf/lib\libc.a(lib_a-vfscanf.o) (__truncdfsf2)
d:/altera/12.1sp1b243/nios2eds/bin/gnu/h-i686-mingw32/bin/../lib/gcc/nios2-elf/4.1.2\libgcc.a(_thenan_df.o)
                              d:/altera/12.1sp1b243/nios2eds/bin/gnu/h-i686-mingw32/bin/../lib/gcc/nios2-elf/4.1.2\libgcc.a(_addsub_df.o) (__thenan_df)
d:/altera/12.1sp1b243/nios2eds/bin/gnu/h-i686-mingw32/bin/../lib/gcc/nios2-elf/4.1.2\libgcc.a(_usi_to_df.o)
                              d:/altera/12.1sp1b243/nios2eds/bin/gnu/h-i686-mingw32/bin/../lib/gcc/nios2-elf/4.1.2/../../../../nios2-elf/lib\libc.a(lib_a-dtoa.o) (__floatunsidf)
d:/altera/12.1sp1b243/nios2eds/bin/gnu/h-i686-mingw32/bin/../lib/gcc/nios2-elf/4.1.2\libgcc.a(_clz.o)
                              d:/altera/12.1sp1b243/nios2eds/bin/gnu/h-i686-mingw32/bin/../lib/gcc/nios2-elf/4.1.2\libgcc.a(_udivdi3.o) (__clz_tab)
d:/altera/12.1sp1b243/nios2eds/bin/gnu/h-i686-mingw32/bin/../lib/gcc/nios2-elf/4.1.2\libgcc.a(_clzsi2.o)
                              d:/altera/12.1sp1b243/nios2eds/bin/gnu/h-i686-mingw32/bin/../lib/gcc/nios2-elf/4.1.2\libgcc.a(_si_to_df.o) (__clzsi2)
d:/altera/12.1sp1b243/nios2eds/bin/gnu/h-i686-mingw32/bin/../lib/gcc/nios2-elf/4.1.2\libgcc.a(_unpack_sf.o)
                              d:/altera/12.1sp1b243/nios2eds/bin/gnu/h-i686-mingw32/bin/../lib/gcc/nios2-elf/4.1.2\libgcc.a(_ne_sf.o) (__unpack_f)
d:/altera/12.1sp1b243/nios2eds/bin/gnu/h-i686-mingw32/bin/../lib/gcc/nios2-elf/4.1.2\libgcc.a(_fpcmp_parts_sf.o)
                              d:/altera/12.1sp1b243/nios2eds/bin/gnu/h-i686-mingw32/bin/../lib/gcc/nios2-elf/4.1.2\libgcc.a(_ne_sf.o) (__fpcmp_parts_f)
d:/altera/12.1sp1b243/nios2eds/bin/gnu/h-i686-mingw32/bin/../lib/gcc/nios2-elf/4.1.2\libgcc.a(_make_sf.o)
                              d:/altera/12.1sp1b243/nios2eds/bin/gnu/h-i686-mingw32/bin/../lib/gcc/nios2-elf/4.1.2\libgcc.a(_df_to_sf.o) (__make_fp)
d:/altera/12.1sp1b243/nios2eds/bin/gnu/h-i686-mingw32/bin/../lib/gcc/nios2-elf/4.1.2\libgcc.a(_pack_df.o)
                              d:/altera/12.1sp1b243/nios2eds/bin/gnu/h-i686-mingw32/bin/../lib/gcc/nios2-elf/4.1.2\libgcc.a(_addsub_df.o) (__pack_d)
d:/altera/12.1sp1b243/nios2eds/bin/gnu/h-i686-mingw32/bin/../lib/gcc/nios2-elf/4.1.2\libgcc.a(_unpack_df.o)
                              d:/altera/12.1sp1b243/nios2eds/bin/gnu/h-i686-mingw32/bin/../lib/gcc/nios2-elf/4.1.2\libgcc.a(_addsub_df.o) (__unpack_d)
d:/altera/12.1sp1b243/nios2eds/bin/gnu/h-i686-mingw32/bin/../lib/gcc/nios2-elf/4.1.2\libgcc.a(_fpcmp_parts_df.o)
                              d:/altera/12.1sp1b243/nios2eds/bin/gnu/h-i686-mingw32/bin/../lib/gcc/nios2-elf/4.1.2\libgcc.a(_eq_df.o) (__fpcmp_parts_d)
d:/altera/12.1sp1b243/nios2eds/bin/gnu/h-i686-mingw32/bin/../lib/gcc/nios2-elf/4.1.2\libgcc.a(_pack_sf.o)
                              d:/altera/12.1sp1b243/nios2eds/bin/gnu/h-i686-mingw32/bin/../lib/gcc/nios2-elf/4.1.2\libgcc.a(_make_sf.o) (__pack_f)
../../bsp/ucosii_net_rozipfs/\libucosii_bsp.a(alt_fstat.o)
                              d:/altera/12.1sp1b243/nios2eds/bin/gnu/h-i686-mingw32/bin/../lib/gcc/nios2-elf/4.1.2/../../../../nios2-elf/lib\libc.a(lib_a-fstatr.o) (fstat)
../../bsp/ucosii_net_rozipfs/\libucosii_bsp.a(alt_isatty.o)
                              d:/altera/12.1sp1b243/nios2eds/bin/gnu/h-i686-mingw32/bin/../lib/gcc/nios2-elf/4.1.2/../../../../nios2-elf/lib\libc.a(lib_a-isattyr.o) (isatty)
../../bsp/ucosii_net_rozipfs/\libucosii_bsp.a(alt_lseek.o)
                              d:/altera/12.1sp1b243/nios2eds/bin/gnu/h-i686-mingw32/bin/../lib/gcc/nios2-elf/4.1.2/../../../../nios2-elf/lib\libc.a(lib_a-lseekr.o) (lseek)
../../bsp/ucosii_net_rozipfs/\libucosii_bsp.a(alt_main.o)
                              ../../bsp/ucosii_net_rozipfs//obj/HAL/src/crt0.o (alt_main)
../../bsp/ucosii_net_rozipfs/\libucosii_bsp.a(alt_open.o)
                              d:/altera/12.1sp1b243/nios2eds/bin/gnu/h-i686-mingw32/bin/../lib/gcc/nios2-elf/4.1.2/../../../../nios2-elf/lib\libc.a(lib_a-openr.o) (open)
../../bsp/ucosii_net_rozipfs/\libucosii_bsp.a(alt_release_fd.o)
                              ../../bsp/ucosii_net_rozipfs/\libucosii_bsp.a(alt_open.o) (alt_release_fd)
../../bsp/ucosii_net_rozipfs/\libucosii_bsp.a(alt_sbrk.o)
                              d:/altera/12.1sp1b243/nios2eds/bin/gnu/h-i686-mingw32/bin/../lib/gcc/nios2-elf/4.1.2/../../../../nios2-elf/lib\libc.a(lib_a-sbrkr.o) (sbrk)
../../bsp/ucosii_net_rozipfs/\libucosii_bsp.a(alt_tick.o)
                              obj/default/src/webserver.o (_alt_tick_rate)
../../bsp/ucosii_net_rozipfs/\libucosii_bsp.a(alt_usleep.o)
                              obj/default/src/webserver.o (usleep)
../../bsp/ucosii_net_rozipfs/\libucosii_bsp.a(alt_env_lock.o)
                              ../../bsp/ucosii_net_rozipfs/\libucosii_bsp.a(alt_main.o) (alt_envsem)
../../bsp/ucosii_net_rozipfs/\libucosii_bsp.a(alt_malloc_lock.o)
                              d:/altera/12.1sp1b243/nios2eds/bin/gnu/h-i686-mingw32/bin/../lib/gcc/nios2-elf/4.1.2/../../../../nios2-elf/lib\libc.a(lib_a-freer.o) (__malloc_lock)
../../bsp/ucosii_net_rozipfs/\libucosii_bsp.a(os_core.o)
                              ../../bsp/ucosii_net_rozipfs/\libucosii_bsp.a(alt_main.o) (OSInit)
../../bsp/ucosii_net_rozipfs/\libucosii_bsp.a(os_dbg.o)
                              ../../bsp/ucosii_net_rozipfs/\libucosii_bsp.a(os_core.o) (OSDebugInit)
../../bsp/ucosii_net_rozipfs/\libucosii_bsp.a(os_flag.o)
                              ../../bsp/ucosii_net_rozipfs/\libucosii_bsp.a(os_core.o) (OS_FlagInit)
../../bsp/ucosii_net_rozipfs/\libucosii_bsp.a(os_mbox.o)
                              obj/default/src/main.o (OSMboxCreate)
../../bsp/ucosii_net_rozipfs/\libucosii_bsp.a(os_mem.o)
                              ../../bsp/ucosii_net_rozipfs/\libucosii_bsp.a(os_core.o) (OS_MemInit)
../../bsp/ucosii_net_rozipfs/\libucosii_bsp.a(os_q.o)
                              ../../bsp/ucosii_net_rozipfs/\libucosii_bsp.a(os_core.o) (OS_QInit)
../../bsp/ucosii_net_rozipfs/\libucosii_bsp.a(os_sem.o)
                              obj/default/src/main.o (OSSemCreate)
../../bsp/ucosii_net_rozipfs/\libucosii_bsp.a(os_task.o)
                              obj/default/src/main.o (OSTaskCreateExt)
../../bsp/ucosii_net_rozipfs/\libucosii_bsp.a(os_time.o)
                              obj/default/src/webserver.o (OSTimeDly)
../../bsp/ucosii_net_rozipfs/\libucosii_bsp.a(alt_sys_init.o)
                              ../../bsp/ucosii_net_rozipfs/\libucosii_bsp.a(alt_main.o) (alt_irq_init)
../../bsp/ucosii_net_rozipfs/\libucosii_bsp.a(altera_avalon_cfi_flash.o)
                              ../../bsp/ucosii_net_rozipfs/\libucosii_bsp.a(alt_sys_init.o) (alt_flash_cfi_init)
../../bsp/ucosii_net_rozipfs/\libucosii_bsp.a(altera_avalon_cfi_flash_table.o)
                              ../../bsp/ucosii_net_rozipfs/\libucosii_bsp.a(altera_avalon_cfi_flash.o) (alt_set_flash_width_func)
../../bsp/ucosii_net_rozipfs/\libucosii_bsp.a(altera_avalon_jtag_uart_fd.o)
                              ../../bsp/ucosii_net_rozipfs/\libucosii_bsp.a(alt_sys_init.o) (altera_avalon_jtag_uart_read_fd)
../../bsp/ucosii_net_rozipfs/\libucosii_bsp.a(altera_avalon_jtag_uart_init.o)
                              ../../bsp/ucosii_net_rozipfs/\libucosii_bsp.a(alt_sys_init.o) (altera_avalon_jtag_uart_init)
../../bsp/ucosii_net_rozipfs/\libucosii_bsp.a(altera_avalon_jtag_uart_ioctl.o)
                              ../../bsp/ucosii_net_rozipfs/\libucosii_bsp.a(altera_avalon_jtag_uart_fd.o) (altera_avalon_jtag_uart_ioctl)
../../bsp/ucosii_net_rozipfs/\libucosii_bsp.a(altera_avalon_jtag_uart_read.o)
                              ../../bsp/ucosii_net_rozipfs/\libucosii_bsp.a(altera_avalon_jtag_uart_fd.o) (altera_avalon_jtag_uart_read)
../../bsp/ucosii_net_rozipfs/\libucosii_bsp.a(altera_avalon_jtag_uart_write.o)
                              ../../bsp/ucosii_net_rozipfs/\libucosii_bsp.a(altera_avalon_jtag_uart_fd.o) (altera_avalon_jtag_uart_write)
../../bsp/ucosii_net_rozipfs/\libucosii_bsp.a(altera_avalon_lcd_16207.o)
                              ../../bsp/ucosii_net_rozipfs/\libucosii_bsp.a(alt_sys_init.o) (altera_avalon_lcd_16207_init)
../../bsp/ucosii_net_rozipfs/\libucosii_bsp.a(altera_avalon_lcd_16207_fd.o)
                              ../../bsp/ucosii_net_rozipfs/\libucosii_bsp.a(alt_sys_init.o) (altera_avalon_lcd_16207_write_fd)
../../bsp/ucosii_net_rozipfs/\libucosii_bsp.a(altera_avalon_sgdma.o)
                              ../../bsp/ucosii_net_rozipfs/\libucosii_bsp.a(alt_sys_init.o) (alt_avalon_sgdma_init)
../../bsp/ucosii_net_rozipfs/\libucosii_bsp.a(altera_avalon_timer_sc.o)
                              ../../bsp/ucosii_net_rozipfs/\libucosii_bsp.a(alt_sys_init.o) (alt_avalon_timer_sc_init)
../../bsp/ucosii_net_rozipfs/\libucosii_bsp.a(altera_avalon_tse.o)
                              obj/default/src/main.o (marvell_cfg_rgmii)
../../bsp/ucosii_net_rozipfs/\libucosii_bsp.a(altera_ro_zipfs.o)
                              ../../bsp/ucosii_net_rozipfs/\libucosii_bsp.a(alt_sys_init.o) (alt_ro_zipfs_open)
../../bsp/ucosii_net_rozipfs/\libucosii_bsp.a(ins_tse_mac.o)
                              ../../bsp/ucosii_net_rozipfs/\libucosii_bsp.a(alt_sys_init.o) (number_of_tse_mac)
../../bsp/ucosii_net_rozipfs/\libucosii_bsp.a(alt_iniche_close.o)
                              obj/default/src/webserver.o (close)
../../bsp/ucosii_net_rozipfs/\libucosii_bsp.a(alt_iniche_dev.o)
                              ../../bsp/ucosii_net_rozipfs/\libucosii_bsp.a(alt_sys_init.o) (alt_iniche_dev_list)
../../bsp/ucosii_net_rozipfs/\libucosii_bsp.a(alt_iniche_read.o)
                              d:/altera/12.1sp1b243/nios2eds/bin/gnu/h-i686-mingw32/bin/../lib/gcc/nios2-elf/4.1.2/../../../../nios2-elf/lib\libc.a(lib_a-readr.o) (read)
../../bsp/ucosii_net_rozipfs/\libucosii_bsp.a(alt_iniche_write.o)
                              d:/altera/12.1sp1b243/nios2eds/bin/gnu/h-i686-mingw32/bin/../lib/gcc/nios2-elf/4.1.2/../../../../nios2-elf/lib\libc.a(lib_a-writer.o) (write)
../../bsp/ucosii_net_rozipfs/\libucosii_bsp.a(ipnet.o)
                              ../../bsp/ucosii_net_rozipfs/\libucosii_bsp.a(ins_tse_mac.o) (rcvdq)
../../bsp/ucosii_net_rozipfs/\libucosii_bsp.a(ipstart.o)
                              ../../bsp/ucosii_net_rozipfs/\libucosii_bsp.a(ipnet.o) (ifNumber)
../../bsp/ucosii_net_rozipfs/\libucosii_bsp.a(igmp_cmn.o)
                              ../../bsp/ucosii_net_rozipfs/\libucosii_bsp.a(ipstart.o) (igmp_init)
../../bsp/ucosii_net_rozipfs/\libucosii_bsp.a(bsdsock.o)
                              obj/default/src/webserver.o (bsd_accept)
../../bsp/ucosii_net_rozipfs/\libucosii_bsp.a(cksum.o)
                              ../../bsp/ucosii_net_rozipfs/\libucosii_bsp.a(igmp_cmn.o) (cksum)
../../bsp/ucosii_net_rozipfs/\libucosii_bsp.a(in_utils.o)
                              ../../bsp/ucosii_net_rozipfs/\libucosii_bsp.a(ins_tse_mac.o) (ns_printf)
../../bsp/ucosii_net_rozipfs/\libucosii_bsp.a(netmain.o)
                              obj/default/src/webserver.o (iniche_net_ready)
../../bsp/ucosii_net_rozipfs/\libucosii_bsp.a(tk_crnos.o)
                              ../../bsp/ucosii_net_rozipfs/\libucosii_bsp.a(ipnet.o) (tk_yield)
../../bsp/ucosii_net_rozipfs/\libucosii_bsp.a(dhcpclnt.o)
                              obj/default/src/webserver.o (dhc_set_callback)
../../bsp/ucosii_net_rozipfs/\libucosii_bsp.a(dhcputil.o)
                              ../../bsp/ucosii_net_rozipfs/\libucosii_bsp.a(dhcpclnt.o) (find_opt)
../../bsp/ucosii_net_rozipfs/\libucosii_bsp.a(pktalloc.o)
                              ../../bsp/ucosii_net_rozipfs/\libucosii_bsp.a(ipnet.o) (pk_init)
../../bsp/ucosii_net_rozipfs/\libucosii_bsp.a(q.o)
                              ../../bsp/ucosii_net_rozipfs/\libucosii_bsp.a(ipnet.o) (getq)
../../bsp/ucosii_net_rozipfs/\libucosii_bsp.a(udp_open.o)
                              ../../bsp/ucosii_net_rozipfs/\libucosii_bsp.a(dhcpclnt.o) (udp_open)
../../bsp/ucosii_net_rozipfs/\libucosii_bsp.a(asm_cksum.o)
                              ../../bsp/ucosii_net_rozipfs/\libucosii_bsp.a(cksum.o) (asm_cksum)
../../bsp/ucosii_net_rozipfs/\libucosii_bsp.a(brdutils.o)
                              ../../bsp/ucosii_net_rozipfs/\libucosii_bsp.a(ipnet.o) (dtrap)
../../bsp/ucosii_net_rozipfs/\libucosii_bsp.a(osportco.o)
                              ../../bsp/ucosii_net_rozipfs/\libucosii_bsp.a(tk_crnos.o) (tcp_sleep_count)
../../bsp/ucosii_net_rozipfs/\libucosii_bsp.a(targnios.o)
                              obj/default/src/webserver.o (alt_iniche_init)
../../bsp/ucosii_net_rozipfs/\libucosii_bsp.a(nptcp.o)
                              ../../bsp/ucosii_net_rozipfs/\libucosii_bsp.a(bsdsock.o) (soq)
../../bsp/ucosii_net_rozipfs/\libucosii_bsp.a(rawsock.o)
                              ../../bsp/ucosii_net_rozipfs/\libucosii_bsp.a(nptcp.o) (rawip_usrreq)
../../bsp/ucosii_net_rozipfs/\libucosii_bsp.a(sockcall.o)
                              obj/default/src/webserver.o (t_socket)
../../bsp/ucosii_net_rozipfs/\libucosii_bsp.a(socket.o)
                              ../../bsp/ucosii_net_rozipfs/\libucosii_bsp.a(sockcall.o) (socreate)
../../bsp/ucosii_net_rozipfs/\libucosii_bsp.a(socket2.o)
                              ../../bsp/ucosii_net_rozipfs/\libucosii_bsp.a(sockcall.o) (soqremque)
../../bsp/ucosii_net_rozipfs/\libucosii_bsp.a(soselect.o)
                              ../../bsp/ucosii_net_rozipfs/\libucosii_bsp.a(bsdsock.o) (t_select)
../../bsp/ucosii_net_rozipfs/\libucosii_bsp.a(tcp_in.o)
                              ../../bsp/ucosii_net_rozipfs/\libucosii_bsp.a(nptcp.o) (tcp_input)
../../bsp/ucosii_net_rozipfs/\libucosii_bsp.a(tcp_out.o)
                              ../../bsp/ucosii_net_rozipfs/\libucosii_bsp.a(tcp_in.o) (tcp_output)
../../bsp/ucosii_net_rozipfs/\libucosii_bsp.a(tcp_subr.o)
                              ../../bsp/ucosii_net_rozipfs/\libucosii_bsp.a(nptcp.o) (tcp_init)
../../bsp/ucosii_net_rozipfs/\libucosii_bsp.a(tcp_timr.o)
                              ../../bsp/ucosii_net_rozipfs/\libucosii_bsp.a(tcp_in.o) (tcp_keepidle)
../../bsp/ucosii_net_rozipfs/\libucosii_bsp.a(tcp_usr.o)
                              ../../bsp/ucosii_net_rozipfs/\libucosii_bsp.a(nptcp.o) (tcp_usrreq)
../../bsp/ucosii_net_rozipfs/\libucosii_bsp.a(tcpport.o)
                              ../../bsp/ucosii_net_rozipfs/\libucosii_bsp.a(ipstart.o) (tcpinit)
../../bsp/ucosii_net_rozipfs/\libucosii_bsp.a(udpsock.o)
                              ../../bsp/ucosii_net_rozipfs/\libucosii_bsp.a(nptcp.o) (udp_usrreq)
../../bsp/ucosii_net_rozipfs/\libucosii_bsp.a(alt_alarm_start.o)
                              ../../bsp/ucosii_net_rozipfs/\libucosii_bsp.a(altera_avalon_jtag_uart_init.o) (alt_alarm_start)
../../bsp/ucosii_net_rozipfs/\libucosii_bsp.a(alt_busy_sleep.o)
                              ../../bsp/ucosii_net_rozipfs/\libucosii_bsp.a(alt_usleep.o) (alt_busy_sleep)
../../bsp/ucosii_net_rozipfs/\libucosii_bsp.a(alt_close.o)
                              ../../bsp/ucosii_net_rozipfs/\libucosii_bsp.a(alt_iniche_close.o) (alt_close)
../../bsp/ucosii_net_rozipfs/\libucosii_bsp.a(alt_dcache_flush.o)
                              ../../bsp/ucosii_net_rozipfs/\libucosii_bsp.a(altera_avalon_cfi_flash.o) (alt_dcache_flush)
../../bsp/ucosii_net_rozipfs/\libucosii_bsp.a(alt_dev.o)
                              ../../bsp/ucosii_net_rozipfs/\libucosii_bsp.a(alt_open.o) (alt_dev_list)
../../bsp/ucosii_net_rozipfs/\libucosii_bsp.a(alt_dev_llist_insert.o)
                              ../../bsp/ucosii_net_rozipfs/\libucosii_bsp.a(alt_sys_init.o) (alt_dev_llist_insert)
../../bsp/ucosii_net_rozipfs/\libucosii_bsp.a(alt_do_ctors.o)
                              ../../bsp/ucosii_net_rozipfs/\libucosii_bsp.a(alt_main.o) (_do_ctors)
../../bsp/ucosii_net_rozipfs/\libucosii_bsp.a(alt_do_dtors.o)
                              ../../bsp/ucosii_net_rozipfs/\libucosii_bsp.a(alt_main.o) (_do_dtors)
../../bsp/ucosii_net_rozipfs/\libucosii_bsp.a(alt_errno.o)
                              ../../bsp/ucosii_net_rozipfs/\libucosii_bsp.a(alt_fstat.o) (alt_errno)
../../bsp/ucosii_net_rozipfs/\libucosii_bsp.a(alt_find_dev.o)
                              ../../bsp/ucosii_net_rozipfs/\libucosii_bsp.a(alt_open.o) (alt_find_dev)
../../bsp/ucosii_net_rozipfs/\libucosii_bsp.a(alt_find_file.o)
                              ../../bsp/ucosii_net_rozipfs/\libucosii_bsp.a(alt_open.o) (alt_find_file)
../../bsp/ucosii_net_rozipfs/\libucosii_bsp.a(alt_flash_dev.o)
                              ../../bsp/ucosii_net_rozipfs/\libucosii_bsp.a(altera_avalon_cfi_flash.o) (alt_flash_dev_list)
../../bsp/ucosii_net_rozipfs/\libucosii_bsp.a(alt_fs_reg.o)
                              ../../bsp/ucosii_net_rozipfs/\libucosii_bsp.a(alt_sys_init.o) (alt_fs_reg)
../../bsp/ucosii_net_rozipfs/\libucosii_bsp.a(alt_get_fd.o)
                              ../../bsp/ucosii_net_rozipfs/\libucosii_bsp.a(alt_open.o) (alt_get_fd)
../../bsp/ucosii_net_rozipfs/\libucosii_bsp.a(alt_iic.o)
                              ../../bsp/ucosii_net_rozipfs/\libucosii_bsp.a(altera_avalon_jtag_uart_init.o) (alt_ic_isr_register)
../../bsp/ucosii_net_rozipfs/\libucosii_bsp.a(alt_iic_isr_register.o)
                              ../../bsp/ucosii_net_rozipfs/\libucosii_bsp.a(alt_iic.o) (alt_iic_isr_register)
../../bsp/ucosii_net_rozipfs/\libucosii_bsp.a(alt_io_redirect.o)
                              ../../bsp/ucosii_net_rozipfs/\libucosii_bsp.a(alt_main.o) (alt_io_redirect)
../../bsp/ucosii_net_rozipfs/\libucosii_bsp.a(alt_irq_entry.o)
                              ../../bsp/ucosii_net_rozipfs/\libucosii_bsp.a(alt_iic_isr_register.o) (alt_irq_entry)
../../bsp/ucosii_net_rozipfs/\libucosii_bsp.a(alt_irq_handler.o)
                              ../../bsp/ucosii_net_rozipfs/\libucosii_bsp.a(alt_iic_isr_register.o) (alt_irq_handler)
../../bsp/ucosii_net_rozipfs/\libucosii_bsp.a(alt_irq_vars.o)
                              ../../bsp/ucosii_net_rozipfs/\libucosii_bsp.a(alt_iic.o) (alt_irq_active)
../../bsp/ucosii_net_rozipfs/\libucosii_bsp.a(alt_read.o)
                              ../../bsp/ucosii_net_rozipfs/\libucosii_bsp.a(alt_iniche_read.o) (alt_read)
../../bsp/ucosii_net_rozipfs/\libucosii_bsp.a(alt_remap_cached.o)
                              ../../bsp/ucosii_net_rozipfs/\libucosii_bsp.a(ins_tse_mac.o) (alt_remap_cached)
../../bsp/ucosii_net_rozipfs/\libucosii_bsp.a(alt_remap_uncached.o)
                              ../../bsp/ucosii_net_rozipfs/\libucosii_bsp.a(altera_avalon_sgdma.o) (alt_remap_uncached)
../../bsp/ucosii_net_rozipfs/\libucosii_bsp.a(alt_uncached_malloc.o)
                              ../../bsp/ucosii_net_rozipfs/\libucosii_bsp.a(ins_tse_mac.o) (alt_uncached_malloc)
../../bsp/ucosii_net_rozipfs/\libucosii_bsp.a(alt_write.o)
                              ../../bsp/ucosii_net_rozipfs/\libucosii_bsp.a(alt_iniche_write.o) (alt_write)
../../bsp/ucosii_net_rozipfs/\libucosii_bsp.a(altera_nios2_qsys_irq.o)
                              ../../bsp/ucosii_net_rozipfs/\libucosii_bsp.a(alt_sys_init.o) (altera_nios2_qsys_irq_init)
../../bsp/ucosii_net_rozipfs/\libucosii_bsp.a(os_cpu_a.o)
                              ../../bsp/ucosii_net_rozipfs/\libucosii_bsp.a(os_core.o) (OSIntCtxSw)
../../bsp/ucosii_net_rozipfs/\libucosii_bsp.a(os_cpu_c.o)
                              ../../bsp/ucosii_net_rozipfs/\libucosii_bsp.a(os_task.o) (OSTaskStkInit)
../../bsp/ucosii_net_rozipfs/\libucosii_bsp.a(altera_avalon_cfi_flash_amd.o)
                              ../../bsp/ucosii_net_rozipfs/\libucosii_bsp.a(altera_avalon_cfi_flash_table.o) (alt_program_amd)
../../bsp/ucosii_net_rozipfs/\libucosii_bsp.a(altera_avalon_cfi_flash_intel.o)
                              ../../bsp/ucosii_net_rozipfs/\libucosii_bsp.a(altera_avalon_cfi_flash_table.o) (alt_program_intel)
../../bsp/ucosii_net_rozipfs/\libucosii_bsp.a(allports.o)
                              ../../bsp/ucosii_net_rozipfs/\libucosii_bsp.a(dhcpclnt.o) (name)
../../bsp/ucosii_net_rozipfs/\libucosii_bsp.a(timeouts.o)
                              ../../bsp/ucosii_net_rozipfs/\libucosii_bsp.a(netmain.o) (inet_timer)
../../bsp/ucosii_net_rozipfs/\libucosii_bsp.a(tk_misc.o)
                              ../../bsp/ucosii_net_rozipfs/\libucosii_bsp.a(netmain.o) (create_apptasks)
../../bsp/ucosii_net_rozipfs/\libucosii_bsp.a(alt_iniche_fcntl.o)
                              ../../bsp/ucosii_net_rozipfs/\libucosii_bsp.a(brdutils.o) (fcntl)
../../bsp/ucosii_net_rozipfs/\libucosii_bsp.a(et_arp.o)
                              ../../bsp/ucosii_net_rozipfs/\libucosii_bsp.a(ipstart.o) (etainit)
../../bsp/ucosii_net_rozipfs/\libucosii_bsp.a(iface.o)
                              ../../bsp/ucosii_net_rozipfs/\libucosii_bsp.a(ipnet.o) (netlist)
../../bsp/ucosii_net_rozipfs/\libucosii_bsp.a(ip.o)
                              ../../bsp/ucosii_net_rozipfs/\libucosii_bsp.a(ipstart.o) (ip_init)
../../bsp/ucosii_net_rozipfs/\libucosii_bsp.a(ip_reasm.o)
                              ../../bsp/ucosii_net_rozipfs/\libucosii_bsp.a(timeouts.o) (ire_cticks)
../../bsp/ucosii_net_rozipfs/\libucosii_bsp.a(ipdemux.o)
                              ../../bsp/ucosii_net_rozipfs/\libucosii_bsp.a(ipnet.o) (ip_rcv)
../../bsp/ucosii_net_rozipfs/\libucosii_bsp.a(ipmc.o)
                              ../../bsp/ucosii_net_rozipfs/\libucosii_bsp.a(ipstart.o) (in_addmulti)
../../bsp/ucosii_net_rozipfs/\libucosii_bsp.a(ipport.o)
                              ../../bsp/ucosii_net_rozipfs/\libucosii_bsp.a(targnios.o) (port_prep)
../../bsp/ucosii_net_rozipfs/\libucosii_bsp.a(ipraw.o)
                              ../../bsp/ucosii_net_rozipfs/\libucosii_bsp.a(rawsock.o) (ipraw_eps)
../../bsp/ucosii_net_rozipfs/\libucosii_bsp.a(iproute.o)
                              ../../bsp/ucosii_net_rozipfs/\libucosii_bsp.a(ip.o) (cachedRoute)
../../bsp/ucosii_net_rozipfs/\libucosii_bsp.a(udp.o)
                              ../../bsp/ucosii_net_rozipfs/\libucosii_bsp.a(ipdemux.o) (udpdemux)
../../bsp/ucosii_net_rozipfs/\libucosii_bsp.a(igmp.o)
                              ../../bsp/ucosii_net_rozipfs/\libucosii_bsp.a(igmp_cmn.o) (igmpv1_input)
../../bsp/ucosii_net_rozipfs/\libucosii_bsp.a(igmp2.o)
                              ../../bsp/ucosii_net_rozipfs/\libucosii_bsp.a(igmp_cmn.o) (igmpv2_input)
../../bsp/ucosii_net_rozipfs/\libucosii_bsp.a(ipopt.o)
                              ../../bsp/ucosii_net_rozipfs/\libucosii_bsp.a(socket.o) (ip_setmoptions)
../../bsp/ucosii_net_rozipfs/\libucosii_bsp.a(u_mctest.o)
                              ../../bsp/ucosii_net_rozipfs/\libucosii_bsp.a(allports.o) (u_mctest_init)
../../bsp/ucosii_net_rozipfs/\libucosii_bsp.a(dhcsetup.o)
                              ../../bsp/ucosii_net_rozipfs/\libucosii_bsp.a(allports.o) (dhc_setup)
../../bsp/ucosii_net_rozipfs/\libucosii_bsp.a(memdev.o)
                              ../../bsp/ucosii_net_rozipfs/\libucosii_bsp.a(allports.o) (init_memdev)
../../bsp/ucosii_net_rozipfs/\libucosii_bsp.a(parseip.o)
                              ../../bsp/ucosii_net_rozipfs/\libucosii_bsp.a(u_mctest.o) (inet_addr)
../../bsp/ucosii_net_rozipfs/\libucosii_bsp.a(tcpcksum.o)
                              ../../bsp/ucosii_net_rozipfs/\libucosii_bsp.a(nptcp.o) (tcp_cksum)
../../bsp/ucosii_net_rozipfs/\libucosii_bsp.a(in_pcb.o)
                              ../../bsp/ucosii_net_rozipfs/\libucosii_bsp.a(tcp_usr.o) (in_pcballoc)
../../bsp/ucosii_net_rozipfs/\libucosii_bsp.a(vfsfiles.o)
                              ../../bsp/ucosii_net_rozipfs/\libucosii_bsp.a(memdev.o) (vfsystems)
../../bsp/ucosii_net_rozipfs/\libucosii_bsp.a(vfsport.o)
                              ../../bsp/ucosii_net_rozipfs/\libucosii_bsp.a(allports.o) (prep_vfs)
../../bsp/ucosii_net_rozipfs/\libucosii_bsp.a(alt_exception_entry.o)
                              ../../bsp/ucosii_net_rozipfs/\libucosii_bsp.a(alt_irq_entry.o) (alt_exception)
../../bsp/ucosii_net_rozipfs/\libucosii_bsp.a(alt_fcntl.o)
                              ../../bsp/ucosii_net_rozipfs/\libucosii_bsp.a(alt_iniche_fcntl.o) (alt_fcntl)
../../bsp/ucosii_net_rozipfs/\libucosii_bsp.a(icmp.o)
                              ../../bsp/ucosii_net_rozipfs/\libucosii_bsp.a(ipdemux.o) (icmprcv)
d:/altera/12.1sp1b243/nios2eds/bin/gnu/h-i686-mingw32/bin/../lib/gcc/nios2-elf/4.1.2/../../../../nios2-elf/lib\libc.a(lib_a-atexit.o)
                              ../../bsp/ucosii_net_rozipfs/\libucosii_bsp.a(alt_main.o) (atexit)
d:/altera/12.1sp1b243/nios2eds/bin/gnu/h-i686-mingw32/bin/../lib/gcc/nios2-elf/4.1.2/../../../../nios2-elf/lib\libc.a(lib_a-exit.o)
                              ../../bsp/ucosii_net_rozipfs/\libucosii_bsp.a(alt_main.o) (exit)
d:/altera/12.1sp1b243/nios2eds/bin/gnu/h-i686-mingw32/bin/../lib/gcc/nios2-elf/4.1.2/../../../../nios2-elf/lib\libc.a(lib_a-vprintf.o)
                              ../../bsp/ucosii_net_rozipfs/\libucosii_bsp.a(in_utils.o) (vprintf)
d:/altera/12.1sp1b243/nios2eds/bin/gnu/h-i686-mingw32/bin/../lib/gcc/nios2-elf/4.1.2/../../../../nios2-elf/lib\libc.a(lib_a-__atexit.o)
                              d:/altera/12.1sp1b243/nios2eds/bin/gnu/h-i686-mingw32/bin/../lib/gcc/nios2-elf/4.1.2/../../../../nios2-elf/lib\libc.a(lib_a-atexit.o) (__register_exitproc)
d:/altera/12.1sp1b243/nios2eds/bin/gnu/h-i686-mingw32/bin/../lib/gcc/nios2-elf/4.1.2/../../../../nios2-elf/lib\libc.a(lib_a-__call_atexit.o)
                              d:/altera/12.1sp1b243/nios2eds/bin/gnu/h-i686-mingw32/bin/../lib/gcc/nios2-elf/4.1.2/../../../../nios2-elf/lib\libc.a(lib_a-exit.o) (__call_exitprocs)
../../bsp/ucosii_net_rozipfs/\libucosii_bsp.a(alt_exit.o)
                              d:/altera/12.1sp1b243/nios2eds/bin/gnu/h-i686-mingw32/bin/../lib/gcc/nios2-elf/4.1.2/../../../../nios2-elf/lib\libc.a(lib_a-exit.o) (_exit)

Allocating common symbols
Common symbol       size              file

soq                 0x14              ../../bsp/ucosii_net_rozipfs/\libucosii_bsp.a(nptcp.o)
WebserverStatusMbox
                    0x4               obj/default/src/main.o
alt_irq             0x100             ../../bsp/ucosii_net_rozipfs/\libucosii_bsp.a(alt_irq_handler.o)
tcp_optionbuf       0x4               ../../bsp/ucosii_net_rozipfs/\libucosii_bsp.a(tcp_out.o)
rt_mib              0x4               ../../bsp/ucosii_net_rozipfs/\libucosii_bsp.a(ip.o)
so_evtmap_create    0x4               ../../bsp/ucosii_net_rozipfs/\libucosii_bsp.a(ipport.o)
board_funcs         0x2a              obj/default/src/webserver.o
OSLockNesting       0x1               ../../bsp/ucosii_net_rozipfs/\libucosii_bsp.a(os_core.o)
ws_msg_string       0x100             obj/default/src/webserver.o
tcb                 0x2c              ../../bsp/ucosii_net_rozipfs/\libucosii_bsp.a(tcp_subr.o)
OSRunning           0x1               ../../bsp/ucosii_net_rozipfs/\libucosii_bsp.a(os_core.o)
dhc_states          0xf0              ../../bsp/ucosii_net_rozipfs/\libucosii_bsp.a(dhcpclnt.o)
tcpstat             0xe0              ../../bsp/ucosii_net_rozipfs/\libucosii_bsp.a(tcp_subr.o)
OSIdleCtr           0x4               ../../bsp/ucosii_net_rozipfs/\libucosii_bsp.a(os_core.o)
udp_mib             0x10              ../../bsp/ucosii_net_rozipfs/\libucosii_bsp.a(udp.o)
to_netmain          0x1               ../../bsp/ucosii_net_rozipfs/\libucosii_bsp.a(netmain.o)
OSPrioHighRdy       0x1               ../../bsp/ucosii_net_rozipfs/\libucosii_bsp.a(os_core.o)
errno               0x4               d:/altera/12.1sp1b243/nios2eds/bin/gnu/h-i686-mingw32/bin/../lib/gcc/nios2-elf/4.1.2/../../../../nios2-elf/lib\libc.a(lib_a-int_errno.o)
lilfreeq            0x14              ../../bsp/ucosii_net_rozipfs/\libucosii_bsp.a(pktalloc.o)
icmp_mib            0x68              ../../bsp/ucosii_net_rozipfs/\libucosii_bsp.a(icmp.o)
pmac_groups         0x10              ../../bsp/ucosii_net_rozipfs/\libucosii_bsp.a(altera_avalon_tse.o)
resid_semaphore     0x40              ../../bsp/ucosii_net_rozipfs/\libucosii_bsp.a(targnios.o)
alt_heapsem         0x4               ../../bsp/ucosii_net_rozipfs/\libucosii_bsp.a(alt_malloc_lock.o)
OSFlagTbl           0x370             ../../bsp/ucosii_net_rozipfs/\libucosii_bsp.a(os_core.o)
mbstat              0x8               ../../bsp/ucosii_net_rozipfs/\libucosii_bsp.a(nptcp.o)
netq_intmask        0x4               ../../bsp/ucosii_net_rozipfs/\libucosii_bsp.a(osportco.o)
netman_task_stk     0x2000            obj/default/src/webserver.o
select_wait         0x2               ../../bsp/ucosii_net_rozipfs/\libucosii_bsp.a(nptcp.o)
tse_iniche_dev_driver_data
                    0x30              ../../bsp/ucosii_net_rozipfs/\libucosii_bsp.a(ins_tse_mac.o)
tcpmib              0x3c              ../../bsp/ucosii_net_rozipfs/\libucosii_bsp.a(nptcp.o)
OSPrioCur           0x1               ../../bsp/ucosii_net_rozipfs/\libucosii_bsp.a(os_core.o)
tse                 0x130             ../../bsp/ucosii_net_rozipfs/\libucosii_bsp.a(ins_tse_mac.o)
mheap_sem_ptr       0x4               ../../bsp/ucosii_net_rozipfs/\libucosii_bsp.a(targnios.o)
netlist             0x14              ../../bsp/ucosii_net_rozipfs/\libucosii_bsp.a(iface.o)
mbufq               0x14              ../../bsp/ucosii_net_rozipfs/\libucosii_bsp.a(nptcp.o)
OSTCBList           0x4               ../../bsp/ucosii_net_rozipfs/\libucosii_bsp.a(os_core.o)
alt_fd_list_lock    0x4               ../../bsp/ucosii_net_rozipfs/\libucosii_bsp.a(alt_dev.o)
OSMemTbl            0xc30             ../../bsp/ucosii_net_rozipfs/\libucosii_bsp.a(os_core.o)
OSTickStepState     0x1               ../../bsp/ucosii_net_rozipfs/\libucosii_bsp.a(os_core.o)
line_count          0x4               obj/default/src/webserver.o
OSTaskStatStk       0x800             ../../bsp/ucosii_net_rozipfs/\libucosii_bsp.a(os_core.o)
OSCtxSwCtr          0x4               ../../bsp/ucosii_net_rozipfs/\libucosii_bsp.a(os_core.o)
igmpstats           0x64              ../../bsp/ucosii_net_rozipfs/\libucosii_bsp.a(igmp_cmn.o)
ire_stats           0x18              ../../bsp/ucosii_net_rozipfs/\libucosii_bsp.a(ip_reasm.o)
lcd_task_stk        0x1000            obj/default/src/main.o
__hexdig            0x100             d:/altera/12.1sp1b243/nios2eds/bin/gnu/h-i686-mingw32/bin/../lib/gcc/nios2-elf/4.1.2/../../../../nios2-elf/lib\libc.a(lib_a-gdtoa-gethex.o)
old_mode            0x4               ../../bsp/ucosii_net_rozipfs/\libucosii_bsp.a(osportco.o)
vfs_dir_stale       0x4               ../../bsp/ucosii_net_rozipfs/\libucosii_bsp.a(vfsfiles.o)
pphy_profiles       0x10              ../../bsp/ucosii_net_rozipfs/\libucosii_bsp.a(altera_avalon_tse.o)
cticks_factor       0x4               ../../bsp/ucosii_net_rozipfs/\libucosii_bsp.a(brdutils.o)
OSIdleCtrMax        0x4               ../../bsp/ucosii_net_rozipfs/\libucosii_bsp.a(os_core.o)
memestats           0x10              ../../bsp/ucosii_net_rozipfs/\libucosii_bsp.a(pktalloc.o)
intimers            0x64              ../../bsp/ucosii_net_rozipfs/\libucosii_bsp.a(timeouts.o)
OSTCBFreeList       0x4               ../../bsp/ucosii_net_rozipfs/\libucosii_bsp.a(os_core.o)
global_TCPwakeup_setIndx
                    0x4               ../../bsp/ucosii_net_rozipfs/\libucosii_bsp.a(osportco.o)
rcvdq               0x14              ../../bsp/ucosii_net_rozipfs/\libucosii_bsp.a(ipnet.o)
http_rx_buffer      0xc000            obj/default/src/webserver.o
global_tcb_ext      0xfc              ../../bsp/ucosii_net_rozipfs/\libucosii_bsp.a(osportco.o)
netstatic           0x300             ../../bsp/ucosii_net_rozipfs/\libucosii_bsp.a(ipstart.o)
OSPrintfSem         0x4               obj/default/src/os_utils.o
tcp_maxidle         0x4               ../../bsp/ucosii_net_rozipfs/\libucosii_bsp.a(tcp_timr.o)
OSCPUUsage          0x1               ../../bsp/ucosii_net_rozipfs/\libucosii_bsp.a(os_core.o)
nets                0x10              ../../bsp/ucosii_net_rozipfs/\libucosii_bsp.a(ipstart.o)
pktlog              0xf0              ../../bsp/ucosii_net_rozipfs/\libucosii_bsp.a(pktalloc.o)
frag                0x104             obj/default/src/webserver.o
OSTaskCtr           0x1               ../../bsp/ucosii_net_rozipfs/\libucosii_bsp.a(os_core.o)
OSMemFreeList       0x4               ../../bsp/ucosii_net_rozipfs/\libucosii_bsp.a(os_core.o)
vfs_open_files      0x4               ../../bsp/ucosii_net_rozipfs/\libucosii_bsp.a(vfsfiles.o)
cticks              0x4               ../../bsp/ucosii_net_rozipfs/\libucosii_bsp.a(osportco.o)
to_nettick          0x1               ../../bsp/ucosii_net_rozipfs/\libucosii_bsp.a(netmain.o)
OSQTbl              0x1e0             ../../bsp/ucosii_net_rozipfs/\libucosii_bsp.a(os_core.o)
OSTCBHighRdy        0x4               ../../bsp/ucosii_net_rozipfs/\libucosii_bsp.a(os_core.o)
OSQFreeList         0x4               ../../bsp/ucosii_net_rozipfs/\libucosii_bsp.a(os_core.o)
OSRdyGrp            0x1               ../../bsp/ucosii_net_rozipfs/\libucosii_bsp.a(os_core.o)
ip_mib              0x50              ../../bsp/ucosii_net_rozipfs/\libucosii_bsp.a(ip.o)
OS_TPS              0x4               ../../bsp/ucosii_net_rozipfs/\libucosii_bsp.a(brdutils.o)
_atexit0            0x190             d:/altera/12.1sp1b243/nios2eds/bin/gnu/h-i686-mingw32/bin/../lib/gcc/nios2-elf/4.1.2/../../../../nios2-elf/lib\libc.a(lib_a-atexit.o)
progress            0x14              obj/default/src/webserver.o
OSRdyTbl            0x3               ../../bsp/ucosii_net_rozipfs/\libucosii_bsp.a(os_core.o)
igmp_all_hosts_group
                    0x4               ../../bsp/ucosii_net_rozipfs/\libucosii_bsp.a(igmp_cmn.o)
eth_prt_buf         0x12              ../../bsp/ucosii_net_rozipfs/\libucosii_bsp.a(in_utils.o)
app_semaphore       0x18              ../../bsp/ucosii_net_rozipfs/\libucosii_bsp.a(targnios.o)
tse_mac_if          0xe0              ../../bsp/ucosii_net_rozipfs/\libucosii_bsp.a(alt_sys_init.o)
rcvdq_sem_ptr       0x4               ../../bsp/ucosii_net_rozipfs/\libucosii_bsp.a(targnios.o)
OSEventFreeList     0x4               ../../bsp/ucosii_net_rozipfs/\libucosii_bsp.a(os_core.o)
http_tx_buffer      0xc000            obj/default/src/webserver.o
mfreeq              0x14              ../../bsp/ucosii_net_rozipfs/\libucosii_bsp.a(nptcp.o)
global_TCPwakeup_set
                    0xf0              ../../bsp/ucosii_net_rozipfs/\libucosii_bsp.a(osportco.o)
bigfreeq            0x14              ../../bsp/ucosii_net_rozipfs/\libucosii_bsp.a(pktalloc.o)
so_evtmap_delete    0x4               ../../bsp/ucosii_net_rozipfs/\libucosii_bsp.a(ipport.o)
tcp_saveti          0x28              ../../bsp/ucosii_net_rozipfs/\libucosii_bsp.a(tcp_in.o)
OSIntNesting        0x1               ../../bsp/ucosii_net_rozipfs/\libucosii_bsp.a(os_core.o)
so_evtmap           0x1               ../../bsp/ucosii_net_rozipfs/\libucosii_bsp.a(ipport.o)
to_wstask           0x1               obj/default/src/webserver.o
OSTCBCur            0x4               ../../bsp/ucosii_net_rozipfs/\libucosii_bsp.a(os_core.o)
arp_table           0x100             ../../bsp/ucosii_net_rozipfs/\libucosii_bsp.a(et_arp.o)
tcp_iss             0x4               ../../bsp/ucosii_net_rozipfs/\libucosii_bsp.a(tcp_timr.o)
vfs_total_rw_space  0x4               ../../bsp/ucosii_net_rozipfs/\libucosii_bsp.a(vfsfiles.o)
OSTime              0x4               ../../bsp/ucosii_net_rozipfs/\libucosii_bsp.a(os_core.o)
OSTaskIdleStk       0x800             ../../bsp/ucosii_net_rozipfs/\libucosii_bsp.a(os_core.o)
OSEventTbl          0xb40             ../../bsp/ucosii_net_rozipfs/\libucosii_bsp.a(os_core.o)
vfs_total_dyna_files
                    0x4               ../../bsp/ucosii_net_rozipfs/\libucosii_bsp.a(vfsfiles.o)
OSTCBTbl            0x510             ../../bsp/ucosii_net_rozipfs/\libucosii_bsp.a(os_core.o)
ipreturn            0x12              ../../bsp/ucosii_net_rozipfs/\libucosii_bsp.a(in_utils.o)
led_task_stk        0x1000            obj/default/src/main.o
OSFlagFreeList      0x4               ../../bsp/ucosii_net_rozipfs/\libucosii_bsp.a(os_core.o)
dropline            0x4               ../../bsp/ucosii_net_rozipfs/\libucosii_bsp.a(tcp_in.o)
OSStatRdy           0x1               ../../bsp/ucosii_net_rozipfs/\libucosii_bsp.a(os_core.o)
OSTCBPrioTbl        0x54              ../../bsp/ucosii_net_rozipfs/\libucosii_bsp.a(os_core.o)
igmp_all_rtrs_group
                    0x4               ../../bsp/ucosii_net_rozipfs/\libucosii_bsp.a(igmp_cmn.o)
alt_envsem          0x4               ../../bsp/ucosii_net_rozipfs/\libucosii_bsp.a(alt_env_lock.o)
OSIdleCtrRun        0x4               ../../bsp/ucosii_net_rozipfs/\libucosii_bsp.a(os_core.o)

Memory Configuration

Name             Origin             Length             Attributes
ext_flash_BEFORE_RESET 0x00000000         0x01bc0000
reset            0x01bc0000         0x00000020
ext_flash        0x01bc0020         0x0243ffe0
ssram            0x07000000         0x00200000
descriptor_memory 0x08000000         0x00002000
onchip_ram_BEFORE_EXCEPTION 0x08200000         0x00000020
onchip_ram       0x08200020         0x0007ffe0
*default*        0x00000000         0xffffffff

Linker script and memory map

LOAD ../../bsp/ucosii_net_rozipfs//obj/HAL/src/crt0.o
LOAD obj/default/src/flash_intel_p30/flash_intel_p30.o
LOAD obj/default/src/main.o
LOAD obj/default/src/os_utils.o
LOAD obj/default/src/reconfig_utils.o
LOAD obj/default/src/srec/srec.o
LOAD obj/default/src/tse_my_system.o
LOAD obj/default/src/webserver.o
LOAD d:/altera/12.1sp1b243/nios2eds/bin/gnu/h-i686-mingw32/bin/../lib/gcc/nios2-elf/4.1.2/../../../../nios2-elf/lib\libstdc++.a
LOAD d:/altera/12.1sp1b243/nios2eds/bin/gnu/h-i686-mingw32/bin/../lib/gcc/nios2-elf/4.1.2/../../../../nios2-elf/lib\libm.a
LOAD d:/altera/12.1sp1b243/nios2eds/bin/gnu/h-i686-mingw32/bin/../lib/gcc/nios2-elf/4.1.2\libgcc.a
START GROUP
LOAD d:/altera/12.1sp1b243/nios2eds/bin/gnu/h-i686-mingw32/bin/../lib/gcc/nios2-elf/4.1.2/../../../../nios2-elf/lib\libc.a
LOAD d:/altera/12.1sp1b243/nios2eds/bin/gnu/h-i686-mingw32/bin/../lib/gcc/nios2-elf/4.1.2\libgcc.a
LOAD ../../bsp/ucosii_net_rozipfs/\libucosii_bsp.a
END GROUP
LOAD d:/altera/12.1sp1b243/nios2eds/bin/gnu/h-i686-mingw32/bin/../lib/gcc/nios2-elf/4.1.2\libgcc.a
                0x00000000                __alt_mem_ext_flash = 0x0
                0x07000000                __alt_mem_ssram = 0x7000000
                0x08000000                __alt_mem_descriptor_memory = 0x8000000
                0x08200000                __alt_mem_onchip_ram = 0x8200000

.entry          0x01bc0000        0x0
 *(.entry)
 .entry         0x01bc0000        0x0 ../../bsp/ucosii_net_rozipfs//obj/HAL/src/crt0.o
                0x01bc0000                __reset

.exceptions     0x08200020      0x19c
                0x08200020                PROVIDE (__ram_exceptions_start, ABSOLUTE (.))
                0x08200020                . = ALIGN (0x20)
 *(.irq)
 *(.exceptions.entry.label)
 .exceptions.entry.label
                0x08200020        0x0 ../../bsp/ucosii_net_rozipfs/\libucosii_bsp.a(alt_irq_entry.o)
                0x08200020                alt_irq_entry
 .exceptions.entry.label
                0x08200020        0x0 ../../bsp/ucosii_net_rozipfs/\libucosii_bsp.a(alt_exception_entry.o)
                0x08200020                alt_exception
 *(.exceptions.entry.user)
 *(.exceptions.entry)
 .exceptions.entry
                0x08200020       0x54 ../../bsp/ucosii_net_rozipfs/\libucosii_bsp.a(alt_exception_entry.o)
 *(.exceptions.irqtest.user)
 *(.exceptions.irqtest)
 .exceptions.irqtest
                0x08200074       0x10 ../../bsp/ucosii_net_rozipfs/\libucosii_bsp.a(alt_irq_entry.o)
 *(.exceptions.irqhandler.user)
 *(.exceptions.irqhandler)
 .exceptions.irqhandler
                0x08200084        0x4 ../../bsp/ucosii_net_rozipfs/\libucosii_bsp.a(alt_irq_entry.o)
 *(.exceptions.irqreturn.user)
 *(.exceptions.irqreturn)
 .exceptions.irqreturn
                0x08200088        0x4 ../../bsp/ucosii_net_rozipfs/\libucosii_bsp.a(alt_irq_entry.o)
 *(.exceptions.notirq.label)
 .exceptions.notirq.label
                0x0820008c        0x0 ../../bsp/ucosii_net_rozipfs/\libucosii_bsp.a(alt_irq_entry.o)
 *(.exceptions.notirq.user)
 *(.exceptions.notirq)
 .exceptions.notirq
                0x0820008c        0x8 ../../bsp/ucosii_net_rozipfs/\libucosii_bsp.a(alt_exception_entry.o)
 *(.exceptions.soft.user)
 *(.exceptions.soft)
 *(.exceptions.unknown.user)
 *(.exceptions.unknown)
 .exceptions.unknown
                0x08200094        0x4 ../../bsp/ucosii_net_rozipfs/\libucosii_bsp.a(alt_exception_entry.o)
 *(.exceptions.exit.label)
 .exceptions.exit.label
                0x08200098        0x0 ../../bsp/ucosii_net_rozipfs/\libucosii_bsp.a(alt_irq_entry.o)
 .exceptions.exit.label
                0x08200098        0x0 ../../bsp/ucosii_net_rozipfs/\libucosii_bsp.a(alt_exception_entry.o)
 *(.exceptions.exit.user)
 *(.exceptions.exit)
 .exceptions.exit
                0x08200098       0x54 ../../bsp/ucosii_net_rozipfs/\libucosii_bsp.a(alt_exception_entry.o)
 *(.exceptions)
 .exceptions    0x082000ec       0xd0 ../../bsp/ucosii_net_rozipfs/\libucosii_bsp.a(alt_irq_handler.o)
                0x082000ec                alt_irq_handler
                0x082001bc                PROVIDE (__ram_exceptions_end, ABSOLUTE (.))
                0x08200020                PROVIDE (__flash_exceptions_start, LOADADDR (.exceptions))

.text           0x07000000    0x583a4
                0x07000000                PROVIDE (stext, ABSOLUTE (.))
 *(.interp)
 *(.hash)
 *(.dynsym)
 *(.dynstr)
 *(.gnu.version)
 *(.gnu.version_d)
 *(.gnu.version_r)
 *(.rel.init)
 *(.rela.init)
 *(.rel.text .rel.text.* .rel.gnu.linkonce.t.*)
 *(.rela.text .rela.text.* .rela.gnu.linkonce.t.*)
 *(.rel.fini)
 *(.rela.fini)
 *(.rel.rodata .rel.rodata.* .rel.gnu.linkonce.r.*)
 *(.rela.rodata .rela.rodata.* .rela.gnu.linkonce.r.*)
 *(.rel.data .rel.data.* .rel.gnu.linkonce.d.*)
 *(.rela.data .rela.data.* .rela.gnu.linkonce.d.*)
 *(.rel.tdata .rel.tdata.* .rel.gnu.linkonce.td.*)
 *(.rela.tdata .rela.tdata.* .rela.gnu.linkonce.td.*)
 *(.rel.tbss .rel.tbss.* .rel.gnu.linkonce.tb.*)
 *(.rela.tbss .rela.tbss.* .rela.gnu.linkonce.tb.*)
 *(.rel.ctors)
 *(.rela.ctors)
 *(.rel.dtors)
 *(.rela.dtors)
 *(.rel.got)
 *(.rela.got)
 *(.rel.sdata .rel.sdata.* .rel.gnu.linkonce.s.*)
 *(.rela.sdata .rela.sdata.* .rela.gnu.linkonce.s.*)
 *(.rel.sbss .rel.sbss.* .rel.gnu.linkonce.sb.*)
 *(.rela.sbss .rela.sbss.* .rela.gnu.linkonce.sb.*)
 *(.rel.sdata2 .rel.sdata2.* .rel.gnu.linkonce.s2.*)
 *(.rela.sdata2 .rela.sdata2.* .rela.gnu.linkonce.s2.*)
 *(.rel.sbss2 .rel.sbss2.* .rel.gnu.linkonce.sb2.*)
 *(.rela.sbss2 .rela.sbss2.* .rela.gnu.linkonce.sb2.*)
 *(.rel.bss .rel.bss.* .rel.gnu.linkonce.b.*)
 *(.rela.bss .rela.bss.* .rela.gnu.linkonce.b.*)
 *(.rel.plt)
 *(.rela.plt)
 *(.rel.dyn)
 *(.init)
 *(.plt)
 *(.text .stub .text.* .gnu.linkonce.t.*)
 .text          0x07000000       0x48 ../../bsp/ucosii_net_rozipfs//obj/HAL/src/crt0.o
                0x07000000                _start
 .text          0x07000048      0xe70 obj/default/src/flash_intel_p30/flash_intel_p30.o
                0x07000c0c                flash_intel_p30_write
                0x07000e40                flash_intel_p30_erase
 .text          0x07000eb8      0x278 obj/default/src/main.o
                0x07000eb8                LedTask
                0x07000f04                LCDTask
                0x07000f88                InitialTask
                0x070010c8                main
 .text          0x07001130      0x7b4 obj/default/src/os_utils.o
                0x07001130                printf
                0x07001244                fprintf
                0x070012c0                alt_uCOSIIErrorHandler
 .text          0x070018e4      0x174 obj/default/src/reconfig_utils.o
                0x070018e4                InitializePFLOptionBits
                0x070019f4                ReconfigFPGA
 .text          0x07001a58      0x8b8 obj/default/src/srec/srec.o
                0x07001a58                srec_decode
                0x07001fb0                srec_encode
                0x07002200                srec_strerror
 .text          0x07002310        0x0 obj/default/src/tse_my_system.o
 .text          0x07002310     0x4b20 obj/default/src/webserver.o
                0x07002310                print
                0x07002340                stats
                0x07002398                get_content_disposition_field
                0x07002438                find_string_in_buf
                0x07002534                http_parse_multipart_header
                0x0700278c                write_flash
                0x07002880                process_uploaded_data
                0x07002c30                lookup_flash_offset
                0x07002cd8                file_upload
                0x070032c4                http_reset_connection
                0x070033b4                http_manage_connection
                0x07003560                http_handle_accept
                0x07003688                http_read_line
                0x07003734                http_parse_type_boundary
                0x0700382c                http_process_headers
                0x07003a50                http_process_request
                0x07003d30                send_progress
                0x07003ff4                http_send_file_chunk
                0x070041a0                http_send_file_header
                0x07004974                http_find_file
                0x07004c88                http_send_redirect
                0x07004cbc                http_handle_post
                0x07004fe0                http_handle_get
                0x07005060                http_prepare_response
                0x070050d4                http_handle_receive
                0x070054a8                http_handle_transmit
                0x07005508                send_ip_addr
                0x07005738                ws_ipset
                0x07005840                suspend_network_tasks
                0x070058a0                resume_network_tasks
                0x07005900                wait_on_phy
                0x07005b58                net_init
                0x07005bdc                NetManTask
                0x07005d6c                NETInit
                0x07005e4c                WSTask
                0x070061d4                die_with_error
                0x07006204                in_chars
                0x070063d4                generate_and_store_mac_addr
                0x07006c40                get_board_mac_addr
                0x07006da8                get_mac_addr
                0x07006ddc                get_ip_addr
 .text          0x07006e30      0x14c d:/altera/12.1sp1b243/nios2eds/bin/gnu/h-i686-mingw32/bin/../lib/gcc/nios2-elf/4.1.2\libgcc.a(lib2-divmod.o)
                0x07006eac                __divsi3
                0x07006f0c                __modsi3
                0x07006f6c                __udivsi3
                0x07006f74                __umodsi3
 .text          0x07006f7c       0x18 d:/altera/12.1sp1b243/nios2eds/bin/gnu/h-i686-mingw32/bin/../lib/gcc/nios2-elf/4.1.2/../../../../nios2-elf/lib\libc.a(lib_a-atoi.o)
                0x07006f7c                _atoi_r
                0x07006f88                atoi
 .text          0x07006f94       0x1c d:/altera/12.1sp1b243/nios2eds/bin/gnu/h-i686-mingw32/bin/../lib/gcc/nios2-elf/4.1.2/../../../../nios2-elf/lib\libc.a(lib_a-calloc.o)
                0x07006f94                calloc
 .text          0x07006fb0       0xb4 d:/altera/12.1sp1b243/nios2eds/bin/gnu/h-i686-mingw32/bin/../lib/gcc/nios2-elf/4.1.2/../../../../nios2-elf/lib\libc.a(lib_a-callocr.o)
                0x07006fb0                _calloc_r
 .text          0x07007064        0x0 d:/altera/12.1sp1b243/nios2eds/bin/gnu/h-i686-mingw32/bin/../lib/gcc/nios2-elf/4.1.2/../../../../nios2-elf/lib\libc.a(lib_a-ctype_.o)
 .text          0x07007064      0x124 d:/altera/12.1sp1b243/nios2eds/bin/gnu/h-i686-mingw32/bin/../lib/gcc/nios2-elf/4.1.2/../../../../nios2-elf/lib\libc.a(lib_a-fclose.o)
                0x07007064                _fclose_r
                0x07007174                fclose
 .text          0x07007188      0x230 d:/altera/12.1sp1b243/nios2eds/bin/gnu/h-i686-mingw32/bin/../lib/gcc/nios2-elf/4.1.2/../../../../nios2-elf/lib\libc.a(lib_a-fflush.o)
                0x07007188                _fflush_r
                0x07007384                fflush
 .text          0x070073b8       0x48 d:/altera/12.1sp1b243/nios2eds/bin/gnu/h-i686-mingw32/bin/../lib/gcc/nios2-elf/4.1.2/../../../../nios2-elf/lib\libc.a(lib_a-fgetpos.o)
                0x070073b8                _fgetpos_r
                0x070073e4                fgetpos
 .text          0x07007400      0x2c0 d:/altera/12.1sp1b243/nios2eds/bin/gnu/h-i686-mingw32/bin/../lib/gcc/nios2-elf/4.1.2/../../../../nios2-elf/lib\libc.a(lib_a-findfp.o)
                0x07007458                __sfp_lock_acquire
                0x0700745c                __sfp_lock_release
                0x07007460                __sinit_lock_acquire
                0x07007464                __sinit_lock_release
                0x07007468                __sinit
                0x0700751c                __fp_unlock_all
                0x07007534                __fp_lock_all
                0x0700754c                _cleanup_r
                0x07007558                _cleanup
                0x07007568                __sfmoreglue
                0x070075d0                __sfp
 .text          0x070076c0      0x110 d:/altera/12.1sp1b243/nios2eds/bin/gnu/h-i686-mingw32/bin/../lib/gcc/nios2-elf/4.1.2/../../../../nios2-elf/lib\libc.a(lib_a-fopen.o)
                0x070076c0                _fopen_r
                0x070077b4                fopen
 .text          0x070077d0      0x23c d:/altera/12.1sp1b243/nios2eds/bin/gnu/h-i686-mingw32/bin/../lib/gcc/nios2-elf/4.1.2/../../../../nios2-elf/lib\libc.a(lib_a-fread.o)
                0x070077d0                _fread_r
                0x070079cc                fread
 .text          0x07007a0c      0x440 d:/altera/12.1sp1b243/nios2eds/bin/gnu/h-i686-mingw32/bin/../lib/gcc/nios2-elf/4.1.2/../../../../nios2-elf/lib\libc.a(lib_a-freer.o)
                0x07007a0c                _malloc_trim_r
                0x07007b38                _free_r
 .text          0x07007e4c      0x460 d:/altera/12.1sp1b243/nios2eds/bin/gnu/h-i686-mingw32/bin/../lib/gcc/nios2-elf/4.1.2/../../../../nios2-elf/lib\libc.a(lib_a-fseek.o)
                0x07007e4c                _fseek_r
                0x07008288                fseek
 .text          0x070082ac       0x74 d:/altera/12.1sp1b243/nios2eds/bin/gnu/h-i686-mingw32/bin/../lib/gcc/nios2-elf/4.1.2/../../../../nios2-elf/lib\libc.a(lib_a-fstatr.o)
                0x070082ac                _fstat_r
 .text          0x07008320      0x10c d:/altera/12.1sp1b243/nios2eds/bin/gnu/h-i686-mingw32/bin/../lib/gcc/nios2-elf/4.1.2/../../../../nios2-elf/lib\libc.a(lib_a-ftell.o)
                0x07008320                _ftell_r
                0x07008418                ftell
 .text          0x0700842c      0x180 d:/altera/12.1sp1b243/nios2eds/bin/gnu/h-i686-mingw32/bin/../lib/gcc/nios2-elf/4.1.2/../../../../nios2-elf/lib\libc.a(lib_a-fwalk.o)
                0x0700842c                _fwalk_reent
                0x070084f4                _fwalk
 .text          0x070085ac       0xdc d:/altera/12.1sp1b243/nios2eds/bin/gnu/h-i686-mingw32/bin/../lib/gcc/nios2-elf/4.1.2/../../../../nios2-elf/lib\libc.a(lib_a-fwrite.o)
                0x070085ac                _fwrite_r
                0x07008648                fwrite
 .text          0x07008688      0x128 d:/altera/12.1sp1b243/nios2eds/bin/gnu/h-i686-mingw32/bin/../lib/gcc/nios2-elf/4.1.2/../../../../nios2-elf/lib\libc.a(lib_a-getc.o)
                0x07008688                getc
                0x07008720                _getc_r
 .text          0x070087b0        0x0 d:/altera/12.1sp1b243/nios2eds/bin/gnu/h-i686-mingw32/bin/../lib/gcc/nios2-elf/4.1.2/../../../../nios2-elf/lib\libc.a(lib_a-impure.o)
 .text          0x070087b0        0x0 d:/altera/12.1sp1b243/nios2eds/bin/gnu/h-i686-mingw32/bin/../lib/gcc/nios2-elf/4.1.2/../../../../nios2-elf/lib\libc.a(lib_a-int_errno.o)
 .text          0x070087b0      0x194 d:/altera/12.1sp1b243/nios2eds/bin/gnu/h-i686-mingw32/bin/../lib/gcc/nios2-elf/4.1.2/../../../../nios2-elf/lib\libc.a(lib_a-makebuf.o)
                0x070087b0                __smakebuf_r
 .text          0x07008944       0x28 d:/altera/12.1sp1b243/nios2eds/bin/gnu/h-i686-mingw32/bin/../lib/gcc/nios2-elf/4.1.2/../../../../nios2-elf/lib\libc.a(lib_a-malloc.o)
                0x07008944                free
                0x07008958                malloc
 .text          0x0700896c      0x740 d:/altera/12.1sp1b243/nios2eds/bin/gnu/h-i686-mingw32/bin/../lib/gcc/nios2-elf/4.1.2/../../../../nios2-elf/lib\libc.a(lib_a-mallocr.o)
                0x0700896c                _malloc_r
 .text          0x070090ac       0xe4 d:/altera/12.1sp1b243/nios2eds/bin/gnu/h-i686-mingw32/bin/../lib/gcc/nios2-elf/4.1.2/../../../../nios2-elf/lib\libc.a(lib_a-memchr.o)
                0x070090ac                memchr
 .text          0x07009190       0x74 d:/altera/12.1sp1b243/nios2eds/bin/gnu/h-i686-mingw32/bin/../lib/gcc/nios2-elf/4.1.2/../../../../nios2-elf/lib\libc.a(lib_a-memcmp.o)
                0x07009190                memcmp
 .text          0x07009204       0xa0 d:/altera/12.1sp1b243/nios2eds/bin/gnu/h-i686-mingw32/bin/../lib/gcc/nios2-elf/4.1.2/../../../../nios2-elf/lib\libc.a(lib_a-memcpy.o)
                0x07009204                memcpy
 .text          0x070092a4       0xe0 d:/altera/12.1sp1b243/nios2eds/bin/gnu/h-i686-mingw32/bin/../lib/gcc/nios2-elf/4.1.2/../../../../nios2-elf/lib\libc.a(lib_a-memmove.o)
                0x070092a4                memmove
 .text          0x07009384       0x98 d:/altera/12.1sp1b243/nios2eds/bin/gnu/h-i686-mingw32/bin/../lib/gcc/nios2-elf/4.1.2/../../../../nios2-elf/lib\libc.a(lib_a-memset.o)
                0x07009384                memset
 .text          0x0700941c       0x78 d:/altera/12.1sp1b243/nios2eds/bin/gnu/h-i686-mingw32/bin/../lib/gcc/nios2-elf/4.1.2/../../../../nios2-elf/lib\libc.a(lib_a-openr.o)
                0x0700941c                _open_r
 .text          0x07009494       0x80 d:/altera/12.1sp1b243/nios2eds/bin/gnu/h-i686-mingw32/bin/../lib/gcc/nios2-elf/4.1.2/../../../../nios2-elf/lib\libc.a(lib_a-perror.o)
                0x07009494                _perror_r
                0x07009500                perror
 .text          0x07009514      0x1ec d:/altera/12.1sp1b243/nios2eds/bin/gnu/h-i686-mingw32/bin/../lib/gcc/nios2-elf/4.1.2/../../../../nios2-elf/lib\libc.a(lib_a-putc.o)
                0x07009514                putc
                0x07009618                _putc_r
 .text          0x07009700       0xb4 d:/altera/12.1sp1b243/nios2eds/bin/gnu/h-i686-mingw32/bin/../lib/gcc/nios2-elf/4.1.2/../../../../nios2-elf/lib\libc.a(lib_a-puts.o)
                0x07009700                _puts_r
                0x070097a0                puts
 .text          0x070097b4      0x1e0 d:/altera/12.1sp1b243/nios2eds/bin/gnu/h-i686-mingw32/bin/../lib/gcc/nios2-elf/4.1.2/../../../../nios2-elf/lib\libc.a(lib_a-refill.o)
                0x070097b4                __srefill_r
 .text          0x07009994       0x60 d:/altera/12.1sp1b243/nios2eds/bin/gnu/h-i686-mingw32/bin/../lib/gcc/nios2-elf/4.1.2/../../../../nios2-elf/lib\libc.a(lib_a-rget.o)
                0x07009994                __srget_r
                0x070099e0                __srget
 .text          0x070099f4       0x70 d:/altera/12.1sp1b243/nios2eds/bin/gnu/h-i686-mingw32/bin/../lib/gcc/nios2-elf/4.1.2/../../../../nios2-elf/lib\libc.a(lib_a-sbrkr.o)
                0x070099f4                _sbrk_r
 .text          0x07009a64       0xd4 d:/altera/12.1sp1b243/nios2eds/bin/gnu/h-i686-mingw32/bin/../lib/gcc/nios2-elf/4.1.2/../../../../nios2-elf/lib\libc.a(lib_a-sprintf.o)
                0x07009a64                sprintf
                0x07009ad8                _sprintf_r
 .text          0x07009b38      0x114 d:/altera/12.1sp1b243/nios2eds/bin/gnu/h-i686-mingw32/bin/../lib/gcc/nios2-elf/4.1.2/../../../../nios2-elf/lib\libc.a(lib_a-sscanf.o)
                0x07009b40                _sscanf_r
                0x07009bc8                sscanf
 .text          0x07009c4c      0x14c d:/altera/12.1sp1b243/nios2eds/bin/gnu/h-i686-mingw32/bin/../lib/gcc/nios2-elf/4.1.2/../../../../nios2-elf/lib\libc.a(lib_a-stdio.o)
                0x07009c4c                __sclose
                0x07009c54                __sseek
                0x07009cbc                __swrite
                0x07009d38                __sread
 .text          0x07009d98       0xb0 d:/altera/12.1sp1b243/nios2eds/bin/gnu/h-i686-mingw32/bin/../lib/gcc/nios2-elf/4.1.2/../../../../nios2-elf/lib\libc.a(lib_a-strcasecmp.o)
                0x07009d98                strcasecmp
 .text          0x07009e48       0xe0 d:/altera/12.1sp1b243/nios2eds/bin/gnu/h-i686-mingw32/bin/../lib/gcc/nios2-elf/4.1.2/../../../../nios2-elf/lib\libc.a(lib_a-strchr.o)
                0x07009e48                strchr
 .text          0x07009f28       0xbc d:/altera/12.1sp1b243/nios2eds/bin/gnu/h-i686-mingw32/bin/../lib/gcc/nios2-elf/4.1.2/../../../../nios2-elf/lib\libc.a(lib_a-strcmp.o)
                0x07009f28                strcmp
 .text          0x07009fe4       0x8c d:/altera/12.1sp1b243/nios2eds/bin/gnu/h-i686-mingw32/bin/../lib/gcc/nios2-elf/4.1.2/../../../../nios2-elf/lib\libc.a(lib_a-strcpy.o)
                0x07009fe4                strcpy
 .text          0x0700a070      0x674 d:/altera/12.1sp1b243/nios2eds/bin/gnu/h-i686-mingw32/bin/../lib/gcc/nios2-elf/4.1.2/../../../../nios2-elf/lib\libc.a(lib_a-strerror.o)
                0x0700a070                strerror
 .text          0x0700a6e4       0x74 d:/altera/12.1sp1b243/nios2eds/bin/gnu/h-i686-mingw32/bin/../lib/gcc/nios2-elf/4.1.2/../../../../nios2-elf/lib\libc.a(lib_a-strlen.o)
                0x0700a6e4                strlen
 .text          0x0700a758       0xf0 d:/altera/12.1sp1b243/nios2eds/bin/gnu/h-i686-mingw32/bin/../lib/gcc/nios2-elf/4.1.2/../../../../nios2-elf/lib\libc.a(lib_a-strncmp.o)
                0x0700a758                strncmp
 .text          0x0700a848       0xbc d:/altera/12.1sp1b243/nios2eds/bin/gnu/h-i686-mingw32/bin/../lib/gcc/nios2-elf/4.1.2/../../../../nios2-elf/lib\libc.a(lib_a-strncpy.o)
                0x0700a848                strncpy
 .text          0x0700a904      0x794 d:/altera/12.1sp1b243/nios2eds/bin/gnu/h-i686-mingw32/bin/../lib/gcc/nios2-elf/4.1.2/../../../../nios2-elf/lib\libc.a(lib_a-strstr.o)
                0x0700aa38                strstr
 .text          0x0700b098       0x18 d:/altera/12.1sp1b243/nios2eds/bin/gnu/h-i686-mingw32/bin/../lib/gcc/nios2-elf/4.1.2/../../../../nios2-elf/lib\libc.a(lib_a-strtok.o)
                0x0700b098                strtok
 .text          0x0700b0b0       0xac d:/altera/12.1sp1b243/nios2eds/bin/gnu/h-i686-mingw32/bin/../lib/gcc/nios2-elf/4.1.2/../../../../nios2-elf/lib\libc.a(lib_a-strtok_r.o)
                0x0700b0b0                __strtok_r
                0x0700b154                strtok_r
 .text          0x0700b15c      0x268 d:/altera/12.1sp1b243/nios2eds/bin/gnu/h-i686-mingw32/bin/../lib/gcc/nios2-elf/4.1.2/../../../../nios2-elf/lib\libc.a(lib_a-strtol.o)
                0x0700b15c                _strtol_r
                0x0700b3a0                strtol
 .text          0x0700b3c4        0x8 d:/altera/12.1sp1b243/nios2eds/bin/gnu/h-i686-mingw32/bin/../lib/gcc/nios2-elf/4.1.2/../../../../nios2-elf/lib\libc.a(lib_a-u_strerr.o)
                0x0700b3c4                _user_strerror
 .text          0x0700b3cc     0x1f28 d:/altera/12.1sp1b243/nios2eds/bin/gnu/h-i686-mingw32/bin/../lib/gcc/nios2-elf/4.1.2/../../../../nios2-elf/lib\libc.a(lib_a-vfprintf.o)
                0x0700b424                ___vfprintf_internal_r
                0x0700d2d0                __vfprintf_internal
 .text          0x0700d2f4     0x1780 d:/altera/12.1sp1b243/nios2eds/bin/gnu/h-i686-mingw32/bin/../lib/gcc/nios2-elf/4.1.2/../../../../nios2-elf/lib\libc.a(lib_a-vfscanf.o)
                0x0700d2f4                __svfscanf_r
                0x0700e974                __svfscanf
                0x0700e998                _vfscanf_r
                0x0700ea00                vfscanf
 .text          0x0700ea74       0x74 d:/altera/12.1sp1b243/nios2eds/bin/gnu/h-i686-mingw32/bin/../lib/gcc/nios2-elf/4.1.2/../../../../nios2-elf/lib\libc.a(lib_a-vsprintf.o)
                0x0700ea74                _vsprintf_r
                0x0700eac4                vsprintf
 .text          0x0700eae8      0x14c d:/altera/12.1sp1b243/nios2eds/bin/gnu/h-i686-mingw32/bin/../lib/gcc/nios2-elf/4.1.2/../../../../nios2-elf/lib\libc.a(lib_a-wbuf.o)
                0x0700eae8                __swbuf_r
                0x0700ec18                __swbuf
 .text          0x0700ec34       0x78 d:/altera/12.1sp1b243/nios2eds/bin/gnu/h-i686-mingw32/bin/../lib/gcc/nios2-elf/4.1.2/../../../../nios2-elf/lib\libc.a(lib_a-writer.o)
                0x0700ec34                _write_r
 .text          0x0700ecac      0x13c d:/altera/12.1sp1b243/nios2eds/bin/gnu/h-i686-mingw32/bin/../lib/gcc/nios2-elf/4.1.2/../../../../nios2-elf/lib\libc.a(lib_a-wsetup.o)
                0x0700ecac                __swsetup_r
 .text          0x0700ede8       0x70 d:/altera/12.1sp1b243/nios2eds/bin/gnu/h-i686-mingw32/bin/../lib/gcc/nios2-elf/4.1.2/../../../../nios2-elf/lib\libc.a(lib_a-closer.o)
                0x0700ede8                _close_r
 .text          0x0700ee58     0x17cc d:/altera/12.1sp1b243/nios2eds/bin/gnu/h-i686-mingw32/bin/../lib/gcc/nios2-elf/4.1.2/../../../../nios2-elf/lib\libc.a(lib_a-dtoa.o)
                0x0700f070                _dtoa_r
 .text          0x07010624       0xa0 d:/altera/12.1sp1b243/nios2eds/bin/gnu/h-i686-mingw32/bin/../lib/gcc/nios2-elf/4.1.2/../../../../nios2-elf/lib\libc.a(lib_a-flags.o)
                0x07010624                __sflags
 .text          0x070106c4       0xbc d:/altera/12.1sp1b243/nios2eds/bin/gnu/h-i686-mingw32/bin/../lib/gcc/nios2-elf/4.1.2/../../../../nios2-elf/lib\libc.a(lib_a-fputc.o)
                0x070106c4                fputc
                0x07010728                _fputc_r
 .text          0x07010780       0x90 d:/altera/12.1sp1b243/nios2eds/bin/gnu/h-i686-mingw32/bin/../lib/gcc/nios2-elf/4.1.2/../../../../nios2-elf/lib\libc.a(lib_a-fputs.o)
                0x07010780                _fputs_r
                0x070107f4                fputs
 .text          0x07010810      0x49c d:/altera/12.1sp1b243/nios2eds/bin/gnu/h-i686-mingw32/bin/../lib/gcc/nios2-elf/4.1.2/../../../../nios2-elf/lib\libc.a(lib_a-fvwrite.o)
                0x07010810                __sfvwrite_r
 .text          0x07010cac       0x70 d:/altera/12.1sp1b243/nios2eds/bin/gnu/h-i686-mingw32/bin/../lib/gcc/nios2-elf/4.1.2/../../../../nios2-elf/lib\libc.a(lib_a-isattyr.o)
                0x07010cac                _isatty_r
 .text          0x07010d1c       0x2c d:/altera/12.1sp1b243/nios2eds/bin/gnu/h-i686-mingw32/bin/../lib/gcc/nios2-elf/4.1.2/../../../../nios2-elf/lib\libc.a(lib_a-iswspace.o)
                0x07010d1c                iswspace
 .text          0x07010d48       0xc4 d:/altera/12.1sp1b243/nios2eds/bin/gnu/h-i686-mingw32/bin/../lib/gcc/nios2-elf/4.1.2/../../../../nios2-elf/lib\libc.a(lib_a-locale.o)
                0x07010d48                __locale_charset
                0x07010d50                _localeconv_r
                0x07010d5c                localeconv
                0x07010d6c                _setlocale_r
                0x07010df0                setlocale
 .text          0x07010e0c       0x78 d:/altera/12.1sp1b243/nios2eds/bin/gnu/h-i686-mingw32/bin/../lib/gcc/nios2-elf/4.1.2/../../../../nios2-elf/lib\libc.a(lib_a-lseekr.o)
                0x07010e0c                _lseek_r
 .text          0x07010e84       0xc0 d:/altera/12.1sp1b243/nios2eds/bin/gnu/h-i686-mingw32/bin/../lib/gcc/nios2-elf/4.1.2/../../../../nios2-elf/lib\libc.a(lib_a-mbrtowc.o)
                0x07010e84                _mbrtowc_r
                0x07010f04                mbrtowc
 .text          0x07010f44       0x40 d:/altera/12.1sp1b243/nios2eds/bin/gnu/h-i686-mingw32/bin/../lib/gcc/nios2-elf/4.1.2/../../../../nios2-elf/lib\libc.a(lib_a-mbtowc_r.o)
                0x07010f44                _mbtowc_r
 .text          0x07010f84      0xff4 d:/altera/12.1sp1b243/nios2eds/bin/gnu/h-i686-mingw32/bin/../lib/gcc/nios2-elf/4.1.2/../../../../nios2-elf/lib\libc.a(lib_a-mprec.o)
                0x07010f84                _Bfree
                0x07010fac                __hi0bits
                0x0701101c                __lo0bits
                0x070110e0                __mcmp
                0x07011140                __ulp
                0x070111c0                __b2d
                0x070112e0                __ratio
                0x07011390                _mprec_log10
                0x07011424                __copybits
                0x0701147c                __any_on
                0x07011504                _Balloc
                0x070115c0                __d2b
                0x0701173c                __mdiff
                0x070118c8                __lshift
                0x07011a14                __multiply
                0x07011bfc                __i2b
                0x07011c38                __multadd
                0x07011d38                __pow5mult
                0x07011e58                __s2b
 .text          0x07011f78       0x78 d:/altera/12.1sp1b243/nios2eds/bin/gnu/h-i686-mingw32/bin/../lib/gcc/nios2-elf/4.1.2/../../../../nios2-elf/lib\libc.a(lib_a-readr.o)
                0x07011f78                _read_r
 .text          0x07011ff0      0x5f4 d:/altera/12.1sp1b243/nios2eds/bin/gnu/h-i686-mingw32/bin/../lib/gcc/nios2-elf/4.1.2/../../../../nios2-elf/lib\libc.a(lib_a-reallocr.o)
                0x07011ff0                _realloc_r
 .text          0x070125e4       0x40 d:/altera/12.1sp1b243/nios2eds/bin/gnu/h-i686-mingw32/bin/../lib/gcc/nios2-elf/4.1.2/../../../../nios2-elf/lib\libc.a(lib_a-s_isinfd.o)
                0x070125e4                __isinfd
 .text          0x07012624       0x30 d:/altera/12.1sp1b243/nios2eds/bin/gnu/h-i686-mingw32/bin/../lib/gcc/nios2-elf/4.1.2/../../../../nios2-elf/lib\libc.a(lib_a-s_isnand.o)
                0x07012624                __isnand
 .text          0x07012654       0xc0 d:/altera/12.1sp1b243/nios2eds/bin/gnu/h-i686-mingw32/bin/../lib/gcc/nios2-elf/4.1.2/../../../../nios2-elf/lib\libc.a(lib_a-sccl.o)
                0x07012654                __sccl
 .text          0x07012714        0x8 d:/altera/12.1sp1b243/nios2eds/bin/gnu/h-i686-mingw32/bin/../lib/gcc/nios2-elf/4.1.2/../../../../nios2-elf/lib\libc.a(lib_a-sf_nan.o)
                0x07012714                nanf
 .text          0x0701271c     0x166c d:/altera/12.1sp1b243/nios2eds/bin/gnu/h-i686-mingw32/bin/../lib/gcc/nios2-elf/4.1.2/../../../../nios2-elf/lib\libc.a(lib_a-strtod.o)
                0x07012764                _strtod_r
                0x07013c48                strtof
                0x07013d6c                strtod
 .text          0x07013d88      0x318 d:/altera/12.1sp1b243/nios2eds/bin/gnu/h-i686-mingw32/bin/../lib/gcc/nios2-elf/4.1.2/../../../../nios2-elf/lib\libc.a(lib_a-strtoll_r.o)
                0x07013d88                _strtoll_r
 .text          0x070140a0      0x254 d:/altera/12.1sp1b243/nios2eds/bin/gnu/h-i686-mingw32/bin/../lib/gcc/nios2-elf/4.1.2/../../../../nios2-elf/lib\libc.a(lib_a-strtoul.o)
                0x070140a0                _strtoul_r
                0x070142d0                strtoul
 .text          0x070142f4      0x2f0 d:/altera/12.1sp1b243/nios2eds/bin/gnu/h-i686-mingw32/bin/../lib/gcc/nios2-elf/4.1.2/../../../../nios2-elf/lib\libc.a(lib_a-strtoull_r.o)
                0x070142f4                _strtoull_r
 .text          0x070145e4      0x294 d:/altera/12.1sp1b243/nios2eds/bin/gnu/h-i686-mingw32/bin/../lib/gcc/nios2-elf/4.1.2/../../../../nios2-elf/lib\libc.a(lib_a-ungetc.o)
                0x070145e4                __submore
                0x070146c0                _ungetc_r
                0x0701485c                ungetc
 .text          0x07014878      0x8f4 d:/altera/12.1sp1b243/nios2eds/bin/gnu/h-i686-mingw32/bin/../lib/gcc/nios2-elf/4.1.2/../../../../nios2-elf/lib\libc.a(lib_a-gdtoa-gethex.o)
                0x0701489c                __hexdig_init
                0x070149b4                __gethex
 .text          0x0701516c      0x294 d:/altera/12.1sp1b243/nios2eds/bin/gnu/h-i686-mingw32/bin/../lib/gcc/nios2-elf/4.1.2/../../../../nios2-elf/lib\libc.a(lib_a-gdtoa-hexnan.o)
                0x070151b8                __hexnan
 .text          0x07015400       0x98 d:/altera/12.1sp1b243/nios2eds/bin/gnu/h-i686-mingw32/bin/../lib/gcc/nios2-elf/4.1.2\libgcc.a(_muldi3.o)
                0x07015400                __muldi3
 .text          0x07015498       0xa4 d:/altera/12.1sp1b243/nios2eds/bin/gnu/h-i686-mingw32/bin/../lib/gcc/nios2-elf/4.1.2\libgcc.a(_fixunsdfsi.o)
                0x07015498                __fixunsdfsi
 .text          0x0701553c      0x5dc d:/altera/12.1sp1b243/nios2eds/bin/gnu/h-i686-mingw32/bin/../lib/gcc/nios2-elf/4.1.2\libgcc.a(_udivdi3.o)
                0x0701553c                __udivdi3
 .text          0x07015b18      0x5b0 d:/altera/12.1sp1b243/nios2eds/bin/gnu/h-i686-mingw32/bin/../lib/gcc/nios2-elf/4.1.2\libgcc.a(_umoddi3.o)
                0x07015b18                __umoddi3
 .text          0x070160c8       0x78 d:/altera/12.1sp1b243/nios2eds/bin/gnu/h-i686-mingw32/bin/../lib/gcc/nios2-elf/4.1.2\libgcc.a(_ne_sf.o)
                0x070160c8                __nesf2
 .text          0x07016140       0x78 d:/altera/12.1sp1b243/nios2eds/bin/gnu/h-i686-mingw32/bin/../lib/gcc/nios2-elf/4.1.2\libgcc.a(_gt_sf.o)
                0x07016140                __gtsf2
 .text          0x070161b8       0x78 d:/altera/12.1sp1b243/nios2eds/bin/gnu/h-i686-mingw32/bin/../lib/gcc/nios2-elf/4.1.2\libgcc.a(_lt_sf.o)
                0x070161b8                __ltsf2
 .text          0x07016230      0x504 d:/altera/12.1sp1b243/nios2eds/bin/gnu/h-i686-mingw32/bin/../lib/gcc/nios2-elf/4.1.2\libgcc.a(_addsub_df.o)
                0x07016640                __subdf3
                0x070166c0                __adddf3
 .text          0x07016734      0x3c4 d:/altera/12.1sp1b243/nios2eds/bin/gnu/h-i686-mingw32/bin/../lib/gcc/nios2-elf/4.1.2\libgcc.a(_mul_df.o)
                0x07016734                __muldf3
 .text          0x07016af8      0x258 d:/altera/12.1sp1b243/nios2eds/bin/gnu/h-i686-mingw32/bin/../lib/gcc/nios2-elf/4.1.2\libgcc.a(_div_df.o)
                0x07016af8                __divdf3
 .text          0x07016d50       0x88 d:/altera/12.1sp1b243/nios2eds/bin/gnu/h-i686-mingw32/bin/../lib/gcc/nios2-elf/4.1.2\libgcc.a(_eq_df.o)
                0x07016d50                __eqdf2
 .text          0x07016dd8       0x88 d:/altera/12.1sp1b243/nios2eds/bin/gnu/h-i686-mingw32/bin/../lib/gcc/nios2-elf/4.1.2\libgcc.a(_ne_df.o)
                0x07016dd8                __nedf2
 .text          0x07016e60       0x88 d:/altera/12.1sp1b243/nios2eds/bin/gnu/h-i686-mingw32/bin/../lib/gcc/nios2-elf/4.1.2\libgcc.a(_gt_df.o)
                0x07016e60                __gtdf2
 .text          0x07016ee8       0x88 d:/altera/12.1sp1b243/nios2eds/bin/gnu/h-i686-mingw32/bin/../lib/gcc/nios2-elf/4.1.2\libgcc.a(_ge_df.o)
                0x07016ee8                __gedf2
 .text          0x07016f70       0x88 d:/altera/12.1sp1b243/nios2eds/bin/gnu/h-i686-mingw32/bin/../lib/gcc/nios2-elf/4.1.2\libgcc.a(_lt_df.o)
                0x07016f70                __ltdf2
 .text          0x07016ff8       0x88 d:/altera/12.1sp1b243/nios2eds/bin/gnu/h-i686-mingw32/bin/../lib/gcc/nios2-elf/4.1.2\libgcc.a(_le_df.o)
                0x07016ff8                __ledf2
 .text          0x07017080       0xf8 d:/altera/12.1sp1b243/nios2eds/bin/gnu/h-i686-mingw32/bin/../lib/gcc/nios2-elf/4.1.2\libgcc.a(_si_to_df.o)
                0x07017080                __floatsidf
 .text          0x07017178       0xd8 d:/altera/12.1sp1b243/nios2eds/bin/gnu/h-i686-mingw32/bin/../lib/gcc/nios2-elf/4.1.2\libgcc.a(_df_to_si.o)
                0x07017178                __fixdfsi
 .text          0x07017250       0x74 d:/altera/12.1sp1b243/nios2eds/bin/gnu/h-i686-mingw32/bin/../lib/gcc/nios2-elf/4.1.2\libgcc.a(_df_to_sf.o)
                0x07017250                __truncdfsf2
 .text          0x070172c4        0x0 d:/altera/12.1sp1b243/nios2eds/bin/gnu/h-i686-mingw32/bin/../lib/gcc/nios2-elf/4.1.2\libgcc.a(_thenan_df.o)
 .text          0x070172c4      0x194 d:/altera/12.1sp1b243/nios2eds/bin/gnu/h-i686-mingw32/bin/../lib/gcc/nios2-elf/4.1.2\libgcc.a(_usi_to_df.o)
                0x070172c4                __floatunsidf
 .text          0x07017458        0x0 d:/altera/12.1sp1b243/nios2eds/bin/gnu/h-i686-mingw32/bin/../lib/gcc/nios2-elf/4.1.2\libgcc.a(_clz.o)
 .text          0x07017458       0x80 d:/altera/12.1sp1b243/nios2eds/bin/gnu/h-i686-mingw32/bin/../lib/gcc/nios2-elf/4.1.2\libgcc.a(_clzsi2.o)
                0x07017458                __clzsi2
 .text          0x070174d8       0xc8 d:/altera/12.1sp1b243/nios2eds/bin/gnu/h-i686-mingw32/bin/../lib/gcc/nios2-elf/4.1.2\libgcc.a(_unpack_sf.o)
                0x070174d8                __unpack_f
 .text          0x070175a0       0xa8 d:/altera/12.1sp1b243/nios2eds/bin/gnu/h-i686-mingw32/bin/../lib/gcc/nios2-elf/4.1.2\libgcc.a(_fpcmp_parts_sf.o)
                0x070175a0                __fpcmp_parts_f
 .text          0x07017648       0x2c d:/altera/12.1sp1b243/nios2eds/bin/gnu/h-i686-mingw32/bin/../lib/gcc/nios2-elf/4.1.2\libgcc.a(_make_sf.o)
                0x07017648                __make_fp
 .text          0x07017674      0x314 d:/altera/12.1sp1b243/nios2eds/bin/gnu/h-i686-mingw32/bin/../lib/gcc/nios2-elf/4.1.2\libgcc.a(_pack_df.o)
                0x07017674                __pack_d
 .text          0x07017988      0x138 d:/altera/12.1sp1b243/nios2eds/bin/gnu/h-i686-mingw32/bin/../lib/gcc/nios2-elf/4.1.2\libgcc.a(_unpack_df.o)
                0x07017988                __unpack_d
 .text          0x07017ac0       0xc8 d:/altera/12.1sp1b243/nios2eds/bin/gnu/h-i686-mingw32/bin/../lib/gcc/nios2-elf/4.1.2\libgcc.a(_fpcmp_parts_df.o)
                0x07017ac0                __fpcmp_parts_d
 .text          0x07017b88      0x160 d:/altera/12.1sp1b243/nios2eds/bin/gnu/h-i686-mingw32/bin/../lib/gcc/nios2-elf/4.1.2\libgcc.a(_pack_sf.o)
                0x07017b88                __pack_f
 .text          0x07017ce8      0x134 ../../bsp/ucosii_net_rozipfs/\libucosii_bsp.a(alt_fstat.o)
                0x07017ce8                fstat
 .text          0x07017e1c      0x120 ../../bsp/ucosii_net_rozipfs/\libucosii_bsp.a(alt_isatty.o)
                0x07017e1c                isatty
 .text          0x07017f3c      0x150 ../../bsp/ucosii_net_rozipfs/\libucosii_bsp.a(alt_lseek.o)
                0x07017f3c                lseek
 .text          0x0701808c       0xc8 ../../bsp/ucosii_net_rozipfs/\libucosii_bsp.a(alt_main.o)
                0x0701808c                alt_main
 .text          0x07018154      0x2c4 ../../bsp/ucosii_net_rozipfs/\libucosii_bsp.a(alt_open.o)
                0x07018230                open
 .text          0x07018418       0x60 ../../bsp/ucosii_net_rozipfs/\libucosii_bsp.a(alt_release_fd.o)
                0x07018418                alt_release_fd
 .text          0x07018478       0xbc ../../bsp/ucosii_net_rozipfs/\libucosii_bsp.a(alt_sbrk.o)
                0x07018478                sbrk
 .text          0x07018534      0x1a8 ../../bsp/ucosii_net_rozipfs/\libucosii_bsp.a(alt_tick.o)
                0x07018534                alt_alarm_stop
                0x070185cc                alt_tick
 .text          0x070186dc      0x118 ../../bsp/ucosii_net_rozipfs/\libucosii_bsp.a(alt_usleep.o)
                0x070186dc                usleep
 .text          0x070187f4      0x108 ../../bsp/ucosii_net_rozipfs/\libucosii_bsp.a(alt_env_lock.o)
                0x070187f4                __env_lock
                0x070188a0                __env_unlock
 .text          0x070188fc      0x1d8 ../../bsp/ucosii_net_rozipfs/\libucosii_bsp.a(alt_malloc_lock.o)
                0x070188fc                __malloc_lock
                0x07018a04                __malloc_unlock
 .text          0x07018ad4     0x2128 ../../bsp/ucosii_net_rozipfs/\libucosii_bsp.a(os_core.o)
                0x07018ad4                OSEventNameGet
                0x07018c04                OSEventNameSet
                0x07018d48                OSEventPendMulti
                0x070193fc                OSInit
                0x07019450                OSIntEnter
                0x070194cc                OSIntExit
                0x070195cc                OSSchedLock
                0x07019658                OSSchedUnlock
                0x0701973c                OSStart
                0x070197ac                OSStatInit
                0x07019858                OSTimeTick
                0x07019a98                OSVersion
                0x07019ab8                OS_Dummy
                0x07019ad4                OS_EventTaskRdy
                0x07019c68                OS_EventTaskWait
                0x07019d78                OS_EventTaskWaitMulti
                0x07019ecc                OS_EventTaskRemove
                0x07019f84                OS_EventTaskRemoveMulti
                0x0701a088                OS_EventWaitListInit
                0x0701a454                OS_MemClr
                0x0701a4a8                OS_MemCopy
                0x0701a514                OS_Sched
                0x0701a658                OS_StrCopy
                0x0701a6d8                OS_StrLen
                0x0701a730                OS_TaskIdle
                0x0701a78c                OS_TaskStat
                0x0701a854                OS_TaskStatStkChk
                0x0701a91c                OS_TCBInit
 .text          0x0701abfc      0x18c ../../bsp/ucosii_net_rozipfs/\libucosii_bsp.a(os_dbg.o)
                0x0701abfc                OSDebugInit
 .text          0x0701ad88     0x193c ../../bsp/ucosii_net_rozipfs/\libucosii_bsp.a(os_flag.o)
                0x0701ad88                OSFlagAccept
                0x0701b0bc                OSFlagCreate
                0x0701b1f8                OSFlagDel
                0x0701b4a0                OSFlagNameGet
                0x0701b5e4                OSFlagNameSet
                0x0701b738                OSFlagPend
                0x0701bd7c                OSFlagPendGetFlagsRdy
                0x0701bde4                OSFlagPost
                0x0701c18c                OSFlagQuery
                0x0701c424                OS_FlagInit
                0x0701c618                OS_FlagUnlink
 .text          0x0701c6c4      0xc8c ../../bsp/ucosii_net_rozipfs/\libucosii_bsp.a(os_mbox.o)
                0x0701c6c4                OSMboxAccept
                0x0701c768                OSMboxCreate
                0x0701c87c                OSMboxDel
                0x0701cb1c                OSMboxPend
                0x0701cde4                OSMboxPendAbort
                0x0701cf60                OSMboxPost
                0x0701d094                OSMboxPostOpt
                0x0701d220                OSMboxQuery
 .text          0x0701d350      0x808 ../../bsp/ucosii_net_rozipfs/\libucosii_bsp.a(os_mem.o)
                0x0701d350                OSMemCreate
                0x0701d56c                OSMemGet
                0x0701d670                OSMemNameGet
                0x0701d77c                OSMemNameSet
                0x0701d89c                OSMemPut
                0x0701d98c                OSMemQuery
                0x0701da88                OS_MemInit
 .text          0x0701db58     0x1334 ../../bsp/ucosii_net_rozipfs/\libucosii_bsp.a(os_q.o)
                0x0701db58                OSQAccept
                0x0701dcac                OSQCreate
                0x0701dec0                OSQDel
                0x0701e1c0                OSQFlush
                0x0701e288                OSQPend
                0x0701e5a8                OSQPendAbort
                0x0701e724                OSQPost
                0x0701e8a4                OSQPostFront
                0x0701ea2c                OSQPostOpt
                0x0701ec60                OSQQuery
                0x0701ede0                OS_QInit
 .text          0x0701ee8c      0xbc8 ../../bsp/ucosii_net_rozipfs/\libucosii_bsp.a(os_sem.o)
                0x0701ee8c                OSSemAccept
                0x0701ef4c                OSSemCreate
                0x0701f060                OSSemDel
                0x0701f300                OSSemPend
                0x0701f57c                OSSemPendAbort
                0x0701f6f8                OSSemPost
                0x0701f820                OSSemQuery
                0x0701f950                OSSemSet
 .text          0x0701fa54     0x1a40 ../../bsp/ucosii_net_rozipfs/\libucosii_bsp.a(os_task.o)
                0x0701fa54                OSTaskChangePrio
                0x0701ffc8                OSTaskCreate
                0x0702019c                OSTaskCreateExt
                0x0702039c                OSTaskDel
                0x070207a8                OSTaskDelReq
                0x07020918                OSTaskNameGet
                0x07020ad0                OSTaskNameSet
                0x07020c94                OSTaskResume
                0x07020eac                OSTaskStkChk
                0x070210a8                OSTaskSuspend
                0x070212d4                OSTaskQuery
                0x07021418                OS_TaskStkClr
 .text          0x07021494      0x59c ../../bsp/ucosii_net_rozipfs/\libucosii_bsp.a(os_time.o)
                0x07021494                OSTimeDly
                0x070215e0                OSTimeDlyHMSM
                0x07021758                OSTimeDlyResume
                0x07021968                OSTimeGet
                0x070219cc                OSTimeSet
 .text          0x07021a30      0x2fc ../../bsp/ucosii_net_rozipfs/\libucosii_bsp.a(alt_sys_init.o)
                0x07021a30                alt_irq_init
                0x07021a64                alt_sys_init
 .text          0x07021d2c      0x8c8 ../../bsp/ucosii_net_rozipfs/\libucosii_bsp.a(altera_avalon_cfi_flash.o)
                0x07021d2c                alt_flash_cfi_init
                0x07021e00                alt_flash_cfi_write
                0x070220c0                alt_flash_cfi_get_info
                0x07022150                alt_flash_cfi_read
                0x070221b8                alt_write_value_to_flash
                0x0702231c                alt_flash_program_block
 .text          0x070225f4     0x14a8 ../../bsp/ucosii_net_rozipfs/\libucosii_bsp.a(altera_avalon_cfi_flash_table.o)
                0x070225f4                alt_read_query_entry_8bit
                0x07022634                alt_read_query_entry_16bit
                0x07022678                alt_read_query_entry_32bit
                0x070226c0                alt_write_flash_command_8bit_device_8bit_mode
                0x070226fc                alt_write_flash_command_16bit_device_8bit_mode
                0x07022778                alt_write_flash_command_32bit_device_8bit_mode
                0x070227c0                alt_write_flash_command_16bit_device_16bit_mode
                0x07022804                alt_write_flash_command_32bit_device_16bit_mode
                0x0702284c                alt_write_flash_command_32bit_device_32bit_mode
                0x07022894                alt_write_native_8bit
                0x070228c8                alt_write_native_16bit
                0x070228fc                alt_write_native_32bit
                0x0702292c                alt_set_flash_width_func
                0x07022b0c                alt_set_flash_algorithm_func
                0x07022c34                alt_read_cfi_table
                0x07023214                alt_read_cfi_width
                0x070239c0                alt_check_primary_table
 .text          0x07023a9c      0x148 ../../bsp/ucosii_net_rozipfs/\libucosii_bsp.a(altera_avalon_jtag_uart_fd.o)
                0x07023a9c                altera_avalon_jtag_uart_read_fd
                0x07023af4                altera_avalon_jtag_uart_write_fd
                0x07023b4c                altera_avalon_jtag_uart_close_fd
                0x07023b94                altera_avalon_jtag_uart_ioctl_fd
 .text          0x07023be4      0x584 ../../bsp/ucosii_net_rozipfs/\libucosii_bsp.a(altera_avalon_jtag_uart_init.o)
                0x07023be4                altera_avalon_jtag_uart_init
                0x070240f4                altera_avalon_jtag_uart_close
 .text          0x07024168       0xf4 ../../bsp/ucosii_net_rozipfs/\libucosii_bsp.a(altera_avalon_jtag_uart_ioctl.o)
                0x07024168                altera_avalon_jtag_uart_ioctl
 .text          0x0702425c      0x2c0 ../../bsp/ucosii_net_rozipfs/\libucosii_bsp.a(altera_avalon_jtag_uart_read.o)
                0x0702425c                altera_avalon_jtag_uart_read
 .text          0x0702451c      0x2dc ../../bsp/ucosii_net_rozipfs/\libucosii_bsp.a(altera_avalon_jtag_uart_write.o)
                0x0702451c                altera_avalon_jtag_uart_write
 .text          0x070247f8      0xf3c ../../bsp/ucosii_net_rozipfs/\libucosii_bsp.a(altera_avalon_lcd_16207.o)
                0x07024fcc                altera_avalon_lcd_16207_write
                0x070255d0                altera_avalon_lcd_16207_init
 .text          0x07025734       0x58 ../../bsp/ucosii_net_rozipfs/\libucosii_bsp.a(altera_avalon_lcd_16207_fd.o)
                0x07025734                altera_avalon_lcd_16207_write_fd
 .text          0x0702578c      0xde4 ../../bsp/ucosii_net_rozipfs/\libucosii_bsp.a(altera_avalon_sgdma.o)
                0x0702578c                alt_avalon_sgdma_do_async_transfer
                0x070258c8                alt_avalon_sgdma_do_sync_transfer
                0x070259ec                alt_avalon_sgdma_construct_mem_to_mem_desc
                0x07025a5c                alt_avalon_sgdma_construct_mem_to_mem_desc_burst
                0x07025adc                alt_avalon_sgdma_construct_stream_to_mem_desc
                0x07025b30                alt_avalon_sgdma_construct_stream_to_mem_desc_burst
                0x07025ba0                alt_avalon_sgdma_construct_mem_to_stream_desc
                0x07025c14                alt_avalon_sgdma_construct_mem_to_stream_desc_burst
                0x07025c98                alt_avalon_sgdma_register_callback
                0x07025ce8                alt_avalon_sgdma_start
                0x07025d3c                alt_avalon_sgdma_stop
                0x07025d94                alt_avalon_sgdma_check_descriptor_status
                0x07025e04                alt_avalon_sgdma_open
                0x07025ebc                alt_avalon_sgdma_construct_descriptor
                0x07025f44                alt_avalon_sgdma_enable_desc_poll
                0x07025fc0                alt_avalon_sgdma_disable_desc_poll
                0x0702601c                alt_avalon_sgdma_construct_descriptor_burst
                0x070264c4                alt_avalon_sgdma_init
 .text          0x07026570      0x100 ../../bsp/ucosii_net_rozipfs/\libucosii_bsp.a(altera_avalon_timer_sc.o)
                0x070265e0                alt_avalon_timer_sc_init
 .text          0x07026670     0x5340 ../../bsp/ucosii_net_rozipfs/\libucosii_bsp.a(altera_avalon_tse.o)
                0x07026670                no_printf
                0x0702669c                tse_mac_initTransInfo2
                0x070266fc                tse_mac_sTxWrite
                0x070267ec                tse_mac_aRxRead
                0x07026890                tse_mac_SwReset
                0x07026924                tse_mac_setMIImode
                0x0702697c                tse_mac_setGMIImode
                0x070269d0                alt_tse_phy_add_profile
                0x07026ba8                alt_tse_system_add_sys
                0x070275bc                alt_tse_sys_enable_mdio_sharing
                0x07027734                alt_tse_mac_get_common_speed
                0x07027774                alt_tse_mac_set_common_speed
                0x070277bc                alt_tse_get_system_index
                0x07027838                alt_tse_get_mac_group_index
                0x070278b8                alt_tse_get_mac_info_index
                0x07027944                alt_tse_get_mac_info
                0x07027a24                alt_tse_mac_set_speed
                0x07027b10                alt_tse_mac_set_duplex
                0x07027ba8                getPHYSpeed
                0x070289b0                alt_tse_phy_rd_mdio_addr
                0x070289f8                alt_tse_phy_wr_mdio_addr
                0x07028a4c                alt_tse_phy_wr_mdio_reg
                0x07028b74                alt_tse_phy_rd_mdio_reg
                0x07028c38                alt_tse_phy_add_profile_default
                0x07028eb0                alt_tse_phy_print_profile
                0x070290a0                alt_tse_mac_group_init
                0x070297ac                alt_tse_mac_get_phy
                0x07029bc4                alt_tse_mac_associate_phy
                0x07029dfc                alt_tse_phy_cfg_pcs
                0x07029f1c                alt_tse_phy_init
                0x0702a030                alt_tse_phy_restart_an
                0x0702a1e0                alt_tse_phy_check_link
                0x0702a324                alt_tse_phy_get_cap
                0x0702a864                alt_tse_phy_set_adv_1000
                0x0702a9f8                alt_tse_phy_set_adv_100
                0x0702ac08                alt_tse_phy_set_adv_10
                0x0702ada0                alt_tse_phy_get_common_speed
                0x0702b0bc                alt_tse_phy_set_common_speed
                0x0702b5a0                marvell_phy_cfg
                0x0702b648                marvell_cfg_gmii
                0x0702b73c                marvell_cfg_sgmii
                0x0702b830                marvell_cfg_rgmii
                0x0702b930                DP83848C_link_status_read
 .text          0x0702b9b0      0xb70 ../../bsp/ucosii_net_rozipfs/\libucosii_bsp.a(altera_ro_zipfs.o)
                0x0702bc24                check_directory_header
                0x0702c17c                alt_ro_zipfs_open
                0x0702c214                alt_ro_zipfs_read
                0x0702c310                alt_ro_zipfs_seek
                0x0702c458                alt_ro_zipfs_fstat
                0x0702c4c8                alt_ro_zipfs_check_valid
 .text          0x0702c520     0x1784 ../../bsp/ucosii_net_rozipfs/\libucosii_bsp.a(ins_tse_mac.o)
                0x0702c520                triple_speed_ethernet_init
                0x0702c67c                prep_tse_mac
                0x0702c8e0                tse_mac_init
                0x0702d3c8                tse_mac_raw_send
                0x0702d6c0                tse_sgdmaRx_isr
                0x0702d768                tse_sgdma_read_init
                0x0702d910                tse_mac_rcv
                0x0702db60                tse_mac_stats
                0x0702dba0                tse_mac_close
 .text          0x0702dca4       0x54 ../../bsp/ucosii_net_rozipfs/\libucosii_bsp.a(alt_iniche_close.o)
                0x0702dca4                close
 .text          0x0702dcf8      0x144 ../../bsp/ucosii_net_rozipfs/\libucosii_bsp.a(alt_iniche_dev.o)
                0x0702dcf8                iniche_devices_init
 .text          0x0702de3c       0x78 ../../bsp/ucosii_net_rozipfs/\libucosii_bsp.a(alt_iniche_read.o)
                0x0702de3c                read
 .text          0x0702deb4       0x70 ../../bsp/ucosii_net_rozipfs/\libucosii_bsp.a(alt_iniche_write.o)
                0x0702deb4                write
 .text          0x0702df24      0xedc ../../bsp/ucosii_net_rozipfs/\libucosii_bsp.a(ipnet.o)
                0x0702df24                Netinit
                0x0702e570                fixup_subnet_mask
                0x0702e6d0                netclose
                0x0702e7b8                pktdemux
                0x0702eb8c                c_older
                0x0702ec5c                ip2mac
 .text          0x0702ee00      0x4b0 ../../bsp/ucosii_net_rozipfs/\libucosii_bsp.a(ipstart.o)
                0x0702ee00                ip_startup
                0x0702f0e4                exit_hook
                0x0702f150                ip_exit
                0x0702f220                if_netnumber
 .text          0x0702f2b0     0x100c ../../bsp/ucosii_net_rozipfs/\libucosii_bsp.a(igmp_cmn.o)
                0x0702f2b0                igmp_init
                0x0702f360                igmp_input
                0x0702f458                igmp_fasttimo
                0x0702f5f0                igmp_send
                0x0702f898                igmp_joingroup
                0x0702fb04                igmp_leavegroup
                0x0702fb80                igmp_validate
                0x0702fedc                igmp_print_stats
 .text          0x070302bc      0xb50 ../../bsp/ucosii_net_rozipfs/\libucosii_bsp.a(bsdsock.o)
                0x070302bc                bsd_accept
                0x070303f4                bsd_getpeername
                0x07030520                bsd_getsockname
                0x0703064c                bsd_i_sockoptlen
                0x07030804                bsd_getsockopt
                0x07030924                bsd_ioctl
                0x07030a28                bsd_inet_ntoa
                0x07030a58                bsd_recvfrom
                0x07030bb8                bsd_select
                0x07030d20                bsd_setsockopt
 .text          0x07030e0c      0x118 ../../bsp/ucosii_net_rozipfs/\libucosii_bsp.a(cksum.o)
                0x07030e0c                ccksum
                0x07030ebc                cksum
 .text          0x07030f24      0xa9c ../../bsp/ucosii_net_rozipfs/\libucosii_bsp.a(in_utils.o)
                0x07030f24                do_trap
                0x07030f50                nextarg
                0x07030fcc                hexdump
                0x07031114                print_ipad
                0x07031188                print_uptime
                0x070312b4                panic
                0x070312f8                print_eth
                0x0703145c                uslash
                0x070314dc                ns_printf
                0x07031660                std_out
                0x070316a4                con_page
                0x07031794                parse_args
 .text          0x070319c0      0x1c8 ../../bsp/ucosii_net_rozipfs/\libucosii_bsp.a(netmain.o)
                0x070319c0                netmain
                0x07031ab4                tk_netmain
                0x07031b3c                tk_nettick
 .text          0x07031b88      0x5e8 ../../bsp/ucosii_net_rozipfs/\libucosii_bsp.a(tk_crnos.o)
                0x07031b88                TK_OSTimeDly
                0x07031bb4                TK_OSTaskResume
                0x07031c24                tcp_sleep
                0x07031dc4                tcp_wakeup
                0x07031ec8                TK_OSTaskQuery
                0x07031f3c                tk_yield
                0x07031f68                tk_stats
 .text          0x07032170     0x3438 ../../bsp/ucosii_net_rozipfs/\libucosii_bsp.a(dhcpclnt.o)
                0x07032170                dhc_get_srv_ipaddr
                0x07032200                dhc_init
                0x070322bc                dhc_set_callback
                0x07032300                dhc_upcall
                0x07032b30                dhc_buildheader
                0x07032d4c                dhc_discover
                0x07033264                dhc_rx_offer
                0x07033368                dhc_request
                0x07033ea4                dhc_setip
                0x07034124                dhc_resetip
                0x07034208                dhc_decline
                0x070343ec                dhc_extract_opts
                0x070346a8                dhc_stats
                0x07034ba0                dhc_second
                0x0703513c                dhc_halt
                0x070351c4                dhc_reclaim
                0x07035394                dhc_state_init
                0x070353f4                dhc_alldone
                0x07035484                dhc_ifacedone
                0x070354f8                dhc_set_state
 .text          0x070355a8       0xcc ../../bsp/ucosii_net_rozipfs/\libucosii_bsp.a(dhcputil.o)
                0x070355a8                find_opt
 .text          0x07035674      0x79c ../../bsp/ucosii_net_rozipfs/\libucosii_bsp.a(pktalloc.o)
                0x07035674                pk_init
                0x07035904                pk_alloc
                0x070359e0                pk_validate
                0x07035c98                pk_free
                0x07035d44                pk_get_max_intrsafe_buf_len
                0x07035d64                dump_buf_estats
 .text          0x07035e10      0x288 ../../bsp/ucosii_net_rozipfs/\libucosii_bsp.a(q.o)
                0x07035e10                getq
                0x07035ed8                putq
                0x07035f88                qdel
 .text          0x07036098      0x31c ../../bsp/ucosii_net_rozipfs/\libucosii_bsp.a(udp_open.o)
                0x07036098                udp_open
                0x070362d0                udp_close
 .text          0x070363b4      0x194 ../../bsp/ucosii_net_rozipfs/\libucosii_bsp.a(asm_cksum.o)
                0x070363b4                asm_cksum
 .text          0x07036548      0x2a0 ../../bsp/ucosii_net_rozipfs/\libucosii_bsp.a(brdutils.o)
                0x07036548                dtrap
                0x07036578                kbhit
                0x07036624                getch
                0x07036684                clock_init
                0x070366c0                clock_c
                0x070366dc                cticks_hook
                0x07036748                irq_Mask
                0x070367a4                irq_Unmask
 .text          0x070367e8      0x488 ../../bsp/ucosii_net_rozipfs/\libucosii_bsp.a(osportco.o)
                0x070367e8                LOCK_NET_RESOURCE
                0x070368a8                UNLOCK_NET_RESOURCE
                0x07036930                TK_NEWTASK
                0x07036b44                wait_app_sem
                0x07036bf8                post_app_sem
 .text          0x07036c70      0x568 ../../bsp/ucosii_net_rozipfs/\libucosii_bsp.a(targnios.o)
                0x07036c70                alt_iniche_init
                0x07036e8c                pre_task_setup
                0x07036f00                post_task_setup
                0x07036f20                prep_armintcp
                0x07036f58                calloc2
                0x07036f8c                npalloc
                0x07037080                npfree
                0x07037138                ncpalloc
                0x0703718c                ncpfree
 .text          0x070371d8     0x24dc ../../bsp/ucosii_net_rozipfs/\libucosii_bsp.a(nptcp.o)
                0x070371d8                pffindtype
                0x07037278                pffindproto
                0x07037348                m_getnbuf
                0x070374f0                m_free
                0x07037624                m_freem
                0x07037668                m_copy
                0x0703798c                m_adj
                0x07037b5c                mbuf_len
                0x07037bb4                dtom
                0x07037c5c                remque
                0x07037ccc                insque
                0x07037d48                nptcp_init
                0x07037e6c                tcp_rcv
                0x07038058                ip_output
                0x07038650                in_broadcast
                0x07038690                np_stripoptions
                0x07038778                tcp_stat
                0x070388bc                tcp_bsdconnstat
                0x07038a1c                tcp_bsdsendstat
                0x07038b10                tcp_bsdrcvstat
                0x07038d10                mbuf_stat
                0x07038e94                mbuf_list
                0x07038f34                sock_list
                0x07039190                search_mbuf_queue
                0x070391f4                socket_queue_name
                0x070392d8                so_icmpdu
                0x07039630                tcp_tick
 .text          0x070396b4      0xa2c ../../bsp/ucosii_net_rozipfs/\libucosii_bsp.a(rawsock.o)
                0x070396b4                rawip_lookup
                0x07039724                rawip_soinput
                0x070398f8                rawip_usrreq
 .text          0x0703a0e0     0x17fc ../../bsp/ucosii_net_rozipfs/\libucosii_bsp.a(sockcall.o)
                0x0703a0e0                DOMAIN_CHECK
                0x0703a12c                t_socket
                0x0703a1bc                t_bind
                0x0703a338                t_listen
                0x0703a41c                t_accept
                0x0703a6b4                t_connect
                0x0703a95c                t_getpeername
                0x0703a9a0                t_getsockname
                0x0703abe0                t_setsockopt
                0x0703adbc                t_getsockopt
                0x0703af60                t_recv
                0x0703b050                t_recvfrom
                0x0703b1a0                t_sendto
                0x0703b3cc                t_send
                0x0703b5f4                t_shutdown
                0x0703b6d8                t_socketclose
                0x0703b840                t_errno
 .text          0x0703b8dc     0x2374 ../../bsp/ucosii_net_rozipfs/\libucosii_bsp.a(socket.o)
                0x0703b8dc                socreate
                0x0703baa8                sobind
                0x0703bb04                solisten
                0x0703bbf4                sofree
                0x0703bd24                soclose
                0x0703c018                soabort
                0x0703c068                soaccept
                0x0703c104                soconnect
                0x0703c1d8                sodisconnect
                0x0703c278                sosend
                0x0703c880                soreceive
                0x0703d064                soshutdown
                0x0703d10c                sorflush
                0x0703d20c                sosetopt
                0x0703d6cc                sogetopt
                0x0703dc0c                sohasoutofband
 .text          0x0703dc50     0x1318 ../../bsp/ucosii_net_rozipfs/\libucosii_bsp.a(socket2.o)
                0x0703dc50                soisconnecting
                0x0703dcbc                soisconnected
                0x0703ddb8                soisdisconnecting
                0x0703de44                soisdisconnected
                0x0703df00                sonewconn
                0x0703e11c                soqinsque
                0x0703e1c8                soqremque
                0x0703e2e8                socantsendmore
                0x0703e338                socantrcvmore
                0x0703e388                sbselqueue
                0x0703e3c0                sbwait
                0x0703e428                sbwakeup
                0x0703e4c4                soreserve
                0x0703e544                sbreserve
                0x0703e5a4                sbrelease
                0x0703e5ec                sbappend
                0x0703e694                sbappendrecord
                0x0703e774                sbappendaddr
                0x0703e97c                sbcompress
                0x0703eb64                sbflush
                0x0703ebf4                sbdrop
                0x0703edc4                sbdropend
                0x0703eed4                sbdroprecord
 .text          0x0703ef68      0x914 ../../bsp/ucosii_net_rozipfs/\libucosii_bsp.a(soselect.o)
                0x0703ef68                t_select
                0x0703f188                sock_selscan
                0x0703f2e0                sock_select
                0x0703f4f4                in_pcbnotify
                0x0703f5c0                tcp_notify
                0x0703f628                ifd_clr
                0x0703f718                ifd_set
                0x0703f78c                ifd_isset
                0x0703f80c                ifd_get
 .text          0x0703f87c     0x2fe8 ../../bsp/ucosii_net_rozipfs/\libucosii_bsp.a(tcp_in.o)
                0x0703f87c                tcp_reass
                0x0703fc84                tcp_input
                0x070421d8                tcp_dooptions
                0x07042368                tcp_pulloutofband
                0x07042494                tcp_xmit_timer
                0x07042700                ip4_tcpmss
                0x07042748                tcp_mss
 .text          0x07042864     0x1360 ../../bsp/ucosii_net_rozipfs/\libucosii_bsp.a(tcp_out.o)
                0x07042864                tcp_output
                0x070439e0                tcp_setpersist
 .text          0x07043bc4      0x9e8 ../../bsp/ucosii_net_rozipfs/\libucosii_bsp.a(tcp_subr.o)
                0x07043bc4                tcp_init
                0x07043c1c                tcp_template
                0x07043d34                tcp_respond
                0x070441bc                tcp_newtcpcb
                0x070442d4                tcp_drop
                0x07044380                tcp_close
                0x07044468                tcp_quench
                0x070444b4                tcp_putseq
                0x07044534                tcp_getseq
 .text          0x070445ac      0x798 ../../bsp/ucosii_net_rozipfs/\libucosii_bsp.a(tcp_timr.o)
                0x070445ac                tcp_slowtimo
                0x0704484c                tcp_canceltimers
                0x070448a8                tcp_timers
 .text          0x07044d44      0x9ec ../../bsp/ucosii_net_rozipfs/\libucosii_bsp.a(tcp_usr.o)
                0x07044d44                tcp_usrreq
                0x07045448                tcp_attach
                0x0704557c                tcp_disconnect
                0x07045650                tcp_usrclosed
 .text          0x07045730       0x4c ../../bsp/ucosii_net_rozipfs/\libucosii_bsp.a(tcpport.o)
                0x07045730                tcpinit
 .text          0x0704577c      0xd20 ../../bsp/ucosii_net_rozipfs/\libucosii_bsp.a(udpsock.o)
                0x0704577c                udp_lookup
                0x070457ec                udp_soinput
                0x070459a4                udp_usrreq
                0x07045c28                udp4_sockbind
                0x07045f64                udp4_socksend
                0x07046340                udp4_sockaddr
 .text          0x0704649c      0x154 ../../bsp/ucosii_net_rozipfs/\libucosii_bsp.a(alt_alarm_start.o)
                0x0704649c                alt_alarm_start
 .text          0x070465f0      0x14c ../../bsp/ucosii_net_rozipfs/\libucosii_bsp.a(alt_busy_sleep.o)
                0x070465f0                alt_busy_sleep
 .text          0x0704673c      0x15c ../../bsp/ucosii_net_rozipfs/\libucosii_bsp.a(alt_close.o)
                0x0704673c                alt_close
 .text          0x07046898       0x78 ../../bsp/ucosii_net_rozipfs/\libucosii_bsp.a(alt_dcache_flush.o)
                0x07046898                alt_dcache_flush
 .text          0x07046910       0x2c ../../bsp/ucosii_net_rozipfs/\libucosii_bsp.a(alt_dev.o)
 .text          0x0704693c      0x114 ../../bsp/ucosii_net_rozipfs/\libucosii_bsp.a(alt_dev_llist_insert.o)
                0x0704693c                alt_dev_llist_insert
 .text          0x07046a50       0x64 ../../bsp/ucosii_net_rozipfs/\libucosii_bsp.a(alt_do_ctors.o)
                0x07046a50                _do_ctors
 .text          0x07046ab4       0x64 ../../bsp/ucosii_net_rozipfs/\libucosii_bsp.a(alt_do_dtors.o)
                0x07046ab4                _do_dtors
 .text          0x07046b18        0x0 ../../bsp/ucosii_net_rozipfs/\libucosii_bsp.a(alt_errno.o)
 .text          0x07046b18       0x94 ../../bsp/ucosii_net_rozipfs/\libucosii_bsp.a(alt_find_dev.o)
                0x07046b18                alt_find_dev
 .text          0x07046bac      0x120 ../../bsp/ucosii_net_rozipfs/\libucosii_bsp.a(alt_find_file.o)
                0x07046bac                alt_find_file
 .text          0x07046ccc       0xd0 ../../bsp/ucosii_net_rozipfs/\libucosii_bsp.a(alt_flash_dev.o)
                0x07046ccc                alt_flash_open_dev
                0x07046d48                alt_flash_close_dev
 .text          0x07046d9c       0x90 ../../bsp/ucosii_net_rozipfs/\libucosii_bsp.a(alt_fs_reg.o)
                0x07046d9c                alt_fs_reg
 .text          0x07046e2c       0xf4 ../../bsp/ucosii_net_rozipfs/\libucosii_bsp.a(alt_get_fd.o)
                0x07046e2c                alt_get_fd
 .text          0x07046f20      0x1d4 ../../bsp/ucosii_net_rozipfs/\libucosii_bsp.a(alt_iic.o)
                0x07046f20                alt_ic_isr_register
                0x07046f70                alt_ic_irq_enable
                0x0704700c                alt_ic_irq_disable
                0x070470ac                alt_ic_irq_enabled
 .text          0x070470f4       0xf8 ../../bsp/ucosii_net_rozipfs/\libucosii_bsp.a(alt_iic_isr_register.o)
                0x070470f4                alt_iic_isr_register
 .text          0x070471ec      0x13c ../../bsp/ucosii_net_rozipfs/\libucosii_bsp.a(alt_io_redirect.o)
                0x070472b0                alt_io_redirect
 .text          0x07047328        0x0 ../../bsp/ucosii_net_rozipfs/\libucosii_bsp.a(alt_irq_entry.o)
 .text          0x07047328        0x0 ../../bsp/ucosii_net_rozipfs/\libucosii_bsp.a(alt_irq_handler.o)
 .text          0x07047328        0x0 ../../bsp/ucosii_net_rozipfs/\libucosii_bsp.a(alt_irq_vars.o)
 .text          0x07047328      0x180 ../../bsp/ucosii_net_rozipfs/\libucosii_bsp.a(alt_read.o)
                0x07047328                alt_read
 .text          0x070474a8       0x38 ../../bsp/ucosii_net_rozipfs/\libucosii_bsp.a(alt_remap_cached.o)
                0x070474a8                alt_remap_cached
 .text          0x070474e0       0x40 ../../bsp/ucosii_net_rozipfs/\libucosii_bsp.a(alt_remap_uncached.o)
                0x070474e0                alt_remap_uncached
 .text          0x07047520       0x64 ../../bsp/ucosii_net_rozipfs/\libucosii_bsp.a(alt_uncached_malloc.o)
                0x07047520                alt_uncached_malloc
 .text          0x07047584      0x180 ../../bsp/ucosii_net_rozipfs/\libucosii_bsp.a(alt_write.o)
                0x07047584                alt_write
 .text          0x07047704       0x20 ../../bsp/ucosii_net_rozipfs/\libucosii_bsp.a(altera_nios2_qsys_irq.o)
                0x07047704                altera_nios2_qsys_irq_init
 .text          0x07047724       0xd0 ../../bsp/ucosii_net_rozipfs/\libucosii_bsp.a(os_cpu_a.o)
                0x07047724                OSCtxSw
                0x07047724                OSIntCtxSw
                0x070477b0                OSStartHighRdy
                0x070477d0                OSStartTsk
 .text          0x070477f4      0x424 ../../bsp/ucosii_net_rozipfs/\libucosii_bsp.a(os_cpu_c.o)
                0x070477f4                OSTaskStkInit
                0x07047b04                OSTaskCreateHook
                0x07047b24                OSTaskDelHook
                0x07047b44                OSTaskSwHook
                0x07047b60                OSTaskStatHook
                0x07047b7c                OSTimeTickHook
                0x07047ba4                OSInitHookBegin
                0x07047bc0                OSInitHookEnd
                0x07047bdc                OSTaskIdleHook
                0x07047bf8                OSTCBInitHook
 .text          0x07047c18      0x460 ../../bsp/ucosii_net_rozipfs/\libucosii_bsp.a(altera_avalon_cfi_flash_amd.o)
                0x07047c18                alt_program_amd
                0x07047c80                alt_erase_block_amd
 .text          0x07048078      0x460 ../../bsp/ucosii_net_rozipfs/\libucosii_bsp.a(altera_avalon_cfi_flash_intel.o)
                0x07048078                alt_program_intel
                0x070480fc                alt_erase_block_intel
 .text          0x070484d8      0x3d8 ../../bsp/ucosii_net_rozipfs/\libucosii_bsp.a(allports.o)
                0x070484d8                netmain_init
                0x070485d4                icmp_port_du
                0x0704865c                station_state
                0x070487ac                sysuptime
                0x070487e8                packet_check
                0x07048834                mcastlist
                0x07048858                prep_modules
 .text          0x070488b0      0x480 ../../bsp/ucosii_net_rozipfs/\libucosii_bsp.a(timeouts.o)
                0x070488b0                inet_timer
                0x07048b0c                in_timerset
                0x07048c88                in_timerkill
 .text          0x07048d30       0xa4 ../../bsp/ucosii_net_rozipfs/\libucosii_bsp.a(tk_misc.o)
                0x07048d30                create_apptasks
                0x07048d54                task_stats
 .text          0x07048dd4       0xb0 ../../bsp/ucosii_net_rozipfs/\libucosii_bsp.a(alt_iniche_fcntl.o)
                0x07048dd4                fcntl
 .text          0x07048e84     0x1710 ../../bsp/ucosii_net_rozipfs/\libucosii_bsp.a(et_arp.o)
                0x07048e84                etainit
                0x07048ed8                et_send
                0x07049054                arp_free_pending
                0x070490dc                arp_send_pending
                0x07049150                send_arp
                0x070495e8                find_oldest_arp
                0x07049790                make_arp_entry
                0x070498a4                arpReply
                0x07049b38                arprcv
                0x07049d98                send_via_arp
                0x07049f40                arp_stats
                0x0704a1b0                cb_arpent_tmo
                0x0704a2c8                grat_arp
 .text          0x0704a594      0x298 ../../bsp/ucosii_net_rozipfs/\libucosii_bsp.a(iface.o)
                0x0704a594                if_getbynum
                0x0704a618                isbcast
                0x0704a6f8                reg_type
                0x0704a794                if_killsocks
 .text          0x0704a82c     0x22a4 ../../bsp/ucosii_net_rozipfs/\libucosii_bsp.a(ip.o)
                0x0704a82c                ip_init
                0x0704a928                ip_bldhead
                0x0704aacc                ip_write_internal
                0x0704b24c                ip_write
                0x0704b494                ip_write2
                0x0704b844                ip_raw_write
                0x0704b91c                ip_fragment_lc
                0x0704bda4                ip_fragment
                0x0704c3c8                ip_mymach
                0x0704c474                ip_dump
                0x0704c72c                iproute
                0x0704c998                ip_copypkt
 .text          0x0704cad0     0x1d9c ../../bsp/ucosii_net_rozipfs/\libucosii_bsp.a(ip_reasm.o)
                0x0704cad0                ip_reasm_match_frag_with_ire
                0x0704cba0                ip_reasm_determine_type_of_frag
                0x0704cc8c                ip_reasm_check_mem_useage
                0x0704cd24                ip_reasm_incr_mem_useage
                0x0704cdcc                ip_reasm_decr_mem_useage
                0x0704ce6c                ip_reasm_process_first_fragment
                0x0704d14c                ip_reassm
                0x0704d1ec                ip_reasm_compute_overlap
                0x0704d77c                ip_reasm_process_subsequent_fragments
                0x0704dd10                ip_reasm_find_ire
                0x0704dd74                ip_reasm_copy_queued_fragments_into_reassy_buffer
                0x0704e0d0                ip_reasm_process_timer_tick
                0x0704e1b4                ip_reasm_delete_ire
                0x0704e37c                ip_reasm_mark_compact_rfq
                0x0704e4c4                ipr_stats
                0x0704e818                ip_reasm_send_icmp_timex
 .text          0x0704e86c     0x1010 ../../bsp/ucosii_net_rozipfs/\libucosii_bsp.a(ipdemux.o)
                0x0704e86c                ip_rcv
                0x0704ec6c                ip_rcv_phase2
                0x0704f278                ip_demux
                0x0704f6a8                ip_stats
 .text          0x0704f87c      0x2f0 ../../bsp/ucosii_net_rozipfs/\libucosii_bsp.a(ipmc.o)
                0x0704f87c                in_addmulti
                0x0704f9e4                in_delmulti
                0x0704fafc                lookup_mcast
 .text          0x0704fb6c       0xe4 ../../bsp/ucosii_net_rozipfs/\libucosii_bsp.a(ipport.o)
                0x0704fb6c                prep_ifaces
                0x0704fc00                netexit
                0x0704fc28                evtmap_setup
 .text          0x0704fc50      0x550 ../../bsp/ucosii_net_rozipfs/\libucosii_bsp.a(ipraw.o)
                0x0704fc50                ip_raw_open
                0x0704fd40                ip_raw_close
                0x0704fe00                ip_raw_input
                0x07050038                ip_raw_alloc
                0x07050104                ip_raw_free
                0x07050144                ip_raw_maxalloc
 .text          0x070501a0      0x6f0 ../../bsp/ucosii_net_rozipfs/\libucosii_bsp.a(iproute.o)
                0x070501a0                rt_lookup
                0x07050324                add_route
                0x0705074c                del_route
 .text          0x07050890     0x1108 ../../bsp/ucosii_net_rozipfs/\libucosii_bsp.a(udp.o)
                0x07050890                udpdemux
                0x070510e8                udp_send
                0x070513a0                udpswap
                0x070514d0                udp_socket
                0x070515a0                udp_alloc
                0x07051660                udp_maxalloc
                0x0705168c                udp_free
                0x070516cc                udp_stats
                0x0705175c                udpsock_list
 .text          0x07051998      0x2e8 ../../bsp/ucosii_net_rozipfs/\libucosii_bsp.a(igmp.o)
                0x07051998                igmpv1_input
 .text          0x07051c80      0x7c0 ../../bsp/ucosii_net_rozipfs/\libucosii_bsp.a(igmp2.o)
                0x07051c80                igmpv2_input
                0x07051de0                igmpv2_process_report
                0x07051f2c                igmpv2_process_query
                0x07052178                igmpv2_chk_set_timer
                0x070522d0                igmpv2_chk4_rtr_alert_opt
 .text          0x07052440      0x8fc ../../bsp/ucosii_net_rozipfs/\libucosii_bsp.a(ipopt.o)
                0x07052440                IPADDR_TO_NETP
                0x07052588                ip_setmoptions
                0x07052b78                ip_getmoptions
                0x07052cb8                ip_freemoptions
 .text          0x07052d3c      0x6ac ../../bsp/ucosii_net_rozipfs/\libucosii_bsp.a(u_mctest.o)
                0x07052d3c                u_mctest_init
                0x07052d6c                u_mctest_run
 .text          0x070533e8      0x388 ../../bsp/ucosii_net_rozipfs/\libucosii_bsp.a(dhcsetup.o)
                0x070533e8                dhc_setup
                0x0705366c                dhc_main_ipset
 .text          0x07053770      0x40c ../../bsp/ucosii_net_rozipfs/\libucosii_bsp.a(memdev.o)
                0x07053770                init_memdev
                0x070537e8                md_fopen
                0x07053810                md_fclose
                0x07053830                md_fread
                0x070539b0                md_fwrite
                0x07053a30                md_fseek
                0x07053a5c                md_ftell
                0x07053a80                md_fgetc
                0x07053b58                md_unlink
 .text          0x07053b7c      0x810 ../../bsp/ucosii_net_rozipfs/\libucosii_bsp.a(parseip.o)
                0x07053b7c                parse_ipad
                0x07053e98                inet_addr
                0x07053f00                hextoa
                0x07053f70                inet_pton
                0x0705401c                inet_ntop
                0x070540a8                print46_addr
                0x07054108                inet46_addr
                0x070541cc                inet_setport
                0x07054240                convert_ip
 .text          0x0705438c      0x1cc ../../bsp/ucosii_net_rozipfs/\libucosii_bsp.a(tcpcksum.o)
                0x0705438c                tcp_cksum
 .text          0x07054558      0x900 ../../bsp/ucosii_net_rozipfs/\libucosii_bsp.a(in_pcb.o)
                0x07054558                in_pcballoc
                0x070545ec                in_pcbdetach
                0x07054640                in_pcbbind
                0x07054894                in_pcbconnect
                0x07054aa4                in_pcbdisconnect
                0x07054b04                in_setsockaddr
                0x07054b80                in_setpeeraddr
                0x07054bfc                in_pcblookup
 .text          0x07054e58     0x1a74 ../../bsp/ucosii_net_rozipfs/\libucosii_bsp.a(vfsfiles.o)
                0x07054e58                set_vfopen_error
                0x07054e80                get_vfopen_error
                0x07054ea0                vf_alloc_and_link_vop
                0x07054f1c                vf_alloc_buffer
                0x07054ff4                vf_free_buffer
                0x07055044                vfopen_locked
                0x070553ac                vfopen
                0x070553fc                vfclose_locked
                0x070555a4                vfclose
                0x070555e4                vfflush
                0x0705562c                vfgets
                0x07055710                vfeof
                0x07055768                vunlink_flag_open_files
                0x070557c4                vunlink
                0x070559e4                vfread
                0x07055b90                vfwrite_locked
                0x07055f78                vfwrite
                0x07055fd8                vfseek
                0x07056154                vftell
                0x07056288                vgetc_locked
                0x070563a8                vgetc
                0x070563f0                vfslookup_locked
                0x07056528                vfslookup
                0x07056570                strippath
                0x07056758                isvfile_locked
                0x070567bc                isvfile
                0x07056804                vferror
                0x07056870                vclearerr
 .text          0x070568cc       0x24 ../../bsp/ucosii_net_rozipfs/\libucosii_bsp.a(vfsport.o)
                0x070568cc                prep_vfs
 .text          0x070568f0        0x0 ../../bsp/ucosii_net_rozipfs/\libucosii_bsp.a(alt_exception_entry.o)
 .text          0x070568f0      0x1b4 ../../bsp/ucosii_net_rozipfs/\libucosii_bsp.a(alt_fcntl.o)
                0x070568f0                alt_fcntl
 .text          0x07056aa4     0x1528 ../../bsp/ucosii_net_rozipfs/\libucosii_bsp.a(icmp.o)
                0x07056aa4                icmprcv
                0x070576d8                icmp_destun
                0x07057a28                icmp_timex
                0x07057d5c                icmp_du
                0x07057db0                icmp_stats
 .text          0x07057fcc       0x14 d:/altera/12.1sp1b243/nios2eds/bin/gnu/h-i686-mingw32/bin/../lib/gcc/nios2-elf/4.1.2/../../../../nios2-elf/lib\libc.a(lib_a-atexit.o)
                0x07057fcc                atexit
 .text          0x07057fe0       0x38 d:/altera/12.1sp1b243/nios2eds/bin/gnu/h-i686-mingw32/bin/../lib/gcc/nios2-elf/4.1.2/../../../../nios2-elf/lib\libc.a(lib_a-exit.o)
                0x07057fe0                exit
 .text          0x07058018       0x34 d:/altera/12.1sp1b243/nios2eds/bin/gnu/h-i686-mingw32/bin/../lib/gcc/nios2-elf/4.1.2/../../../../nios2-elf/lib\libc.a(lib_a-vprintf.o)
                0x07058018                _vprintf_r
                0x0705802c                vprintf
 .text          0x0705804c      0x134 d:/altera/12.1sp1b243/nios2eds/bin/gnu/h-i686-mingw32/bin/../lib/gcc/nios2-elf/4.1.2/../../../../nios2-elf/lib\libc.a(lib_a-__atexit.o)
                0x0705804c                __register_exitproc
 .text          0x07058180      0x1b4 d:/altera/12.1sp1b243/nios2eds/bin/gnu/h-i686-mingw32/bin/../lib/gcc/nios2-elf/4.1.2/../../../../nios2-elf/lib\libc.a(lib_a-__call_atexit.o)
                0x07058184                __call_exitprocs
 .text          0x07058334       0x6c ../../bsp/ucosii_net_rozipfs/\libucosii_bsp.a(alt_exit.o)
                0x07058374                _exit
 *(.gnu.warning.*)
 *(.fini)
                0x070583a0                PROVIDE (__etext, ABSOLUTE (.))
                0x070583a0                PROVIDE (_etext, ABSOLUTE (.))
                0x070583a0                PROVIDE (etext, ABSOLUTE (.))
 *(.eh_frame_hdr)
                0x070583a0                . = ALIGN (0x4)
                0x070583a0                PROVIDE (__preinit_array_start, ABSOLUTE (.))
 *(.preinit_array)
                0x070583a0                PROVIDE (__preinit_array_end, ABSOLUTE (.))
                0x070583a0                PROVIDE (__init_array_start, ABSOLUTE (.))
 *(.init_array)
                0x070583a0                PROVIDE (__init_array_end, ABSOLUTE (.))
                0x070583a0                PROVIDE (__fini_array_start, ABSOLUTE (.))
 *(.fini_array)
                0x070583a0                PROVIDE (__fini_array_end, ABSOLUTE (.))
 *(.eh_frame)
 *(.gcc_except_table)
 *(.dynamic)
                0x070583a0                PROVIDE (__CTOR_LIST__, ABSOLUTE (.))
 *(.ctors)
 *(SORT(.ctors.*))
 .ctors.65535   0x070583a0        0x4 d:/altera/12.1sp1b243/nios2eds/bin/gnu/h-i686-mingw32/bin/../lib/gcc/nios2-elf/4.1.2/../../../../nios2-elf/lib\libc.a(lib_a-__call_atexit.o)
                0x070583a4                PROVIDE (__CTOR_END__, ABSOLUTE (.))
                0x070583a4                PROVIDE (__DTOR_LIST__, ABSOLUTE (.))
 *(.dtors)
 *(SORT(.dtors.*))
                0x070583a4                PROVIDE (__DTOR_END__, ABSOLUTE (.))
 *(.jcr)
                0x070583a4                . = ALIGN (0x4)

.rodata         0x070583a4     0x7968
                0x070583a4                PROVIDE (__ram_rodata_start, ABSOLUTE (.))
                0x070583a4                . = ALIGN (0x4)
 *(.rodata .rodata.* .gnu.linkonce.r.*)
 .rodata        0x070583a4       0x40 obj/default/src/main.o
 .rodata        0x070583e4      0x658 obj/default/src/os_utils.o
 .rodata        0x07058a3c       0xa8 obj/default/src/srec/srec.o
 .rodata        0x07058ae4     0x1170 obj/default/src/webserver.o
 .rodata        0x07059c54      0x281 d:/altera/12.1sp1b243/nios2eds/bin/gnu/h-i686-mingw32/bin/../lib/gcc/nios2-elf/4.1.2/../../../../nios2-elf/lib\libc.a(lib_a-ctype_.o)
                0x07059c54                _ctype_
 *fill*         0x07059ed5        0x3 00
 .rodata.str1.4
                0x07059ed8        0x2 d:/altera/12.1sp1b243/nios2eds/bin/gnu/h-i686-mingw32/bin/../lib/gcc/nios2-elf/4.1.2/../../../../nios2-elf/lib\libc.a(lib_a-impure.o)
                                  0x4 (size before relaxing)
 *fill*         0x07059eda        0x2 00
 .rodata.str1.4
                0x07059edc        0x3 d:/altera/12.1sp1b243/nios2eds/bin/gnu/h-i686-mingw32/bin/../lib/gcc/nios2-elf/4.1.2/../../../../nios2-elf/lib\libc.a(lib_a-perror.o)
                                  0x4 (size before relaxing)
 *fill*         0x07059edf        0x1 00
 .rodata.str1.4
                0x07059ee0        0x2 d:/altera/12.1sp1b243/nios2eds/bin/gnu/h-i686-mingw32/bin/../lib/gcc/nios2-elf/4.1.2/../../../../nios2-elf/lib\libc.a(lib_a-puts.o)
                                  0x4 (size before relaxing)
 *fill*         0x07059ee2        0x2 00
 .rodata.str1.4
                0x07059ee4      0x7a2 d:/altera/12.1sp1b243/nios2eds/bin/gnu/h-i686-mingw32/bin/../lib/gcc/nios2-elf/4.1.2/../../../../nios2-elf/lib\libc.a(lib_a-strerror.o)
                                0x7a8 (size before relaxing)
 *fill*         0x0705a686        0x2 00
 .rodata.str1.4
                0x0705a688       0x5e d:/altera/12.1sp1b243/nios2eds/bin/gnu/h-i686-mingw32/bin/../lib/gcc/nios2-elf/4.1.2/../../../../nios2-elf/lib\libc.a(lib_a-vfprintf.o)
                                 0x60 (size before relaxing)
 .rodata        0x0705a6e6       0x20 d:/altera/12.1sp1b243/nios2eds/bin/gnu/h-i686-mingw32/bin/../lib/gcc/nios2-elf/4.1.2/../../../../nios2-elf/lib\libc.a(lib_a-vfprintf.o)
 *fill*         0x0705a706        0x2 00
 .rodata.str1.4
                0x0705a708        0x5 d:/altera/12.1sp1b243/nios2eds/bin/gnu/h-i686-mingw32/bin/../lib/gcc/nios2-elf/4.1.2/../../../../nios2-elf/lib\libc.a(lib_a-vfscanf.o)
                                  0x8 (size before relaxing)
 *fill*         0x0705a70d        0x1 00
 .rodata        0x0705a70e       0x22 d:/altera/12.1sp1b243/nios2eds/bin/gnu/h-i686-mingw32/bin/../lib/gcc/nios2-elf/4.1.2/../../../../nios2-elf/lib\libc.a(lib_a-vfscanf.o)
 .rodata.str1.4
                0x0705a730       0x10 d:/altera/12.1sp1b243/nios2eds/bin/gnu/h-i686-mingw32/bin/../lib/gcc/nios2-elf/4.1.2/../../../../nios2-elf/lib\libc.a(lib_a-dtoa.o)
                                 0x14 (size before relaxing)
 .rodata.str1.4
                0x0705a740        0xf d:/altera/12.1sp1b243/nios2eds/bin/gnu/h-i686-mingw32/bin/../lib/gcc/nios2-elf/4.1.2/../../../../nios2-elf/lib\libc.a(lib_a-locale.o)
                                 0x18 (size before relaxing)
 *fill*         0x0705a74f        0x1 00
 .rodata        0x0705a750       0x30 d:/altera/12.1sp1b243/nios2eds/bin/gnu/h-i686-mingw32/bin/../lib/gcc/nios2-elf/4.1.2/../../../../nios2-elf/lib\libc.a(lib_a-locale.o)
 .rodata.str1.4
                0x00000000        0x4 d:/altera/12.1sp1b243/nios2eds/bin/gnu/h-i686-mingw32/bin/../lib/gcc/nios2-elf/4.1.2/../../../../nios2-elf/lib\libc.a(lib_a-mbrtowc.o)
 .rodata        0x0705a780      0x124 d:/altera/12.1sp1b243/nios2eds/bin/gnu/h-i686-mingw32/bin/../lib/gcc/nios2-elf/4.1.2/../../../../nios2-elf/lib\libc.a(lib_a-mprec.o)
                0x0705a780                __mprec_tens
                0x0705a848                __mprec_bigtens
                0x0705a870                __mprec_tinytens
 .rodata.str1.4
                0x0705a8a4        0xf d:/altera/12.1sp1b243/nios2eds/bin/gnu/h-i686-mingw32/bin/../lib/gcc/nios2-elf/4.1.2/../../../../nios2-elf/lib\libc.a(lib_a-strtod.o)
                                 0x10 (size before relaxing)
 *fill*         0x0705a8b3        0x1 00
 .rodata        0x0705a8b4       0x28 d:/altera/12.1sp1b243/nios2eds/bin/gnu/h-i686-mingw32/bin/../lib/gcc/nios2-elf/4.1.2/../../../../nios2-elf/lib\libc.a(lib_a-strtod.o)
 .rodata.str1.4
                0x0705a8dc       0x1c d:/altera/12.1sp1b243/nios2eds/bin/gnu/h-i686-mingw32/bin/../lib/gcc/nios2-elf/4.1.2/../../../../nios2-elf/lib\libc.a(lib_a-gdtoa-gethex.o)
 .rodata        0x0705a8f8       0x14 d:/altera/12.1sp1b243/nios2eds/bin/gnu/h-i686-mingw32/bin/../lib/gcc/nios2-elf/4.1.2\libgcc.a(_thenan_df.o)
                0x0705a8f8                __thenan_df
 .rodata        0x0705a90c      0x100 d:/altera/12.1sp1b243/nios2eds/bin/gnu/h-i686-mingw32/bin/../lib/gcc/nios2-elf/4.1.2\libgcc.a(_clz.o)
                0x0705a90c                __clz_tab
 .rodata        0x0705aa0c       0x10 ../../bsp/ucosii_net_rozipfs/\libucosii_bsp.a(alt_main.o)
 .rodata        0x0705aa1c      0x120 ../../bsp/ucosii_net_rozipfs/\libucosii_bsp.a(os_core.o)
                0x0705aa1c                OSUnMapTbl
 .rodata        0x0705ab3c       0x6c ../../bsp/ucosii_net_rozipfs/\libucosii_bsp.a(alt_sys_init.o)
 .rodata        0x0705aba8     0x1cc0 ../../bsp/ucosii_net_rozipfs/\libucosii_bsp.a(altera_avalon_tse.o)
 .rodata        0x0705c868      0x374 ../../bsp/ucosii_net_rozipfs/\libucosii_bsp.a(ins_tse_mac.o)
 .rodata        0x0705cbdc       0xd8 ../../bsp/ucosii_net_rozipfs/\libucosii_bsp.a(ipnet.o)
 .rodata        0x0705ccb4       0xec ../../bsp/ucosii_net_rozipfs/\libucosii_bsp.a(ipstart.o)
 .rodata        0x0705cda0      0x54c ../../bsp/ucosii_net_rozipfs/\libucosii_bsp.a(igmp_cmn.o)
 .rodata        0x0705d2ec       0xb8 ../../bsp/ucosii_net_rozipfs/\libucosii_bsp.a(in_utils.o)
 .rodata        0x0705d3a4       0x34 ../../bsp/ucosii_net_rozipfs/\libucosii_bsp.a(netmain.o)
 .rodata        0x0705d3d8      0x1a8 ../../bsp/ucosii_net_rozipfs/\libucosii_bsp.a(tk_crnos.o)
 .rodata        0x0705d580      0x258 ../../bsp/ucosii_net_rozipfs/\libucosii_bsp.a(dhcpclnt.o)
 .rodata        0x0705d7d8      0x118 ../../bsp/ucosii_net_rozipfs/\libucosii_bsp.a(pktalloc.o)
 .rodata        0x0705d8f0       0x84 ../../bsp/ucosii_net_rozipfs/\libucosii_bsp.a(udp_open.o)
 .rodata        0x0705d974       0x2c ../../bsp/ucosii_net_rozipfs/\libucosii_bsp.a(brdutils.o)
 .rodata        0x0705d9a0      0x26c ../../bsp/ucosii_net_rozipfs/\libucosii_bsp.a(osportco.o)
 .rodata        0x0705dc0c       0xa0 ../../bsp/ucosii_net_rozipfs/\libucosii_bsp.a(targnios.o)
 .rodata        0x0705dcac      0xa0c ../../bsp/ucosii_net_rozipfs/\libucosii_bsp.a(nptcp.o)
 .rodata        0x0705e6b8        0x8 ../../bsp/ucosii_net_rozipfs/\libucosii_bsp.a(sockcall.o)
 .rodata        0x0705e6c0       0x50 ../../bsp/ucosii_net_rozipfs/\libucosii_bsp.a(socket.o)
 .rodata        0x0705e710       0x40 ../../bsp/ucosii_net_rozipfs/\libucosii_bsp.a(socket2.o)
 .rodata        0x0705e750       0x20 ../../bsp/ucosii_net_rozipfs/\libucosii_bsp.a(tcp_in.o)
 .rodata        0x0705e770       0x40 ../../bsp/ucosii_net_rozipfs/\libucosii_bsp.a(tcp_out.o)
 .rodata        0x0705e7b0       0x24 ../../bsp/ucosii_net_rozipfs/\libucosii_bsp.a(tcp_subr.o)
 .rodata        0x0705e7d4       0x2c ../../bsp/ucosii_net_rozipfs/\libucosii_bsp.a(tcp_usr.o)
 .rodata        0x0705e800        0xc ../../bsp/ucosii_net_rozipfs/\libucosii_bsp.a(alt_dev.o)
 .rodata        0x0705e80c        0x4 ../../bsp/ucosii_net_rozipfs/\libucosii_bsp.a(os_cpu_c.o)
 .rodata        0x0705e810      0x1d4 ../../bsp/ucosii_net_rozipfs/\libucosii_bsp.a(allports.o)
 .rodata        0x0705e9e4       0x34 ../../bsp/ucosii_net_rozipfs/\libucosii_bsp.a(tk_misc.o)
 .rodata        0x0705ea18      0x138 ../../bsp/ucosii_net_rozipfs/\libucosii_bsp.a(et_arp.o)
 .rodata        0x0705eb50      0x1dc ../../bsp/ucosii_net_rozipfs/\libucosii_bsp.a(ip.o)
 .rodata        0x0705ed2c      0x158 ../../bsp/ucosii_net_rozipfs/\libucosii_bsp.a(ip_reasm.o)
 .rodata        0x0705ee84      0x2cc ../../bsp/ucosii_net_rozipfs/\libucosii_bsp.a(ipdemux.o)
 .rodata        0x0705f150       0x34 ../../bsp/ucosii_net_rozipfs/\libucosii_bsp.a(ipport.o)
 .rodata        0x0705f184       0x24 ../../bsp/ucosii_net_rozipfs/\libucosii_bsp.a(ipraw.o)
 .rodata        0x0705f1a8       0x38 ../../bsp/ucosii_net_rozipfs/\libucosii_bsp.a(iproute.o)
 .rodata        0x0705f1e0      0x220 ../../bsp/ucosii_net_rozipfs/\libucosii_bsp.a(udp.o)
 .rodata        0x0705f400      0x2d0 ../../bsp/ucosii_net_rozipfs/\libucosii_bsp.a(u_mctest.o)
 .rodata        0x0705f6d0       0xf8 ../../bsp/ucosii_net_rozipfs/\libucosii_bsp.a(dhcsetup.o)
 .rodata        0x0705f7c8       0x94 ../../bsp/ucosii_net_rozipfs/\libucosii_bsp.a(parseip.o)
 .rodata        0x0705f85c       0x34 ../../bsp/ucosii_net_rozipfs/\libucosii_bsp.a(vfsfiles.o)
 .rodata        0x0705f890      0x47c ../../bsp/ucosii_net_rozipfs/\libucosii_bsp.a(icmp.o)
 *(.rodata1)
                0x0705fd0c                . = ALIGN (0x4)
                0x0705fd0c                PROVIDE (__ram_rodata_end, ABSOLUTE (.))
                0x070583a4                PROVIDE (__flash_rodata_start, LOADADDR (.rodata))

.rwdata         0x0705fd0c     0x2330
                0x0705fd0c                PROVIDE (__ram_rwdata_start, ABSOLUTE (.))
                0x0705fd0c                . = ALIGN (0x4)
 *(.got.plt)
 *(.got)
 *(.data1)
 *(.data .data.* .gnu.linkonce.d.*)
 .data          0x0705fd0c        0x0 ../../bsp/ucosii_net_rozipfs//obj/HAL/src/crt0.o
 .data          0x0705fd0c        0x0 obj/default/src/flash_intel_p30/flash_intel_p30.o
 .data          0x0705fd0c      0x120 obj/default/src/main.o
                0x0705fd0c                tse_mac_device
 .data          0x0705fe2c        0x0 obj/default/src/os_utils.o
 .data          0x0705fe2c        0x0 obj/default/src/reconfig_utils.o
 .data          0x0705fe2c      0x128 obj/default/src/srec/srec.o
 .data          0x0705ff54        0x0 obj/default/src/tse_my_system.o
 .data          0x0705ff54       0x18 obj/default/src/webserver.o
                0x0705ff54                wstask
 .data          0x0705ff6c        0x0 d:/altera/12.1sp1b243/nios2eds/bin/gnu/h-i686-mingw32/bin/../lib/gcc/nios2-elf/4.1.2\libgcc.a(lib2-divmod.o)
 .data          0x0705ff6c        0x0 d:/altera/12.1sp1b243/nios2eds/bin/gnu/h-i686-mingw32/bin/../lib/gcc/nios2-elf/4.1.2/../../../../nios2-elf/lib\libc.a(lib_a-atoi.o)
 .data          0x0705ff6c        0x0 d:/altera/12.1sp1b243/nios2eds/bin/gnu/h-i686-mingw32/bin/../lib/gcc/nios2-elf/4.1.2/../../../../nios2-elf/lib\libc.a(lib_a-calloc.o)
 .data          0x0705ff6c        0x0 d:/altera/12.1sp1b243/nios2eds/bin/gnu/h-i686-mingw32/bin/../lib/gcc/nios2-elf/4.1.2/../../../../nios2-elf/lib\libc.a(lib_a-callocr.o)
 .data          0x0705ff6c        0x0 d:/altera/12.1sp1b243/nios2eds/bin/gnu/h-i686-mingw32/bin/../lib/gcc/nios2-elf/4.1.2/../../../../nios2-elf/lib\libc.a(lib_a-ctype_.o)
 .data          0x0705ff6c        0x0 d:/altera/12.1sp1b243/nios2eds/bin/gnu/h-i686-mingw32/bin/../lib/gcc/nios2-elf/4.1.2/../../../../nios2-elf/lib\libc.a(lib_a-fclose.o)
 .data          0x0705ff6c        0x0 d:/altera/12.1sp1b243/nios2eds/bin/gnu/h-i686-mingw32/bin/../lib/gcc/nios2-elf/4.1.2/../../../../nios2-elf/lib\libc.a(lib_a-fflush.o)
 .data          0x0705ff6c        0x0 d:/altera/12.1sp1b243/nios2eds/bin/gnu/h-i686-mingw32/bin/../lib/gcc/nios2-elf/4.1.2/../../../../nios2-elf/lib\libc.a(lib_a-fgetpos.o)
 .data          0x0705ff6c        0x0 d:/altera/12.1sp1b243/nios2eds/bin/gnu/h-i686-mingw32/bin/../lib/gcc/nios2-elf/4.1.2/../../../../nios2-elf/lib\libc.a(lib_a-findfp.o)
 .data          0x0705ff6c        0x0 d:/altera/12.1sp1b243/nios2eds/bin/gnu/h-i686-mingw32/bin/../lib/gcc/nios2-elf/4.1.2/../../../../nios2-elf/lib\libc.a(lib_a-fopen.o)
 .data          0x0705ff6c        0x0 d:/altera/12.1sp1b243/nios2eds/bin/gnu/h-i686-mingw32/bin/../lib/gcc/nios2-elf/4.1.2/../../../../nios2-elf/lib\libc.a(lib_a-fread.o)
 .data          0x0705ff6c        0x0 d:/altera/12.1sp1b243/nios2eds/bin/gnu/h-i686-mingw32/bin/../lib/gcc/nios2-elf/4.1.2/../../../../nios2-elf/lib\libc.a(lib_a-freer.o)
 .data          0x0705ff6c        0x0 d:/altera/12.1sp1b243/nios2eds/bin/gnu/h-i686-mingw32/bin/../lib/gcc/nios2-elf/4.1.2/../../../../nios2-elf/lib\libc.a(lib_a-fseek.o)
 .data          0x0705ff6c        0x0 d:/altera/12.1sp1b243/nios2eds/bin/gnu/h-i686-mingw32/bin/../lib/gcc/nios2-elf/4.1.2/../../../../nios2-elf/lib\libc.a(lib_a-fstatr.o)
 .data          0x0705ff6c        0x0 d:/altera/12.1sp1b243/nios2eds/bin/gnu/h-i686-mingw32/bin/../lib/gcc/nios2-elf/4.1.2/../../../../nios2-elf/lib\libc.a(lib_a-ftell.o)
 .data          0x0705ff6c        0x0 d:/altera/12.1sp1b243/nios2eds/bin/gnu/h-i686-mingw32/bin/../lib/gcc/nios2-elf/4.1.2/../../../../nios2-elf/lib\libc.a(lib_a-fwalk.o)
 .data          0x0705ff6c        0x0 d:/altera/12.1sp1b243/nios2eds/bin/gnu/h-i686-mingw32/bin/../lib/gcc/nios2-elf/4.1.2/../../../../nios2-elf/lib\libc.a(lib_a-fwrite.o)
 .data          0x0705ff6c        0x0 d:/altera/12.1sp1b243/nios2eds/bin/gnu/h-i686-mingw32/bin/../lib/gcc/nios2-elf/4.1.2/../../../../nios2-elf/lib\libc.a(lib_a-getc.o)
 .data          0x0705ff6c      0x400 d:/altera/12.1sp1b243/nios2eds/bin/gnu/h-i686-mingw32/bin/../lib/gcc/nios2-elf/4.1.2/../../../../nios2-elf/lib\libc.a(lib_a-impure.o)
 .data          0x0706036c        0x0 d:/altera/12.1sp1b243/nios2eds/bin/gnu/h-i686-mingw32/bin/../lib/gcc/nios2-elf/4.1.2/../../../../nios2-elf/lib\libc.a(lib_a-int_errno.o)
 .data          0x0706036c        0x0 d:/altera/12.1sp1b243/nios2eds/bin/gnu/h-i686-mingw32/bin/../lib/gcc/nios2-elf/4.1.2/../../../../nios2-elf/lib\libc.a(lib_a-makebuf.o)
 .data          0x0706036c        0x0 d:/altera/12.1sp1b243/nios2eds/bin/gnu/h-i686-mingw32/bin/../lib/gcc/nios2-elf/4.1.2/../../../../nios2-elf/lib\libc.a(lib_a-malloc.o)
 .data          0x0706036c      0x408 d:/altera/12.1sp1b243/nios2eds/bin/gnu/h-i686-mingw32/bin/../lib/gcc/nios2-elf/4.1.2/../../../../nios2-elf/lib\libc.a(lib_a-mallocr.o)
                0x0706036c                __malloc_av_
 .data          0x07060774        0x0 d:/altera/12.1sp1b243/nios2eds/bin/gnu/h-i686-mingw32/bin/../lib/gcc/nios2-elf/4.1.2/../../../../nios2-elf/lib\libc.a(lib_a-memchr.o)
 .data          0x07060774        0x0 d:/altera/12.1sp1b243/nios2eds/bin/gnu/h-i686-mingw32/bin/../lib/gcc/nios2-elf/4.1.2/../../../../nios2-elf/lib\libc.a(lib_a-memcmp.o)
 .data          0x07060774        0x0 d:/altera/12.1sp1b243/nios2eds/bin/gnu/h-i686-mingw32/bin/../lib/gcc/nios2-elf/4.1.2/../../../../nios2-elf/lib\libc.a(lib_a-memcpy.o)
 .data          0x07060774        0x0 d:/altera/12.1sp1b243/nios2eds/bin/gnu/h-i686-mingw32/bin/../lib/gcc/nios2-elf/4.1.2/../../../../nios2-elf/lib\libc.a(lib_a-memmove.o)
 .data          0x07060774        0x0 d:/altera/12.1sp1b243/nios2eds/bin/gnu/h-i686-mingw32/bin/../lib/gcc/nios2-elf/4.1.2/../../../../nios2-elf/lib\libc.a(lib_a-memset.o)
 .data          0x07060774        0x0 d:/altera/12.1sp1b243/nios2eds/bin/gnu/h-i686-mingw32/bin/../lib/gcc/nios2-elf/4.1.2/../../../../nios2-elf/lib\libc.a(lib_a-openr.o)
 .data          0x07060774        0x0 d:/altera/12.1sp1b243/nios2eds/bin/gnu/h-i686-mingw32/bin/../lib/gcc/nios2-elf/4.1.2/../../../../nios2-elf/lib\libc.a(lib_a-perror.o)
 .data          0x07060774        0x0 d:/altera/12.1sp1b243/nios2eds/bin/gnu/h-i686-mingw32/bin/../lib/gcc/nios2-elf/4.1.2/../../../../nios2-elf/lib\libc.a(lib_a-putc.o)
 .data          0x07060774        0x0 d:/altera/12.1sp1b243/nios2eds/bin/gnu/h-i686-mingw32/bin/../lib/gcc/nios2-elf/4.1.2/../../../../nios2-elf/lib\libc.a(lib_a-puts.o)
 .data          0x07060774        0x0 d:/altera/12.1sp1b243/nios2eds/bin/gnu/h-i686-mingw32/bin/../lib/gcc/nios2-elf/4.1.2/../../../../nios2-elf/lib\libc.a(lib_a-refill.o)
 .data          0x07060774        0x0 d:/altera/12.1sp1b243/nios2eds/bin/gnu/h-i686-mingw32/bin/../lib/gcc/nios2-elf/4.1.2/../../../../nios2-elf/lib\libc.a(lib_a-rget.o)
 .data          0x07060774        0x0 d:/altera/12.1sp1b243/nios2eds/bin/gnu/h-i686-mingw32/bin/../lib/gcc/nios2-elf/4.1.2/../../../../nios2-elf/lib\libc.a(lib_a-sbrkr.o)
 .data          0x07060774        0x0 d:/altera/12.1sp1b243/nios2eds/bin/gnu/h-i686-mingw32/bin/../lib/gcc/nios2-elf/4.1.2/../../../../nios2-elf/lib\libc.a(lib_a-sprintf.o)
 .data          0x07060774        0x0 d:/altera/12.1sp1b243/nios2eds/bin/gnu/h-i686-mingw32/bin/../lib/gcc/nios2-elf/4.1.2/../../../../nios2-elf/lib\libc.a(lib_a-sscanf.o)
 .data          0x07060774        0x0 d:/altera/12.1sp1b243/nios2eds/bin/gnu/h-i686-mingw32/bin/../lib/gcc/nios2-elf/4.1.2/../../../../nios2-elf/lib\libc.a(lib_a-stdio.o)
 .data          0x07060774        0x0 d:/altera/12.1sp1b243/nios2eds/bin/gnu/h-i686-mingw32/bin/../lib/gcc/nios2-elf/4.1.2/../../../../nios2-elf/lib\libc.a(lib_a-strcasecmp.o)
 .data          0x07060774        0x0 d:/altera/12.1sp1b243/nios2eds/bin/gnu/h-i686-mingw32/bin/../lib/gcc/nios2-elf/4.1.2/../../../../nios2-elf/lib\libc.a(lib_a-strchr.o)
 .data          0x07060774        0x0 d:/altera/12.1sp1b243/nios2eds/bin/gnu/h-i686-mingw32/bin/../lib/gcc/nios2-elf/4.1.2/../../../../nios2-elf/lib\libc.a(lib_a-strcmp.o)
 .data          0x07060774        0x0 d:/altera/12.1sp1b243/nios2eds/bin/gnu/h-i686-mingw32/bin/../lib/gcc/nios2-elf/4.1.2/../../../../nios2-elf/lib\libc.a(lib_a-strcpy.o)
 .data          0x07060774        0x0 d:/altera/12.1sp1b243/nios2eds/bin/gnu/h-i686-mingw32/bin/../lib/gcc/nios2-elf/4.1.2/../../../../nios2-elf/lib\libc.a(lib_a-strerror.o)
 .data          0x07060774        0x0 d:/altera/12.1sp1b243/nios2eds/bin/gnu/h-i686-mingw32/bin/../lib/gcc/nios2-elf/4.1.2/../../../../nios2-elf/lib\libc.a(lib_a-strlen.o)
 .data          0x07060774        0x0 d:/altera/12.1sp1b243/nios2eds/bin/gnu/h-i686-mingw32/bin/../lib/gcc/nios2-elf/4.1.2/../../../../nios2-elf/lib\libc.a(lib_a-strncmp.o)
 .data          0x07060774        0x0 d:/altera/12.1sp1b243/nios2eds/bin/gnu/h-i686-mingw32/bin/../lib/gcc/nios2-elf/4.1.2/../../../../nios2-elf/lib\libc.a(lib_a-strncpy.o)
 .data          0x07060774        0x0 d:/altera/12.1sp1b243/nios2eds/bin/gnu/h-i686-mingw32/bin/../lib/gcc/nios2-elf/4.1.2/../../../../nios2-elf/lib\libc.a(lib_a-strstr.o)
 .data          0x07060774        0x0 d:/altera/12.1sp1b243/nios2eds/bin/gnu/h-i686-mingw32/bin/../lib/gcc/nios2-elf/4.1.2/../../../../nios2-elf/lib\libc.a(lib_a-strtok.o)
 .data          0x07060774        0x0 d:/altera/12.1sp1b243/nios2eds/bin/gnu/h-i686-mingw32/bin/../lib/gcc/nios2-elf/4.1.2/../../../../nios2-elf/lib\libc.a(lib_a-strtok_r.o)
 .data          0x07060774        0x0 d:/altera/12.1sp1b243/nios2eds/bin/gnu/h-i686-mingw32/bin/../lib/gcc/nios2-elf/4.1.2/../../../../nios2-elf/lib\libc.a(lib_a-strtol.o)
 .data          0x07060774        0x0 d:/altera/12.1sp1b243/nios2eds/bin/gnu/h-i686-mingw32/bin/../lib/gcc/nios2-elf/4.1.2/../../../../nios2-elf/lib\libc.a(lib_a-u_strerr.o)
 .data          0x07060774        0x0 d:/altera/12.1sp1b243/nios2eds/bin/gnu/h-i686-mingw32/bin/../lib/gcc/nios2-elf/4.1.2/../../../../nios2-elf/lib\libc.a(lib_a-vfprintf.o)
 .data          0x07060774        0x0 d:/altera/12.1sp1b243/nios2eds/bin/gnu/h-i686-mingw32/bin/../lib/gcc/nios2-elf/4.1.2/../../../../nios2-elf/lib\libc.a(lib_a-vfscanf.o)
 .data          0x07060774        0x0 d:/altera/12.1sp1b243/nios2eds/bin/gnu/h-i686-mingw32/bin/../lib/gcc/nios2-elf/4.1.2/../../../../nios2-elf/lib\libc.a(lib_a-vsprintf.o)
 .data          0x07060774        0x0 d:/altera/12.1sp1b243/nios2eds/bin/gnu/h-i686-mingw32/bin/../lib/gcc/nios2-elf/4.1.2/../../../../nios2-elf/lib\libc.a(lib_a-wbuf.o)
 .data          0x07060774        0x0 d:/altera/12.1sp1b243/nios2eds/bin/gnu/h-i686-mingw32/bin/../lib/gcc/nios2-elf/4.1.2/../../../../nios2-elf/lib\libc.a(lib_a-writer.o)
 .data          0x07060774        0x0 d:/altera/12.1sp1b243/nios2eds/bin/gnu/h-i686-mingw32/bin/../lib/gcc/nios2-elf/4.1.2/../../../../nios2-elf/lib\libc.a(lib_a-wsetup.o)
 .data          0x07060774        0x0 d:/altera/12.1sp1b243/nios2eds/bin/gnu/h-i686-mingw32/bin/../lib/gcc/nios2-elf/4.1.2/../../../../nios2-elf/lib\libc.a(lib_a-closer.o)
 .data          0x07060774        0x0 d:/altera/12.1sp1b243/nios2eds/bin/gnu/h-i686-mingw32/bin/../lib/gcc/nios2-elf/4.1.2/../../../../nios2-elf/lib\libc.a(lib_a-dtoa.o)
 .data          0x07060774        0x0 d:/altera/12.1sp1b243/nios2eds/bin/gnu/h-i686-mingw32/bin/../lib/gcc/nios2-elf/4.1.2/../../../../nios2-elf/lib\libc.a(lib_a-flags.o)
 .data          0x07060774        0x0 d:/altera/12.1sp1b243/nios2eds/bin/gnu/h-i686-mingw32/bin/../lib/gcc/nios2-elf/4.1.2/../../../../nios2-elf/lib\libc.a(lib_a-fputc.o)
 .data          0x07060774        0x0 d:/altera/12.1sp1b243/nios2eds/bin/gnu/h-i686-mingw32/bin/../lib/gcc/nios2-elf/4.1.2/../../../../nios2-elf/lib\libc.a(lib_a-fputs.o)
 .data          0x07060774        0x0 d:/altera/12.1sp1b243/nios2eds/bin/gnu/h-i686-mingw32/bin/../lib/gcc/nios2-elf/4.1.2/../../../../nios2-elf/lib\libc.a(lib_a-fvwrite.o)
 .data          0x07060774        0x0 d:/altera/12.1sp1b243/nios2eds/bin/gnu/h-i686-mingw32/bin/../lib/gcc/nios2-elf/4.1.2/../../../../nios2-elf/lib\libc.a(lib_a-isattyr.o)
 .data          0x07060774        0x0 d:/altera/12.1sp1b243/nios2eds/bin/gnu/h-i686-mingw32/bin/../lib/gcc/nios2-elf/4.1.2/../../../../nios2-elf/lib\libc.a(lib_a-iswspace.o)
 .data          0x07060774        0xc d:/altera/12.1sp1b243/nios2eds/bin/gnu/h-i686-mingw32/bin/../lib/gcc/nios2-elf/4.1.2/../../../../nios2-elf/lib\libc.a(lib_a-locale.o)
                0x07060774                __lc_ctype
 .data          0x07060780        0x0 d:/altera/12.1sp1b243/nios2eds/bin/gnu/h-i686-mingw32/bin/../lib/gcc/nios2-elf/4.1.2/../../../../nios2-elf/lib\libc.a(lib_a-lseekr.o)
 .data          0x07060780        0x0 d:/altera/12.1sp1b243/nios2eds/bin/gnu/h-i686-mingw32/bin/../lib/gcc/nios2-elf/4.1.2/../../../../nios2-elf/lib\libc.a(lib_a-mbrtowc.o)
 .data          0x07060780        0x0 d:/altera/12.1sp1b243/nios2eds/bin/gnu/h-i686-mingw32/bin/../lib/gcc/nios2-elf/4.1.2/../../../../nios2-elf/lib\libc.a(lib_a-mbtowc_r.o)
 .data          0x07060780        0x0 d:/altera/12.1sp1b243/nios2eds/bin/gnu/h-i686-mingw32/bin/../lib/gcc/nios2-elf/4.1.2/../../../../nios2-elf/lib\libc.a(lib_a-mprec.o)
 .data          0x07060780        0x0 d:/altera/12.1sp1b243/nios2eds/bin/gnu/h-i686-mingw32/bin/../lib/gcc/nios2-elf/4.1.2/../../../../nios2-elf/lib\libc.a(lib_a-readr.o)
 .data          0x07060780        0x0 d:/altera/12.1sp1b243/nios2eds/bin/gnu/h-i686-mingw32/bin/../lib/gcc/nios2-elf/4.1.2/../../../../nios2-elf/lib\libc.a(lib_a-reallocr.o)
 .data          0x07060780        0x0 d:/altera/12.1sp1b243/nios2eds/bin/gnu/h-i686-mingw32/bin/../lib/gcc/nios2-elf/4.1.2/../../../../nios2-elf/lib\libc.a(lib_a-s_isinfd.o)
 .data          0x07060780        0x0 d:/altera/12.1sp1b243/nios2eds/bin/gnu/h-i686-mingw32/bin/../lib/gcc/nios2-elf/4.1.2/../../../../nios2-elf/lib\libc.a(lib_a-s_isnand.o)
 .data          0x07060780        0x0 d:/altera/12.1sp1b243/nios2eds/bin/gnu/h-i686-mingw32/bin/../lib/gcc/nios2-elf/4.1.2/../../../../nios2-elf/lib\libc.a(lib_a-sccl.o)
 .data          0x07060780        0x0 d:/altera/12.1sp1b243/nios2eds/bin/gnu/h-i686-mingw32/bin/../lib/gcc/nios2-elf/4.1.2/../../../../nios2-elf/lib\libc.a(lib_a-sf_nan.o)
 .data          0x07060780       0x28 d:/altera/12.1sp1b243/nios2eds/bin/gnu/h-i686-mingw32/bin/../lib/gcc/nios2-elf/4.1.2/../../../../nios2-elf/lib\libc.a(lib_a-strtod.o)
 .data          0x070607a8        0x0 d:/altera/12.1sp1b243/nios2eds/bin/gnu/h-i686-mingw32/bin/../lib/gcc/nios2-elf/4.1.2/../../../../nios2-elf/lib\libc.a(lib_a-strtoll_r.o)
 .data          0x070607a8        0x0 d:/altera/12.1sp1b243/nios2eds/bin/gnu/h-i686-mingw32/bin/../lib/gcc/nios2-elf/4.1.2/../../../../nios2-elf/lib\libc.a(lib_a-strtoul.o)
 .data          0x070607a8        0x0 d:/altera/12.1sp1b243/nios2eds/bin/gnu/h-i686-mingw32/bin/../lib/gcc/nios2-elf/4.1.2/../../../../nios2-elf/lib\libc.a(lib_a-strtoull_r.o)
 .data          0x070607a8        0x0 d:/altera/12.1sp1b243/nios2eds/bin/gnu/h-i686-mingw32/bin/../lib/gcc/nios2-elf/4.1.2/../../../../nios2-elf/lib\libc.a(lib_a-ungetc.o)
 .data          0x070607a8        0x0 d:/altera/12.1sp1b243/nios2eds/bin/gnu/h-i686-mingw32/bin/../lib/gcc/nios2-elf/4.1.2/../../../../nios2-elf/lib\libc.a(lib_a-gdtoa-gethex.o)
 .data          0x070607a8        0x0 d:/altera/12.1sp1b243/nios2eds/bin/gnu/h-i686-mingw32/bin/../lib/gcc/nios2-elf/4.1.2/../../../../nios2-elf/lib\libc.a(lib_a-gdtoa-hexnan.o)
 .data          0x070607a8        0x0 d:/altera/12.1sp1b243/nios2eds/bin/gnu/h-i686-mingw32/bin/../lib/gcc/nios2-elf/4.1.2\libgcc.a(_muldi3.o)
 .data          0x070607a8        0x0 d:/altera/12.1sp1b243/nios2eds/bin/gnu/h-i686-mingw32/bin/../lib/gcc/nios2-elf/4.1.2\libgcc.a(_fixunsdfsi.o)
 .data          0x070607a8        0x0 d:/altera/12.1sp1b243/nios2eds/bin/gnu/h-i686-mingw32/bin/../lib/gcc/nios2-elf/4.1.2\libgcc.a(_udivdi3.o)
 .data          0x070607a8        0x0 d:/altera/12.1sp1b243/nios2eds/bin/gnu/h-i686-mingw32/bin/../lib/gcc/nios2-elf/4.1.2\libgcc.a(_umoddi3.o)
 .data          0x070607a8        0x0 d:/altera/12.1sp1b243/nios2eds/bin/gnu/h-i686-mingw32/bin/../lib/gcc/nios2-elf/4.1.2\libgcc.a(_ne_sf.o)
 .data          0x070607a8        0x0 d:/altera/12.1sp1b243/nios2eds/bin/gnu/h-i686-mingw32/bin/../lib/gcc/nios2-elf/4.1.2\libgcc.a(_gt_sf.o)
 .data          0x070607a8        0x0 d:/altera/12.1sp1b243/nios2eds/bin/gnu/h-i686-mingw32/bin/../lib/gcc/nios2-elf/4.1.2\libgcc.a(_lt_sf.o)
 .data          0x070607a8        0x0 d:/altera/12.1sp1b243/nios2eds/bin/gnu/h-i686-mingw32/bin/../lib/gcc/nios2-elf/4.1.2\libgcc.a(_addsub_df.o)
 .data          0x070607a8        0x0 d:/altera/12.1sp1b243/nios2eds/bin/gnu/h-i686-mingw32/bin/../lib/gcc/nios2-elf/4.1.2\libgcc.a(_mul_df.o)
 .data          0x070607a8        0x0 d:/altera/12.1sp1b243/nios2eds/bin/gnu/h-i686-mingw32/bin/../lib/gcc/nios2-elf/4.1.2\libgcc.a(_div_df.o)
 .data          0x070607a8        0x0 d:/altera/12.1sp1b243/nios2eds/bin/gnu/h-i686-mingw32/bin/../lib/gcc/nios2-elf/4.1.2\libgcc.a(_eq_df.o)
 .data          0x070607a8        0x0 d:/altera/12.1sp1b243/nios2eds/bin/gnu/h-i686-mingw32/bin/../lib/gcc/nios2-elf/4.1.2\libgcc.a(_ne_df.o)
 .data          0x070607a8        0x0 d:/altera/12.1sp1b243/nios2eds/bin/gnu/h-i686-mingw32/bin/../lib/gcc/nios2-elf/4.1.2\libgcc.a(_gt_df.o)
 .data          0x070607a8        0x0 d:/altera/12.1sp1b243/nios2eds/bin/gnu/h-i686-mingw32/bin/../lib/gcc/nios2-elf/4.1.2\libgcc.a(_ge_df.o)
 .data          0x070607a8        0x0 d:/altera/12.1sp1b243/nios2eds/bin/gnu/h-i686-mingw32/bin/../lib/gcc/nios2-elf/4.1.2\libgcc.a(_lt_df.o)
 .data          0x070607a8        0x0 d:/altera/12.1sp1b243/nios2eds/bin/gnu/h-i686-mingw32/bin/../lib/gcc/nios2-elf/4.1.2\libgcc.a(_le_df.o)
 .data          0x070607a8        0x0 d:/altera/12.1sp1b243/nios2eds/bin/gnu/h-i686-mingw32/bin/../lib/gcc/nios2-elf/4.1.2\libgcc.a(_si_to_df.o)
 .data          0x070607a8        0x0 d:/altera/12.1sp1b243/nios2eds/bin/gnu/h-i686-mingw32/bin/../lib/gcc/nios2-elf/4.1.2\libgcc.a(_df_to_si.o)
 .data          0x070607a8        0x0 d:/altera/12.1sp1b243/nios2eds/bin/gnu/h-i686-mingw32/bin/../lib/gcc/nios2-elf/4.1.2\libgcc.a(_df_to_sf.o)
 .data          0x070607a8        0x0 d:/altera/12.1sp1b243/nios2eds/bin/gnu/h-i686-mingw32/bin/../lib/gcc/nios2-elf/4.1.2\libgcc.a(_thenan_df.o)
 .data          0x070607a8        0x0 d:/altera/12.1sp1b243/nios2eds/bin/gnu/h-i686-mingw32/bin/../lib/gcc/nios2-elf/4.1.2\libgcc.a(_usi_to_df.o)
 .data          0x070607a8        0x0 d:/altera/12.1sp1b243/nios2eds/bin/gnu/h-i686-mingw32/bin/../lib/gcc/nios2-elf/4.1.2\libgcc.a(_clz.o)
 .data          0x070607a8        0x0 d:/altera/12.1sp1b243/nios2eds/bin/gnu/h-i686-mingw32/bin/../lib/gcc/nios2-elf/4.1.2\libgcc.a(_clzsi2.o)
 .data          0x070607a8        0x0 d:/altera/12.1sp1b243/nios2eds/bin/gnu/h-i686-mingw32/bin/../lib/gcc/nios2-elf/4.1.2\libgcc.a(_unpack_sf.o)
 .data          0x070607a8        0x0 d:/altera/12.1sp1b243/nios2eds/bin/gnu/h-i686-mingw32/bin/../lib/gcc/nios2-elf/4.1.2\libgcc.a(_fpcmp_parts_sf.o)
 .data          0x070607a8        0x0 d:/altera/12.1sp1b243/nios2eds/bin/gnu/h-i686-mingw32/bin/../lib/gcc/nios2-elf/4.1.2\libgcc.a(_make_sf.o)
 .data          0x070607a8        0x0 d:/altera/12.1sp1b243/nios2eds/bin/gnu/h-i686-mingw32/bin/../lib/gcc/nios2-elf/4.1.2\libgcc.a(_pack_df.o)
 .data          0x070607a8        0x0 d:/altera/12.1sp1b243/nios2eds/bin/gnu/h-i686-mingw32/bin/../lib/gcc/nios2-elf/4.1.2\libgcc.a(_unpack_df.o)
 .data          0x070607a8        0x0 d:/altera/12.1sp1b243/nios2eds/bin/gnu/h-i686-mingw32/bin/../lib/gcc/nios2-elf/4.1.2\libgcc.a(_fpcmp_parts_df.o)
 .data          0x070607a8        0x0 d:/altera/12.1sp1b243/nios2eds/bin/gnu/h-i686-mingw32/bin/../lib/gcc/nios2-elf/4.1.2\libgcc.a(_pack_sf.o)
 .data          0x070607a8        0x0 ../../bsp/ucosii_net_rozipfs/\libucosii_bsp.a(alt_fstat.o)
 .data          0x070607a8        0x0 ../../bsp/ucosii_net_rozipfs/\libucosii_bsp.a(alt_isatty.o)
 .data          0x070607a8        0x0 ../../bsp/ucosii_net_rozipfs/\libucosii_bsp.a(alt_lseek.o)
 .data          0x070607a8        0x0 ../../bsp/ucosii_net_rozipfs/\libucosii_bsp.a(alt_main.o)
 .data          0x070607a8        0x0 ../../bsp/ucosii_net_rozipfs/\libucosii_bsp.a(alt_open.o)
 .data          0x070607a8        0x0 ../../bsp/ucosii_net_rozipfs/\libucosii_bsp.a(alt_release_fd.o)
 .data          0x070607a8        0x0 ../../bsp/ucosii_net_rozipfs/\libucosii_bsp.a(alt_sbrk.o)
 .data          0x070607a8        0x0 ../../bsp/ucosii_net_rozipfs/\libucosii_bsp.a(alt_tick.o)
 .data          0x070607a8        0x0 ../../bsp/ucosii_net_rozipfs/\libucosii_bsp.a(alt_usleep.o)
 .data          0x070607a8        0x0 ../../bsp/ucosii_net_rozipfs/\libucosii_bsp.a(alt_env_lock.o)
 .data          0x070607a8        0x0 ../../bsp/ucosii_net_rozipfs/\libucosii_bsp.a(alt_malloc_lock.o)
 .data          0x070607a8        0x0 ../../bsp/ucosii_net_rozipfs/\libucosii_bsp.a(os_core.o)
 .data          0x070607a8        0x0 ../../bsp/ucosii_net_rozipfs/\libucosii_bsp.a(os_dbg.o)
 .data          0x070607a8        0x0 ../../bsp/ucosii_net_rozipfs/\libucosii_bsp.a(os_flag.o)
 .data          0x070607a8        0x0 ../../bsp/ucosii_net_rozipfs/\libucosii_bsp.a(os_mbox.o)
 .data          0x070607a8        0x0 ../../bsp/ucosii_net_rozipfs/\libucosii_bsp.a(os_mem.o)
 .data          0x070607a8        0x0 ../../bsp/ucosii_net_rozipfs/\libucosii_bsp.a(os_q.o)
 .data          0x070607a8        0x0 ../../bsp/ucosii_net_rozipfs/\libucosii_bsp.a(os_sem.o)
 .data          0x070607a8        0x0 ../../bsp/ucosii_net_rozipfs/\libucosii_bsp.a(os_task.o)
 .data          0x070607a8        0x0 ../../bsp/ucosii_net_rozipfs/\libucosii_bsp.a(os_time.o)
 .data          0x070607a8     0x12f8 ../../bsp/ucosii_net_rozipfs/\libucosii_bsp.a(alt_sys_init.o)
 .data          0x07061aa0        0x0 ../../bsp/ucosii_net_rozipfs/\libucosii_bsp.a(altera_avalon_cfi_flash.o)
 .data          0x07061aa0        0x0 ../../bsp/ucosii_net_rozipfs/\libucosii_bsp.a(altera_avalon_cfi_flash_table.o)
 .data          0x07061aa0        0x0 ../../bsp/ucosii_net_rozipfs/\libucosii_bsp.a(altera_avalon_jtag_uart_fd.o)
 .data          0x07061aa0        0x0 ../../bsp/ucosii_net_rozipfs/\libucosii_bsp.a(altera_avalon_jtag_uart_init.o)
 .data          0x07061aa0        0x0 ../../bsp/ucosii_net_rozipfs/\libucosii_bsp.a(altera_avalon_jtag_uart_ioctl.o)
 .data          0x07061aa0        0x0 ../../bsp/ucosii_net_rozipfs/\libucosii_bsp.a(altera_avalon_jtag_uart_read.o)
 .data          0x07061aa0        0x0 ../../bsp/ucosii_net_rozipfs/\libucosii_bsp.a(altera_avalon_jtag_uart_write.o)
 .data          0x07061aa0        0x0 ../../bsp/ucosii_net_rozipfs/\libucosii_bsp.a(altera_avalon_lcd_16207.o)
 .data          0x07061aa0        0x0 ../../bsp/ucosii_net_rozipfs/\libucosii_bsp.a(altera_avalon_lcd_16207_fd.o)
 .data          0x07061aa0        0x0 ../../bsp/ucosii_net_rozipfs/\libucosii_bsp.a(altera_avalon_sgdma.o)
 .data          0x07061aa0        0x0 ../../bsp/ucosii_net_rozipfs/\libucosii_bsp.a(altera_avalon_timer_sc.o)
 .data          0x07061aa0        0x0 ../../bsp/ucosii_net_rozipfs/\libucosii_bsp.a(altera_avalon_tse.o)
 .data          0x07061aa0        0x0 ../../bsp/ucosii_net_rozipfs/\libucosii_bsp.a(altera_ro_zipfs.o)
 .data          0x07061aa0        0x0 ../../bsp/ucosii_net_rozipfs/\libucosii_bsp.a(ins_tse_mac.o)
 .data          0x07061aa0        0x0 ../../bsp/ucosii_net_rozipfs/\libucosii_bsp.a(alt_iniche_close.o)
 .data          0x07061aa0        0x0 ../../bsp/ucosii_net_rozipfs/\libucosii_bsp.a(alt_iniche_dev.o)
 .data          0x07061aa0        0x0 ../../bsp/ucosii_net_rozipfs/\libucosii_bsp.a(alt_iniche_read.o)
 .data          0x07061aa0        0x0 ../../bsp/ucosii_net_rozipfs/\libucosii_bsp.a(alt_iniche_write.o)
 .data          0x07061aa0        0x0 ../../bsp/ucosii_net_rozipfs/\libucosii_bsp.a(ipnet.o)
 .data          0x07061aa0        0x0 ../../bsp/ucosii_net_rozipfs/\libucosii_bsp.a(ipstart.o)
 .data          0x07061aa0        0x0 ../../bsp/ucosii_net_rozipfs/\libucosii_bsp.a(igmp_cmn.o)
 .data          0x07061aa0        0x0 ../../bsp/ucosii_net_rozipfs/\libucosii_bsp.a(bsdsock.o)
 .data          0x07061aa0        0x0 ../../bsp/ucosii_net_rozipfs/\libucosii_bsp.a(cksum.o)
 .data          0x07061aa0        0x0 ../../bsp/ucosii_net_rozipfs/\libucosii_bsp.a(in_utils.o)
 .data          0x07061aa0       0x30 ../../bsp/ucosii_net_rozipfs/\libucosii_bsp.a(netmain.o)
                0x07061aa0                nettasks
 .data          0x07061ad0        0x0 ../../bsp/ucosii_net_rozipfs/\libucosii_bsp.a(tk_crnos.o)
 .data          0x07061ad0       0x28 ../../bsp/ucosii_net_rozipfs/\libucosii_bsp.a(dhcpclnt.o)
 .data          0x07061af8        0x0 ../../bsp/ucosii_net_rozipfs/\libucosii_bsp.a(dhcputil.o)
 .data          0x07061af8        0x0 ../../bsp/ucosii_net_rozipfs/\libucosii_bsp.a(pktalloc.o)
 .data          0x07061af8        0x0 ../../bsp/ucosii_net_rozipfs/\libucosii_bsp.a(q.o)
 .data          0x07061af8        0x0 ../../bsp/ucosii_net_rozipfs/\libucosii_bsp.a(udp_open.o)
 .data          0x07061af8        0x0 ../../bsp/ucosii_net_rozipfs/\libucosii_bsp.a(asm_cksum.o)
 .data          0x07061af8        0x0 ../../bsp/ucosii_net_rozipfs/\libucosii_bsp.a(brdutils.o)
 .data          0x07061af8        0x0 ../../bsp/ucosii_net_rozipfs/\libucosii_bsp.a(osportco.o)
 .data          0x07061af8        0x0 ../../bsp/ucosii_net_rozipfs/\libucosii_bsp.a(targnios.o)
 .data          0x07061af8       0x74 ../../bsp/ucosii_net_rozipfs/\libucosii_bsp.a(nptcp.o)
                0x07061af8                tcp_protosw
                0x07061b10                udp_protosw
                0x07061b28                rawip_protosw
                0x07061b40                tcpstates
 .data          0x07061b6c        0x0 ../../bsp/ucosii_net_rozipfs/\libucosii_bsp.a(rawsock.o)
 .data          0x07061b6c        0x0 ../../bsp/ucosii_net_rozipfs/\libucosii_bsp.a(sockcall.o)
 .data          0x07061b6c        0x0 ../../bsp/ucosii_net_rozipfs/\libucosii_bsp.a(socket.o)
 .data          0x07061b6c        0x0 ../../bsp/ucosii_net_rozipfs/\libucosii_bsp.a(socket2.o)
 .data          0x07061b6c        0x0 ../../bsp/ucosii_net_rozipfs/\libucosii_bsp.a(soselect.o)
 .data          0x07061b6c        0x0 ../../bsp/ucosii_net_rozipfs/\libucosii_bsp.a(tcp_in.o)
 .data          0x07061b6c        0xb ../../bsp/ucosii_net_rozipfs/\libucosii_bsp.a(tcp_out.o)
                0x07061b6c                tcp_outflags
 .data          0x07061b77        0x0 ../../bsp/ucosii_net_rozipfs/\libucosii_bsp.a(tcp_subr.o)
 .data          0x07061b77        0xd ../../bsp/ucosii_net_rozipfs/\libucosii_bsp.a(tcp_timr.o)
                0x07061b77                tcp_backoff
 .data          0x07061b84        0x0 ../../bsp/ucosii_net_rozipfs/\libucosii_bsp.a(tcp_usr.o)
 .data          0x07061b84        0x0 ../../bsp/ucosii_net_rozipfs/\libucosii_bsp.a(tcpport.o)
 .data          0x07061b84        0x0 ../../bsp/ucosii_net_rozipfs/\libucosii_bsp.a(udpsock.o)
 .data          0x07061b84        0x0 ../../bsp/ucosii_net_rozipfs/\libucosii_bsp.a(alt_alarm_start.o)
 .data          0x07061b84        0x0 ../../bsp/ucosii_net_rozipfs/\libucosii_bsp.a(alt_busy_sleep.o)
 .data          0x07061b84        0x0 ../../bsp/ucosii_net_rozipfs/\libucosii_bsp.a(alt_close.o)
 .data          0x07061b84        0x0 ../../bsp/ucosii_net_rozipfs/\libucosii_bsp.a(alt_dcache_flush.o)
 .data          0x07061b84      0x1a8 ../../bsp/ucosii_net_rozipfs/\libucosii_bsp.a(alt_dev.o)
                0x07061b84                alt_dev_null
                0x07061bac                alt_fd_list
 .data          0x07061d2c        0x0 ../../bsp/ucosii_net_rozipfs/\libucosii_bsp.a(alt_dev_llist_insert.o)
 .data          0x07061d2c        0x0 ../../bsp/ucosii_net_rozipfs/\libucosii_bsp.a(alt_do_ctors.o)
 .data          0x07061d2c        0x0 ../../bsp/ucosii_net_rozipfs/\libucosii_bsp.a(alt_do_dtors.o)
 .data          0x07061d2c        0x0 ../../bsp/ucosii_net_rozipfs/\libucosii_bsp.a(alt_errno.o)
 .data          0x07061d2c        0x0 ../../bsp/ucosii_net_rozipfs/\libucosii_bsp.a(alt_find_dev.o)
 .data          0x07061d2c        0x0 ../../bsp/ucosii_net_rozipfs/\libucosii_bsp.a(alt_find_file.o)
 .data          0x07061d2c        0x0 ../../bsp/ucosii_net_rozipfs/\libucosii_bsp.a(alt_flash_dev.o)
 .data          0x07061d2c        0x0 ../../bsp/ucosii_net_rozipfs/\libucosii_bsp.a(alt_fs_reg.o)
 .data          0x07061d2c        0x0 ../../bsp/ucosii_net_rozipfs/\libucosii_bsp.a(alt_get_fd.o)
 .data          0x07061d2c        0x0 ../../bsp/ucosii_net_rozipfs/\libucosii_bsp.a(alt_iic.o)
 .data          0x07061d2c        0x0 ../../bsp/ucosii_net_rozipfs/\libucosii_bsp.a(alt_iic_isr_register.o)
 .data          0x07061d2c        0x0 ../../bsp/ucosii_net_rozipfs/\libucosii_bsp.a(alt_io_redirect.o)
 .data          0x07061d2c        0x0 ../../bsp/ucosii_net_rozipfs/\libucosii_bsp.a(alt_irq_entry.o)
 .data          0x07061d2c        0x0 ../../bsp/ucosii_net_rozipfs/\libucosii_bsp.a(alt_irq_handler.o)
 .data          0x07061d2c        0x0 ../../bsp/ucosii_net_rozipfs/\libucosii_bsp.a(alt_irq_vars.o)
 .data          0x07061d2c        0x0 ../../bsp/ucosii_net_rozipfs/\libucosii_bsp.a(alt_read.o)
 .data          0x07061d2c        0x0 ../../bsp/ucosii_net_rozipfs/\libucosii_bsp.a(alt_remap_cached.o)
 .data          0x07061d2c        0x0 ../../bsp/ucosii_net_rozipfs/\libucosii_bsp.a(alt_remap_uncached.o)
 .data          0x07061d2c        0x0 ../../bsp/ucosii_net_rozipfs/\libucosii_bsp.a(alt_uncached_malloc.o)
 .data          0x07061d2c        0x0 ../../bsp/ucosii_net_rozipfs/\libucosii_bsp.a(alt_write.o)
 .data          0x07061d2c        0x0 ../../bsp/ucosii_net_rozipfs/\libucosii_bsp.a(altera_nios2_qsys_irq.o)
 .data          0x07061d2c        0x0 ../../bsp/ucosii_net_rozipfs/\libucosii_bsp.a(os_cpu_a.o)
 .data          0x07061d2c        0x0 ../../bsp/ucosii_net_rozipfs/\libucosii_bsp.a(os_cpu_c.o)
 .data          0x07061d2c        0x0 ../../bsp/ucosii_net_rozipfs/\libucosii_bsp.a(altera_avalon_cfi_flash_amd.o)
 .data          0x07061d2c        0x0 ../../bsp/ucosii_net_rozipfs/\libucosii_bsp.a(altera_avalon_cfi_flash_intel.o)
 .data          0x07061d2c       0x18 ../../bsp/ucosii_net_rozipfs/\libucosii_bsp.a(allports.o)
                0x07061d2c                icmpdu_types
 .data          0x07061d44        0x0 ../../bsp/ucosii_net_rozipfs/\libucosii_bsp.a(timeouts.o)
 .data          0x07061d44        0x0 ../../bsp/ucosii_net_rozipfs/\libucosii_bsp.a(tk_misc.o)
 .data          0x07061d44        0x0 ../../bsp/ucosii_net_rozipfs/\libucosii_bsp.a(alt_iniche_fcntl.o)
 .data          0x07061d44        0x0 ../../bsp/ucosii_net_rozipfs/\libucosii_bsp.a(et_arp.o)
 .data          0x07061d44        0x0 ../../bsp/ucosii_net_rozipfs/\libucosii_bsp.a(iface.o)
 .data          0x07061d44        0x0 ../../bsp/ucosii_net_rozipfs/\libucosii_bsp.a(ip.o)
 .data          0x07061d44        0x0 ../../bsp/ucosii_net_rozipfs/\libucosii_bsp.a(ip_reasm.o)
 .data          0x07061d44        0x0 ../../bsp/ucosii_net_rozipfs/\libucosii_bsp.a(ipdemux.o)
 .data          0x07061d44        0x0 ../../bsp/ucosii_net_rozipfs/\libucosii_bsp.a(ipmc.o)
 .data          0x07061d44        0x0 ../../bsp/ucosii_net_rozipfs/\libucosii_bsp.a(ipport.o)
 .data          0x07061d44        0x0 ../../bsp/ucosii_net_rozipfs/\libucosii_bsp.a(ipraw.o)
 .data          0x07061d44        0x9 ../../bsp/ucosii_net_rozipfs/\libucosii_bsp.a(iproute.o)
                0x07061d44                rtp_priority
 .data          0x07061d4d        0x0 ../../bsp/ucosii_net_rozipfs/\libucosii_bsp.a(udp.o)
 .data          0x07061d4d        0x0 ../../bsp/ucosii_net_rozipfs/\libucosii_bsp.a(igmp.o)
 .data          0x07061d4d        0x0 ../../bsp/ucosii_net_rozipfs/\libucosii_bsp.a(igmp2.o)
 .data          0x07061d4d        0x0 ../../bsp/ucosii_net_rozipfs/\libucosii_bsp.a(ipopt.o)
 .data          0x07061d4d        0x0 ../../bsp/ucosii_net_rozipfs/\libucosii_bsp.a(u_mctest.o)
 .data          0x07061d4d        0x0 ../../bsp/ucosii_net_rozipfs/\libucosii_bsp.a(dhcsetup.o)
 *fill*         0x07061d4d        0x3 00
 .data          0x07061d50       0xd4 ../../bsp/ucosii_net_rozipfs/\libucosii_bsp.a(memdev.o)
                0x07061d50                mdio
                0x07061d74                mdlist
 .data          0x07061e24        0x0 ../../bsp/ucosii_net_rozipfs/\libucosii_bsp.a(parseip.o)
 .data          0x07061e24        0x0 ../../bsp/ucosii_net_rozipfs/\libucosii_bsp.a(tcpcksum.o)
 .data          0x07061e24        0x0 ../../bsp/ucosii_net_rozipfs/\libucosii_bsp.a(in_pcb.o)
 .data          0x07061e24       0x80 ../../bsp/ucosii_net_rozipfs/\libucosii_bsp.a(vfsfiles.o)
                0x07061e24                vfs_root_path
 .data          0x07061ea4        0x0 ../../bsp/ucosii_net_rozipfs/\libucosii_bsp.a(vfsport.o)
 .data          0x07061ea4        0x0 ../../bsp/ucosii_net_rozipfs/\libucosii_bsp.a(alt_exception_entry.o)
 .data          0x07061ea4        0x0 ../../bsp/ucosii_net_rozipfs/\libucosii_bsp.a(alt_fcntl.o)
 .data          0x07061ea4       0x18 ../../bsp/ucosii_net_rozipfs/\libucosii_bsp.a(icmp.o)
 .data          0x07061ebc        0x0 d:/altera/12.1sp1b243/nios2eds/bin/gnu/h-i686-mingw32/bin/../lib/gcc/nios2-elf/4.1.2/../../../../nios2-elf/lib\libc.a(lib_a-atexit.o)
 .data          0x07061ebc        0x0 d:/altera/12.1sp1b243/nios2eds/bin/gnu/h-i686-mingw32/bin/../lib/gcc/nios2-elf/4.1.2/../../../../nios2-elf/lib\libc.a(lib_a-exit.o)
 .data          0x07061ebc        0x0 d:/altera/12.1sp1b243/nios2eds/bin/gnu/h-i686-mingw32/bin/../lib/gcc/nios2-elf/4.1.2/../../../../nios2-elf/lib\libc.a(lib_a-vprintf.o)
 .data          0x07061ebc        0x0 d:/altera/12.1sp1b243/nios2eds/bin/gnu/h-i686-mingw32/bin/../lib/gcc/nios2-elf/4.1.2/../../../../nios2-elf/lib\libc.a(lib_a-__atexit.o)
 .data          0x07061ebc        0x0 d:/altera/12.1sp1b243/nios2eds/bin/gnu/h-i686-mingw32/bin/../lib/gcc/nios2-elf/4.1.2/../../../../nios2-elf/lib\libc.a(lib_a-__call_atexit.o)
 .data          0x07061ebc        0x0 ../../bsp/ucosii_net_rozipfs/\libucosii_bsp.a(alt_exit.o)
                0x07069ebc                _gp = ABSOLUTE ((. + 0x8000))
                0x07069ebc                PROVIDE (gp, _gp)
 *(.rwdata .rwdata.*)
 *(.sdata .sdata.* .gnu.linkonce.s.*)
 .sdata         0x07061ebc       0x28 obj/default/src/webserver.o
                0x07061ec4                mapping
                0x07061ecc                stats_field
                0x07061ed4                upload_field
                0x07061edc                progress_field
 .sdata         0x07061ee4        0x4 d:/altera/12.1sp1b243/nios2eds/bin/gnu/h-i686-mingw32/bin/../lib/gcc/nios2-elf/4.1.2/../../../../nios2-elf/lib\libc.a(lib_a-ctype_.o)
                0x07061ee4                __ctype_ptr
 .sdata         0x07061ee8        0x8 d:/altera/12.1sp1b243/nios2eds/bin/gnu/h-i686-mingw32/bin/../lib/gcc/nios2-elf/4.1.2/../../../../nios2-elf/lib\libc.a(lib_a-impure.o)
                0x07061ee8                _impure_ptr
                0x07061eec                _global_impure_ptr
 .sdata         0x07061ef0        0x8 d:/altera/12.1sp1b243/nios2eds/bin/gnu/h-i686-mingw32/bin/../lib/gcc/nios2-elf/4.1.2/../../../../nios2-elf/lib\libc.a(lib_a-mallocr.o)
                0x07061ef0                __malloc_trim_threshold
                0x07061ef4                __malloc_sbrk_base
 .sdata         0x07061ef8        0x8 d:/altera/12.1sp1b243/nios2eds/bin/gnu/h-i686-mingw32/bin/../lib/gcc/nios2-elf/4.1.2/../../../../nios2-elf/lib\libc.a(lib_a-locale.o)
                0x07061ef8                __mb_cur_max
 .sdata         0x07061f00        0x4 ../../bsp/ucosii_net_rozipfs/\libucosii_bsp.a(alt_sbrk.o)
 .sdata         0x07061f04        0x8 ../../bsp/ucosii_net_rozipfs/\libucosii_bsp.a(alt_tick.o)
                0x07061f04                alt_alarm_list
 .sdata         0x07061f0c        0x4 ../../bsp/ucosii_net_rozipfs/\libucosii_bsp.a(alt_env_lock.o)
 .sdata         0x07061f10        0x4 ../../bsp/ucosii_net_rozipfs/\libucosii_bsp.a(alt_malloc_lock.o)
 .sdata         0x07061f14       0x74 ../../bsp/ucosii_net_rozipfs/\libucosii_bsp.a(os_dbg.o)
                0x07061f14                OSDebugEn
                0x07061f18                OSEndiannessTest
                0x07061f1c                OSEventEn
                0x07061f1e                OSEventMax
                0x07061f20                OSEventNameSize
                0x07061f22                OSEventSize
                0x07061f24                OSEventTblSize
                0x07061f26                OSEventMultiEn
                0x07061f28                OSFlagEn
                0x07061f2a                OSFlagGrpSize
                0x07061f2c                OSFlagNodeSize
                0x07061f2e                OSFlagWidth
                0x07061f30                OSFlagMax
                0x07061f32                OSFlagNameSize
                0x07061f34                OSLowestPrio
                0x07061f36                OSMboxEn
                0x07061f38                OSMemEn
                0x07061f3a                OSMemMax
                0x07061f3c                OSMemNameSize
                0x07061f3e                OSMemSize
                0x07061f40                OSMemTblSize
                0x07061f42                OSMutexEn
                0x07061f44                OSPtrSize
                0x07061f46                OSQEn
                0x07061f48                OSQMax
                0x07061f4a                OSQSize
                0x07061f4c                OSRdyTblSize
                0x07061f4e                OSSemEn
                0x07061f50                OSStkWidth
                0x07061f52                OSTaskCreateEn
                0x07061f54                OSTaskCreateExtEn
                0x07061f56                OSTaskDelEn
                0x07061f58                OSTaskIdleStkSize
                0x07061f5a                OSTaskProfileEn
                0x07061f5c                OSTaskMax
                0x07061f5e                OSTaskNameSize
                0x07061f60                OSTaskStatEn
                0x07061f62                OSTaskStatStkSize
                0x07061f64                OSTaskStatStkChkEn
                0x07061f66                OSTaskSwHookEn
                0x07061f68                OSTCBPrioTblMax
                0x07061f6a                OSTCBSize
                0x07061f6c                OSTicksPerSec
                0x07061f6e                OSTimeTickHookEn
                0x07061f70                OSVersionNbr
                0x07061f72                OSTmrEn
                0x07061f74                OSTmrCfgMax
                0x07061f76                OSTmrCfgNameSize
                0x07061f78                OSTmrCfgWheelSize
                0x07061f7a                OSTmrCfgTicksPerSec
                0x07061f7c                OSTmrSize
                0x07061f7e                OSTmrTblSize
                0x07061f80                OSTmrWheelSize
                0x07061f82                OSTmrWheelTblSize
                0x07061f84                OSDataSize
 .sdata         0x07061f88        0x4 ../../bsp/ucosii_net_rozipfs/\libucosii_bsp.a(alt_sys_init.o)
                0x07061f88                tse_mac_name
 .sdata         0x07061f8c        0x4 ../../bsp/ucosii_net_rozipfs/\libucosii_bsp.a(altera_avalon_lcd_16207.o)
 .sdata         0x07061f90        0x8 ../../bsp/ucosii_net_rozipfs/\libucosii_bsp.a(altera_avalon_sgdma.o)
                0x07061f90                alt_sgdma_list
 .sdata         0x07061f98        0x1 ../../bsp/ucosii_net_rozipfs/\libucosii_bsp.a(altera_avalon_tse.o)
                0x07061f98                max_mac_system
 *fill*         0x07061f99        0x3 00
 .sdata         0x07061f9c        0x8 ../../bsp/ucosii_net_rozipfs/\libucosii_bsp.a(alt_iniche_dev.o)
                0x07061f9c                alt_iniche_dev_list
 .sdata         0x07061fa4        0x4 ../../bsp/ucosii_net_rozipfs/\libucosii_bsp.a(ipstart.o)
                0x07061fa4                ipmcfail_str
 .sdata         0x07061fa8        0x4 ../../bsp/ucosii_net_rozipfs/\libucosii_bsp.a(cksum.o)
 .sdata         0x07061fac        0x4 ../../bsp/ucosii_net_rozipfs/\libucosii_bsp.a(netmain.o)
                0x07061fac                num_net_tasks
 .sdata         0x07061fb0        0xc ../../bsp/ucosii_net_rozipfs/\libucosii_bsp.a(dhcpclnt.o)
                0x07061fb0                xids
                0x07061fb4                reqlist
                0x07061fb8                reqlist_len
 .sdata         0x07061fbc       0x10 ../../bsp/ucosii_net_rozipfs/\libucosii_bsp.a(pktalloc.o)
                0x07061fbc                lilbufs
                0x07061fc0                lilbufsiz
                0x07061fc4                bigbufs
                0x07061fc8                bigbufsiz
 .sdata         0x07061fcc        0x4 ../../bsp/ucosii_net_rozipfs/\libucosii_bsp.a(brdutils.o)
                0x07061fcc                kb_last
 .sdata         0x07061fd0        0x4 ../../bsp/ucosii_net_rozipfs/\libucosii_bsp.a(nptcp.o)
                0x07061fd0                TCPTV_MSL
 .sdata         0x07061fd4        0x2 ../../bsp/ucosii_net_rozipfs/\libucosii_bsp.a(socket.o)
                0x07061fd4                socket_defaults
 .sdata         0x07061fd6        0x1 ../../bsp/ucosii_net_rozipfs/\libucosii_bsp.a(tcp_in.o)
                0x07061fd6                tcprexmtthresh
 *fill*         0x07061fd7        0x1 00
 .sdata         0x07061fd8        0x4 ../../bsp/ucosii_net_rozipfs/\libucosii_bsp.a(tcp_subr.o)
                0x07061fd8                tcp_ttl
 .sdata         0x07061fdc        0x8 ../../bsp/ucosii_net_rozipfs/\libucosii_bsp.a(tcp_timr.o)
                0x07061fdc                tcp_keepidle
                0x07061fe0                tcp_keepintvl
 .sdata         0x07061fe4        0x8 ../../bsp/ucosii_net_rozipfs/\libucosii_bsp.a(tcp_usr.o)
                0x07061fe4                tcp_sendspace
                0x07061fe8                tcp_recvspace
 .sdata         0x07061fec       0x14 ../../bsp/ucosii_net_rozipfs/\libucosii_bsp.a(alt_dev.o)
                0x07061fec                alt_fs_list
                0x07061ff4                alt_dev_list
                0x07061ffc                alt_max_fd
 .sdata         0x07062000        0x4 ../../bsp/ucosii_net_rozipfs/\libucosii_bsp.a(alt_errno.o)
                0x07062000                alt_errno
 .sdata         0x07062004        0x8 ../../bsp/ucosii_net_rozipfs/\libucosii_bsp.a(alt_flash_dev.o)
                0x07062004                alt_flash_dev_list
 .sdata         0x0706200c        0x4 ../../bsp/ucosii_net_rozipfs/\libucosii_bsp.a(alt_irq_vars.o)
                0x0706200c                alt_priority_mask
 .sdata         0x07062010       0x10 ../../bsp/ucosii_net_rozipfs/\libucosii_bsp.a(allports.o)
                0x07062010                name
                0x07062014                prompt
                0x07062018                pingdelay
                0x0706201c                deflength
 .sdata         0x07062020        0x4 ../../bsp/ucosii_net_rozipfs/\libucosii_bsp.a(et_arp.o)
                0x07062020                arp_ageout
 .sdata         0x07062024        0x8 ../../bsp/ucosii_net_rozipfs/\libucosii_bsp.a(ip.o)
                0x07062028                ipRoutes
 .sdata         0x0706202c        0x4 ../../bsp/ucosii_net_rozipfs/\libucosii_bsp.a(u_mctest.o)
 .sdata         0x07062030        0x4 ../../bsp/ucosii_net_rozipfs/\libucosii_bsp.a(memdev.o)
                0x07062030                mdlist_size
 .sdata         0x07062034        0x4 ../../bsp/ucosii_net_rozipfs/\libucosii_bsp.a(parseip.o)
                0x07062034                pton_error
 .sdata         0x07062038        0x4 ../../bsp/ucosii_net_rozipfs/\libucosii_bsp.a(vfsfiles.o)
                0x07062038                http_root_path
 *(.sdata2 .sdata2.* .gnu.linkonce.s2.*)
                0x0706203c                . = ALIGN (0x4)
                0x0706203c                _edata = ABSOLUTE (.)
                0x0706203c                PROVIDE (edata, ABSOLUTE (.))
                0x0706203c                PROVIDE (__ram_rwdata_end, ABSOLUTE (.))
                0x0705fd0c                PROVIDE (__flash_rwdata_start, LOADADDR (.rwdata))

.bss            0x0706203c    0x2e0d8
                0x0706203c                __bss_start = ABSOLUTE (.)
                0x0706203c                PROVIDE (__sbss_start, ABSOLUTE (.))
                0x0706203c                PROVIDE (___sbss_start, ABSOLUTE (.))
 *(.dynsbss)
 *(.sbss .sbss.* .gnu.linkonce.sb.*)
 .sbss          0x0706203c        0x4 obj/default/src/main.o
                0x0706203c                WebserverStatusMbox
 .sbss          0x07062040        0x8 obj/default/src/os_utils.o
                0x07062040                global_show_stack_usage
                0x07062044                OSPrintfSem
 .sbss          0x07062048       0x11 obj/default/src/webserver.o
                0x07062048                time_to_reconfig
                0x07062054                line_count
                0x07062058                to_wstask
 *fill*         0x07062059        0x3 00
 .sbss          0x0706205c        0x4 d:/altera/12.1sp1b243/nios2eds/bin/gnu/h-i686-mingw32/bin/../lib/gcc/nios2-elf/4.1.2/../../../../nios2-elf/lib\libc.a(lib_a-int_errno.o)
                0x0706205c                errno
 .sbss          0x07062060        0xc d:/altera/12.1sp1b243/nios2eds/bin/gnu/h-i686-mingw32/bin/../lib/gcc/nios2-elf/4.1.2/../../../../nios2-elf/lib\libc.a(lib_a-mallocr.o)
                0x07062060                __malloc_top_pad
                0x07062064                __malloc_max_sbrked_mem
                0x07062068                __malloc_max_total_mem
 .sbss          0x0706206c        0xc d:/altera/12.1sp1b243/nios2eds/bin/gnu/h-i686-mingw32/bin/../lib/gcc/nios2-elf/4.1.2/../../../../nios2-elf/lib\libc.a(lib_a-locale.o)
                0x0706206c                __nlocale_changed
                0x07062070                __mlocale_changed
                0x07062074                _PathLocale
 .sbss          0x07062078        0xc ../../bsp/ucosii_net_rozipfs/\libucosii_bsp.a(alt_main.o)
                0x07062078                alt_argc
                0x0706207c                alt_argv
                0x07062080                alt_envp
 .sbss          0x07062084        0x8 ../../bsp/ucosii_net_rozipfs/\libucosii_bsp.a(alt_tick.o)
                0x07062084                _alt_tick_rate
                0x07062088                _alt_nticks
 .sbss          0x0706208c        0x8 ../../bsp/ucosii_net_rozipfs/\libucosii_bsp.a(alt_env_lock.o)
                0x07062090                alt_envsem
 .sbss          0x07062094        0x8 ../../bsp/ucosii_net_rozipfs/\libucosii_bsp.a(alt_malloc_lock.o)
                0x07062098                alt_heapsem
 .sbss          0x0706209c       0x50 ../../bsp/ucosii_net_rozipfs/\libucosii_bsp.a(os_core.o)
                0x0706209c                OSLockNesting
                0x0706209d                OSRunning
                0x070620a0                OSIdleCtr
                0x070620a4                OSPrioHighRdy
                0x070620a5                OSPrioCur
                0x070620a8                OSTCBList
                0x070620ac                OSTickStepState
                0x070620b0                OSCtxSwCtr
                0x070620b4                OSIdleCtrMax
                0x070620b8                OSTCBFreeList
                0x070620bc                OSCPUUsage
                0x070620bd                OSTaskCtr
                0x070620c0                OSMemFreeList
                0x070620c4                OSTCBHighRdy
                0x070620c8                OSQFreeList
                0x070620cc                OSRdyGrp
                0x070620cd                OSRdyTbl
                0x070620d0                OSEventFreeList
                0x070620d4                OSIntNesting
                0x070620d8                OSTCBCur
                0x070620dc                OSTime
                0x070620e0                OSFlagFreeList
                0x070620e4                OSStatRdy
                0x070620e8                OSIdleCtrRun
 .sbss          0x070620ec        0x4 ../../bsp/ucosii_net_rozipfs/\libucosii_bsp.a(altera_avalon_tse.o)
                0x070620ec                phy_profile_count
                0x070620ed                mac_group_count
 .sbss          0x070620f0        0x1 ../../bsp/ucosii_net_rozipfs/\libucosii_bsp.a(ins_tse_mac.o)
                0x070620f0                number_of_tse_mac
 *fill*         0x070620f1        0x3 00
 .sbss          0x070620f4        0xc ../../bsp/ucosii_net_rozipfs/\libucosii_bsp.a(ipnet.o)
                0x070620f4                MaxLnh
                0x070620f8                MaxMtu
                0x070620fc                NDEBUG
 .sbss          0x07062100        0x8 ../../bsp/ucosii_net_rozipfs/\libucosii_bsp.a(ipstart.o)
                0x07062100                ifNumber
 .sbss          0x07062108       0x10 ../../bsp/ucosii_net_rozipfs/\libucosii_bsp.a(igmp_cmn.o)
                0x07062108                igmp_timers_are_running
                0x0706210c                igmp_cticks
                0x07062110                igmp_all_hosts_group
                0x07062114                igmp_all_rtrs_group
 .sbss          0x07062118        0xe ../../bsp/ucosii_net_rozipfs/\libucosii_bsp.a(netmain.o)
                0x07062118                netmain_wakes
                0x0706211c                nettick_wakes
                0x07062120                iniche_net_ready
                0x07062124                to_netmain
                0x07062125                to_nettick
 *fill*         0x07062126        0x2 00
 .sbss          0x07062128        0x4 ../../bsp/ucosii_net_rozipfs/\libucosii_bsp.a(tk_crnos.o)
                0x07062128                tcp_sleep_timeout
 .sbss          0x0706212c       0x34 ../../bsp/ucosii_net_rozipfs/\libucosii_bsp.a(dhcpclnt.o)
                0x0706212c                dhc_conn
                0x07062130                dsc_errors
                0x07062134                dsc_discovers
                0x07062138                dsc_offers
                0x0706213c                dsc_requests
                0x07062140                dsc_acks
                0x07062144                dsc_bpreplys
                0x07062148                dsc_declines
                0x0706214c                dsc_releases
                0x07062150                dsc_naks
                0x07062154                dsc_renew
                0x07062158                dsc_rebind
                0x0706215c                dsc_rlyerrs
 .sbss          0x07062160        0x4 ../../bsp/ucosii_net_rozipfs/\libucosii_bsp.a(udp_open.o)
                0x07062160                firstudp
 .sbss          0x07062164       0x18 ../../bsp/ucosii_net_rozipfs/\libucosii_bsp.a(brdutils.o)
                0x07062168                cticks_initialized
                0x0706216c                irq_level
                0x07062174                cticks_factor
                0x07062178                OS_TPS
 .sbss          0x0706217c       0x18 ../../bsp/ucosii_net_rozipfs/\libucosii_bsp.a(osportco.o)
                0x0706217c                tcp_sleep_count
                0x07062180                tcp_wakeup_count
                0x07062184                netq_intmask
                0x07062188                old_mode
                0x0706218c                global_TCPwakeup_setIndx
                0x07062190                cticks
 .sbss          0x07062194        0xc ../../bsp/ucosii_net_rozipfs/\libucosii_bsp.a(targnios.o)
                0x07062194                memtrapsize
                0x07062198                mheap_sem_ptr
                0x0706219c                rcvdq_sem_ptr
 .sbss          0x070621a0       0x12 ../../bsp/ucosii_net_rozipfs/\libucosii_bsp.a(nptcp.o)
                0x070621a0                nextslow
                0x070621a8                mbstat
                0x070621b0                select_wait
 *fill*         0x070621b2        0x2 00
 .sbss          0x070621b4        0x8 ../../bsp/ucosii_net_rozipfs/\libucosii_bsp.a(tcp_in.o)
                0x070621b4                tcpprintfs
                0x070621b8                dropline
 .sbss          0x070621bc        0x4 ../../bsp/ucosii_net_rozipfs/\libucosii_bsp.a(tcp_out.o)
                0x070621bc                tcp_optionbuf
 .sbss          0x070621c0        0x8 ../../bsp/ucosii_net_rozipfs/\libucosii_bsp.a(tcp_timr.o)
                0x070621c0                tcp_maxidle
                0x070621c4                tcp_iss
 .sbss          0x070621c8        0x4 ../../bsp/ucosii_net_rozipfs/\libucosii_bsp.a(alt_dev.o)
                0x070621c8                alt_fd_list_lock
 .sbss          0x070621cc        0x4 ../../bsp/ucosii_net_rozipfs/\libucosii_bsp.a(alt_irq_vars.o)
                0x070621cc                alt_irq_active
 .sbss          0x070621d0        0x8 ../../bsp/ucosii_net_rozipfs/\libucosii_bsp.a(allports.o)
                0x070621d0                activehost
 .sbss          0x070621d8        0xc ../../bsp/ucosii_net_rozipfs/\libucosii_bsp.a(timeouts.o)
                0x070621d8                nextppp
                0x070621dc                port_1s_callout
 .sbss          0x070621e4       0x1c ../../bsp/ucosii_net_rozipfs/\libucosii_bsp.a(et_arp.o)
                0x070621e8                arpcache
                0x070621ec                arpReqsIn
                0x070621f0                arpReqsOut
                0x070621f4                arpRepsIn
                0x070621f8                arpRepsOut
 .sbss          0x07062200        0x4 ../../bsp/ucosii_net_rozipfs/\libucosii_bsp.a(ip.o)
                0x07062200                rt_mib
 .sbss          0x07062204        0xc ../../bsp/ucosii_net_rozipfs/\libucosii_bsp.a(ip_reasm.o)
                0x07062204                ipr_curr_mem
                0x07062208                h_ireq
                0x0706220c                ire_cticks
 .sbss          0x07062210       0x11 ../../bsp/ucosii_net_rozipfs/\libucosii_bsp.a(ipport.o)
                0x07062210                port_prep
                0x07062214                net_system_exit
                0x07062218                so_evtmap_create
                0x0706221c                so_evtmap_delete
                0x07062220                so_evtmap
 *fill*         0x07062221        0x3 00
 .sbss          0x07062224        0x4 ../../bsp/ucosii_net_rozipfs/\libucosii_bsp.a(ipraw.o)
                0x07062224                ipraw_eps
 .sbss          0x07062228        0x4 ../../bsp/ucosii_net_rozipfs/\libucosii_bsp.a(iproute.o)
                0x07062228                cachedRoute
 .sbss          0x0706222c        0x4 ../../bsp/ucosii_net_rozipfs/\libucosii_bsp.a(udp.o)
 .sbss          0x07062230        0x8 ../../bsp/ucosii_net_rozipfs/\libucosii_bsp.a(in_pcb.o)
                0x07062230                inpcb_cachehits
                0x07062234                inpcb_cachemiss
 .sbss          0x07062238       0x20 ../../bsp/ucosii_net_rozipfs/\libucosii_bsp.a(vfsfiles.o)
                0x07062238                vfsystems
                0x0706223c                vfiles
                0x07062240                vfsfiles
                0x07062244                vfopen_error
                0x07062248                vfs_dir_stale
                0x0706224c                vfs_open_files
                0x07062250                vfs_total_rw_space
                0x07062254                vfs_total_dyna_files
 .sbss          0x07062258        0x4 ../../bsp/ucosii_net_rozipfs/\libucosii_bsp.a(icmp.o)
                0x07062258                icmpdu_hook
 *(.sbss2 .sbss2.* .gnu.linkonce.sb2.*)
 *(.scommon)
                0x0706225c                PROVIDE (__sbss_end, ABSOLUTE (.))
                0x0706225c                PROVIDE (___sbss_end, ABSOLUTE (.))
 *(.dynbss)
 *(.bss .bss.* .gnu.linkonce.b.*)
 .bss           0x0706225c        0x0 ../../bsp/ucosii_net_rozipfs//obj/HAL/src/crt0.o
 .bss           0x0706225c        0x0 obj/default/src/flash_intel_p30/flash_intel_p30.o
 .bss           0x0706225c        0x0 obj/default/src/main.o
 .bss           0x0706225c        0x0 obj/default/src/os_utils.o
 .bss           0x0706225c        0x0 obj/default/src/reconfig_utils.o
 .bss           0x0706225c        0x0 obj/default/src/srec/srec.o
 .bss           0x0706225c        0x0 obj/default/src/tse_my_system.o
 .bss           0x0706225c     0xd7b8 obj/default/src/webserver.o
 .bss           0x0706fa14        0x0 d:/altera/12.1sp1b243/nios2eds/bin/gnu/h-i686-mingw32/bin/../lib/gcc/nios2-elf/4.1.2\libgcc.a(lib2-divmod.o)
 .bss           0x0706fa14        0x0 d:/altera/12.1sp1b243/nios2eds/bin/gnu/h-i686-mingw32/bin/../lib/gcc/nios2-elf/4.1.2/../../../../nios2-elf/lib\libc.a(lib_a-atoi.o)
 .bss           0x0706fa14        0x0 d:/altera/12.1sp1b243/nios2eds/bin/gnu/h-i686-mingw32/bin/../lib/gcc/nios2-elf/4.1.2/../../../../nios2-elf/lib\libc.a(lib_a-calloc.o)
 .bss           0x0706fa14        0x0 d:/altera/12.1sp1b243/nios2eds/bin/gnu/h-i686-mingw32/bin/../lib/gcc/nios2-elf/4.1.2/../../../../nios2-elf/lib\libc.a(lib_a-callocr.o)
 .bss           0x0706fa14        0x0 d:/altera/12.1sp1b243/nios2eds/bin/gnu/h-i686-mingw32/bin/../lib/gcc/nios2-elf/4.1.2/../../../../nios2-elf/lib\libc.a(lib_a-ctype_.o)
 .bss           0x0706fa14        0x0 d:/altera/12.1sp1b243/nios2eds/bin/gnu/h-i686-mingw32/bin/../lib/gcc/nios2-elf/4.1.2/../../../../nios2-elf/lib\libc.a(lib_a-fclose.o)
 .bss           0x0706fa14        0x0 d:/altera/12.1sp1b243/nios2eds/bin/gnu/h-i686-mingw32/bin/../lib/gcc/nios2-elf/4.1.2/../../../../nios2-elf/lib\libc.a(lib_a-fflush.o)
 .bss           0x0706fa14        0x0 d:/altera/12.1sp1b243/nios2eds/bin/gnu/h-i686-mingw32/bin/../lib/gcc/nios2-elf/4.1.2/../../../../nios2-elf/lib\libc.a(lib_a-fgetpos.o)
 .bss           0x0706fa14        0x0 d:/altera/12.1sp1b243/nios2eds/bin/gnu/h-i686-mingw32/bin/../lib/gcc/nios2-elf/4.1.2/../../../../nios2-elf/lib\libc.a(lib_a-findfp.o)
 .bss           0x0706fa14        0x0 d:/altera/12.1sp1b243/nios2eds/bin/gnu/h-i686-mingw32/bin/../lib/gcc/nios2-elf/4.1.2/../../../../nios2-elf/lib\libc.a(lib_a-fopen.o)
 .bss           0x0706fa14        0x0 d:/altera/12.1sp1b243/nios2eds/bin/gnu/h-i686-mingw32/bin/../lib/gcc/nios2-elf/4.1.2/../../../../nios2-elf/lib\libc.a(lib_a-fread.o)
 .bss           0x0706fa14        0x0 d:/altera/12.1sp1b243/nios2eds/bin/gnu/h-i686-mingw32/bin/../lib/gcc/nios2-elf/4.1.2/../../../../nios2-elf/lib\libc.a(lib_a-freer.o)
 .bss           0x0706fa14        0x0 d:/altera/12.1sp1b243/nios2eds/bin/gnu/h-i686-mingw32/bin/../lib/gcc/nios2-elf/4.1.2/../../../../nios2-elf/lib\libc.a(lib_a-fseek.o)
 .bss           0x0706fa14        0x0 d:/altera/12.1sp1b243/nios2eds/bin/gnu/h-i686-mingw32/bin/../lib/gcc/nios2-elf/4.1.2/../../../../nios2-elf/lib\libc.a(lib_a-fstatr.o)
 .bss           0x0706fa14        0x0 d:/altera/12.1sp1b243/nios2eds/bin/gnu/h-i686-mingw32/bin/../lib/gcc/nios2-elf/4.1.2/../../../../nios2-elf/lib\libc.a(lib_a-ftell.o)
 .bss           0x0706fa14        0x0 d:/altera/12.1sp1b243/nios2eds/bin/gnu/h-i686-mingw32/bin/../lib/gcc/nios2-elf/4.1.2/../../../../nios2-elf/lib\libc.a(lib_a-fwalk.o)
 .bss           0x0706fa14        0x0 d:/altera/12.1sp1b243/nios2eds/bin/gnu/h-i686-mingw32/bin/../lib/gcc/nios2-elf/4.1.2/../../../../nios2-elf/lib\libc.a(lib_a-fwrite.o)
 .bss           0x0706fa14        0x0 d:/altera/12.1sp1b243/nios2eds/bin/gnu/h-i686-mingw32/bin/../lib/gcc/nios2-elf/4.1.2/../../../../nios2-elf/lib\libc.a(lib_a-getc.o)
 .bss           0x0706fa14        0x0 d:/altera/12.1sp1b243/nios2eds/bin/gnu/h-i686-mingw32/bin/../lib/gcc/nios2-elf/4.1.2/../../../../nios2-elf/lib\libc.a(lib_a-impure.o)
 .bss           0x0706fa14        0x0 d:/altera/12.1sp1b243/nios2eds/bin/gnu/h-i686-mingw32/bin/../lib/gcc/nios2-elf/4.1.2/../../../../nios2-elf/lib\libc.a(lib_a-int_errno.o)
 .bss           0x0706fa14        0x0 d:/altera/12.1sp1b243/nios2eds/bin/gnu/h-i686-mingw32/bin/../lib/gcc/nios2-elf/4.1.2/../../../../nios2-elf/lib\libc.a(lib_a-makebuf.o)
 .bss           0x0706fa14        0x0 d:/altera/12.1sp1b243/nios2eds/bin/gnu/h-i686-mingw32/bin/../lib/gcc/nios2-elf/4.1.2/../../../../nios2-elf/lib\libc.a(lib_a-malloc.o)
 .bss           0x0706fa14       0x28 d:/altera/12.1sp1b243/nios2eds/bin/gnu/h-i686-mingw32/bin/../lib/gcc/nios2-elf/4.1.2/../../../../nios2-elf/lib\libc.a(lib_a-mallocr.o)
                0x0706fa14                __malloc_current_mallinfo
 .bss           0x0706fa3c        0x0 d:/altera/12.1sp1b243/nios2eds/bin/gnu/h-i686-mingw32/bin/../lib/gcc/nios2-elf/4.1.2/../../../../nios2-elf/lib\libc.a(lib_a-memchr.o)
 .bss           0x0706fa3c        0x0 d:/altera/12.1sp1b243/nios2eds/bin/gnu/h-i686-mingw32/bin/../lib/gcc/nios2-elf/4.1.2/../../../../nios2-elf/lib\libc.a(lib_a-memcmp.o)
 .bss           0x0706fa3c        0x0 d:/altera/12.1sp1b243/nios2eds/bin/gnu/h-i686-mingw32/bin/../lib/gcc/nios2-elf/4.1.2/../../../../nios2-elf/lib\libc.a(lib_a-memcpy.o)
 .bss           0x0706fa3c        0x0 d:/altera/12.1sp1b243/nios2eds/bin/gnu/h-i686-mingw32/bin/../lib/gcc/nios2-elf/4.1.2/../../../../nios2-elf/lib\libc.a(lib_a-memmove.o)
 .bss           0x0706fa3c        0x0 d:/altera/12.1sp1b243/nios2eds/bin/gnu/h-i686-mingw32/bin/../lib/gcc/nios2-elf/4.1.2/../../../../nios2-elf/lib\libc.a(lib_a-memset.o)
 .bss           0x0706fa3c        0x0 d:/altera/12.1sp1b243/nios2eds/bin/gnu/h-i686-mingw32/bin/../lib/gcc/nios2-elf/4.1.2/../../../../nios2-elf/lib\libc.a(lib_a-openr.o)
 .bss           0x0706fa3c        0x0 d:/altera/12.1sp1b243/nios2eds/bin/gnu/h-i686-mingw32/bin/../lib/gcc/nios2-elf/4.1.2/../../../../nios2-elf/lib\libc.a(lib_a-perror.o)
 .bss           0x0706fa3c        0x0 d:/altera/12.1sp1b243/nios2eds/bin/gnu/h-i686-mingw32/bin/../lib/gcc/nios2-elf/4.1.2/../../../../nios2-elf/lib\libc.a(lib_a-putc.o)
 .bss           0x0706fa3c        0x0 d:/altera/12.1sp1b243/nios2eds/bin/gnu/h-i686-mingw32/bin/../lib/gcc/nios2-elf/4.1.2/../../../../nios2-elf/lib\libc.a(lib_a-puts.o)
 .bss           0x0706fa3c        0x0 d:/altera/12.1sp1b243/nios2eds/bin/gnu/h-i686-mingw32/bin/../lib/gcc/nios2-elf/4.1.2/../../../../nios2-elf/lib\libc.a(lib_a-refill.o)
 .bss           0x0706fa3c        0x0 d:/altera/12.1sp1b243/nios2eds/bin/gnu/h-i686-mingw32/bin/../lib/gcc/nios2-elf/4.1.2/../../../../nios2-elf/lib\libc.a(lib_a-rget.o)
 .bss           0x0706fa3c        0x0 d:/altera/12.1sp1b243/nios2eds/bin/gnu/h-i686-mingw32/bin/../lib/gcc/nios2-elf/4.1.2/../../../../nios2-elf/lib\libc.a(lib_a-sbrkr.o)
 .bss           0x0706fa3c        0x0 d:/altera/12.1sp1b243/nios2eds/bin/gnu/h-i686-mingw32/bin/../lib/gcc/nios2-elf/4.1.2/../../../../nios2-elf/lib\libc.a(lib_a-sprintf.o)
 .bss           0x0706fa3c        0x0 d:/altera/12.1sp1b243/nios2eds/bin/gnu/h-i686-mingw32/bin/../lib/gcc/nios2-elf/4.1.2/../../../../nios2-elf/lib\libc.a(lib_a-sscanf.o)
 .bss           0x0706fa3c        0x0 d:/altera/12.1sp1b243/nios2eds/bin/gnu/h-i686-mingw32/bin/../lib/gcc/nios2-elf/4.1.2/../../../../nios2-elf/lib\libc.a(lib_a-stdio.o)
 .bss           0x0706fa3c        0x0 d:/altera/12.1sp1b243/nios2eds/bin/gnu/h-i686-mingw32/bin/../lib/gcc/nios2-elf/4.1.2/../../../../nios2-elf/lib\libc.a(lib_a-strcasecmp.o)
 .bss           0x0706fa3c        0x0 d:/altera/12.1sp1b243/nios2eds/bin/gnu/h-i686-mingw32/bin/../lib/gcc/nios2-elf/4.1.2/../../../../nios2-elf/lib\libc.a(lib_a-strchr.o)
 .bss           0x0706fa3c        0x0 d:/altera/12.1sp1b243/nios2eds/bin/gnu/h-i686-mingw32/bin/../lib/gcc/nios2-elf/4.1.2/../../../../nios2-elf/lib\libc.a(lib_a-strcmp.o)
 .bss           0x0706fa3c        0x0 d:/altera/12.1sp1b243/nios2eds/bin/gnu/h-i686-mingw32/bin/../lib/gcc/nios2-elf/4.1.2/../../../../nios2-elf/lib\libc.a(lib_a-strcpy.o)
 .bss           0x0706fa3c        0x0 d:/altera/12.1sp1b243/nios2eds/bin/gnu/h-i686-mingw32/bin/../lib/gcc/nios2-elf/4.1.2/../../../../nios2-elf/lib\libc.a(lib_a-strerror.o)
 .bss           0x0706fa3c        0x0 d:/altera/12.1sp1b243/nios2eds/bin/gnu/h-i686-mingw32/bin/../lib/gcc/nios2-elf/4.1.2/../../../../nios2-elf/lib\libc.a(lib_a-strlen.o)
 .bss           0x0706fa3c        0x0 d:/altera/12.1sp1b243/nios2eds/bin/gnu/h-i686-mingw32/bin/../lib/gcc/nios2-elf/4.1.2/../../../../nios2-elf/lib\libc.a(lib_a-strncmp.o)
 .bss           0x0706fa3c        0x0 d:/altera/12.1sp1b243/nios2eds/bin/gnu/h-i686-mingw32/bin/../lib/gcc/nios2-elf/4.1.2/../../../../nios2-elf/lib\libc.a(lib_a-strncpy.o)
 .bss           0x0706fa3c        0x0 d:/altera/12.1sp1b243/nios2eds/bin/gnu/h-i686-mingw32/bin/../lib/gcc/nios2-elf/4.1.2/../../../../nios2-elf/lib\libc.a(lib_a-strstr.o)
 .bss           0x0706fa3c        0x0 d:/altera/12.1sp1b243/nios2eds/bin/gnu/h-i686-mingw32/bin/../lib/gcc/nios2-elf/4.1.2/../../../../nios2-elf/lib\libc.a(lib_a-strtok.o)
 .bss           0x0706fa3c        0x0 d:/altera/12.1sp1b243/nios2eds/bin/gnu/h-i686-mingw32/bin/../lib/gcc/nios2-elf/4.1.2/../../../../nios2-elf/lib\libc.a(lib_a-strtok_r.o)
 .bss           0x0706fa3c        0x0 d:/altera/12.1sp1b243/nios2eds/bin/gnu/h-i686-mingw32/bin/../lib/gcc/nios2-elf/4.1.2/../../../../nios2-elf/lib\libc.a(lib_a-strtol.o)
 .bss           0x0706fa3c        0x0 d:/altera/12.1sp1b243/nios2eds/bin/gnu/h-i686-mingw32/bin/../lib/gcc/nios2-elf/4.1.2/../../../../nios2-elf/lib\libc.a(lib_a-u_strerr.o)
 .bss           0x0706fa3c        0x0 d:/altera/12.1sp1b243/nios2eds/bin/gnu/h-i686-mingw32/bin/../lib/gcc/nios2-elf/4.1.2/../../../../nios2-elf/lib\libc.a(lib_a-vfprintf.o)
 .bss           0x0706fa3c        0x0 d:/altera/12.1sp1b243/nios2eds/bin/gnu/h-i686-mingw32/bin/../lib/gcc/nios2-elf/4.1.2/../../../../nios2-elf/lib\libc.a(lib_a-vfscanf.o)
 .bss           0x0706fa3c        0x0 d:/altera/12.1sp1b243/nios2eds/bin/gnu/h-i686-mingw32/bin/../lib/gcc/nios2-elf/4.1.2/../../../../nios2-elf/lib\libc.a(lib_a-vsprintf.o)
 .bss           0x0706fa3c        0x0 d:/altera/12.1sp1b243/nios2eds/bin/gnu/h-i686-mingw32/bin/../lib/gcc/nios2-elf/4.1.2/../../../../nios2-elf/lib\libc.a(lib_a-wbuf.o)
 .bss           0x0706fa3c        0x0 d:/altera/12.1sp1b243/nios2eds/bin/gnu/h-i686-mingw32/bin/../lib/gcc/nios2-elf/4.1.2/../../../../nios2-elf/lib\libc.a(lib_a-writer.o)
 .bss           0x0706fa3c        0x0 d:/altera/12.1sp1b243/nios2eds/bin/gnu/h-i686-mingw32/bin/../lib/gcc/nios2-elf/4.1.2/../../../../nios2-elf/lib\libc.a(lib_a-wsetup.o)
 .bss           0x0706fa3c        0x0 d:/altera/12.1sp1b243/nios2eds/bin/gnu/h-i686-mingw32/bin/../lib/gcc/nios2-elf/4.1.2/../../../../nios2-elf/lib\libc.a(lib_a-closer.o)
 .bss           0x0706fa3c        0x0 d:/altera/12.1sp1b243/nios2eds/bin/gnu/h-i686-mingw32/bin/../lib/gcc/nios2-elf/4.1.2/../../../../nios2-elf/lib\libc.a(lib_a-dtoa.o)
 .bss           0x0706fa3c        0x0 d:/altera/12.1sp1b243/nios2eds/bin/gnu/h-i686-mingw32/bin/../lib/gcc/nios2-elf/4.1.2/../../../../nios2-elf/lib\libc.a(lib_a-flags.o)
 .bss           0x0706fa3c        0x0 d:/altera/12.1sp1b243/nios2eds/bin/gnu/h-i686-mingw32/bin/../lib/gcc/nios2-elf/4.1.2/../../../../nios2-elf/lib\libc.a(lib_a-fputc.o)
 .bss           0x0706fa3c        0x0 d:/altera/12.1sp1b243/nios2eds/bin/gnu/h-i686-mingw32/bin/../lib/gcc/nios2-elf/4.1.2/../../../../nios2-elf/lib\libc.a(lib_a-fputs.o)
 .bss           0x0706fa3c        0x0 d:/altera/12.1sp1b243/nios2eds/bin/gnu/h-i686-mingw32/bin/../lib/gcc/nios2-elf/4.1.2/../../../../nios2-elf/lib\libc.a(lib_a-fvwrite.o)
 .bss           0x0706fa3c        0x0 d:/altera/12.1sp1b243/nios2eds/bin/gnu/h-i686-mingw32/bin/../lib/gcc/nios2-elf/4.1.2/../../../../nios2-elf/lib\libc.a(lib_a-isattyr.o)
 .bss           0x0706fa3c        0x0 d:/altera/12.1sp1b243/nios2eds/bin/gnu/h-i686-mingw32/bin/../lib/gcc/nios2-elf/4.1.2/../../../../nios2-elf/lib\libc.a(lib_a-iswspace.o)
 .bss           0x0706fa3c        0x0 d:/altera/12.1sp1b243/nios2eds/bin/gnu/h-i686-mingw32/bin/../lib/gcc/nios2-elf/4.1.2/../../../../nios2-elf/lib\libc.a(lib_a-locale.o)
 .bss           0x0706fa3c        0x0 d:/altera/12.1sp1b243/nios2eds/bin/gnu/h-i686-mingw32/bin/../lib/gcc/nios2-elf/4.1.2/../../../../nios2-elf/lib\libc.a(lib_a-lseekr.o)
 .bss           0x0706fa3c        0x0 d:/altera/12.1sp1b243/nios2eds/bin/gnu/h-i686-mingw32/bin/../lib/gcc/nios2-elf/4.1.2/../../../../nios2-elf/lib\libc.a(lib_a-mbrtowc.o)
 .bss           0x0706fa3c        0x0 d:/altera/12.1sp1b243/nios2eds/bin/gnu/h-i686-mingw32/bin/../lib/gcc/nios2-elf/4.1.2/../../../../nios2-elf/lib\libc.a(lib_a-mbtowc_r.o)
 .bss           0x0706fa3c        0x0 d:/altera/12.1sp1b243/nios2eds/bin/gnu/h-i686-mingw32/bin/../lib/gcc/nios2-elf/4.1.2/../../../../nios2-elf/lib\libc.a(lib_a-mprec.o)
 .bss           0x0706fa3c        0x0 d:/altera/12.1sp1b243/nios2eds/bin/gnu/h-i686-mingw32/bin/../lib/gcc/nios2-elf/4.1.2/../../../../nios2-elf/lib\libc.a(lib_a-readr.o)
 .bss           0x0706fa3c        0x0 d:/altera/12.1sp1b243/nios2eds/bin/gnu/h-i686-mingw32/bin/../lib/gcc/nios2-elf/4.1.2/../../../../nios2-elf/lib\libc.a(lib_a-reallocr.o)
 .bss           0x0706fa3c        0x0 d:/altera/12.1sp1b243/nios2eds/bin/gnu/h-i686-mingw32/bin/../lib/gcc/nios2-elf/4.1.2/../../../../nios2-elf/lib\libc.a(lib_a-s_isinfd.o)
 .bss           0x0706fa3c        0x0 d:/altera/12.1sp1b243/nios2eds/bin/gnu/h-i686-mingw32/bin/../lib/gcc/nios2-elf/4.1.2/../../../../nios2-elf/lib\libc.a(lib_a-s_isnand.o)
 .bss           0x0706fa3c        0x0 d:/altera/12.1sp1b243/nios2eds/bin/gnu/h-i686-mingw32/bin/../lib/gcc/nios2-elf/4.1.2/../../../../nios2-elf/lib\libc.a(lib_a-sccl.o)
 .bss           0x0706fa3c        0x0 d:/altera/12.1sp1b243/nios2eds/bin/gnu/h-i686-mingw32/bin/../lib/gcc/nios2-elf/4.1.2/../../../../nios2-elf/lib\libc.a(lib_a-sf_nan.o)
 .bss           0x0706fa3c        0x0 d:/altera/12.1sp1b243/nios2eds/bin/gnu/h-i686-mingw32/bin/../lib/gcc/nios2-elf/4.1.2/../../../../nios2-elf/lib\libc.a(lib_a-strtod.o)
 .bss           0x0706fa3c        0x0 d:/altera/12.1sp1b243/nios2eds/bin/gnu/h-i686-mingw32/bin/../lib/gcc/nios2-elf/4.1.2/../../../../nios2-elf/lib\libc.a(lib_a-strtoll_r.o)
 .bss           0x0706fa3c        0x0 d:/altera/12.1sp1b243/nios2eds/bin/gnu/h-i686-mingw32/bin/../lib/gcc/nios2-elf/4.1.2/../../../../nios2-elf/lib\libc.a(lib_a-strtoul.o)
 .bss           0x0706fa3c        0x0 d:/altera/12.1sp1b243/nios2eds/bin/gnu/h-i686-mingw32/bin/../lib/gcc/nios2-elf/4.1.2/../../../../nios2-elf/lib\libc.a(lib_a-strtoull_r.o)
 .bss           0x0706fa3c        0x0 d:/altera/12.1sp1b243/nios2eds/bin/gnu/h-i686-mingw32/bin/../lib/gcc/nios2-elf/4.1.2/../../../../nios2-elf/lib\libc.a(lib_a-ungetc.o)
 .bss           0x0706fa3c        0x0 d:/altera/12.1sp1b243/nios2eds/bin/gnu/h-i686-mingw32/bin/../lib/gcc/nios2-elf/4.1.2/../../../../nios2-elf/lib\libc.a(lib_a-gdtoa-gethex.o)
 .bss           0x0706fa3c        0x0 d:/altera/12.1sp1b243/nios2eds/bin/gnu/h-i686-mingw32/bin/../lib/gcc/nios2-elf/4.1.2/../../../../nios2-elf/lib\libc.a(lib_a-gdtoa-hexnan.o)
 .bss           0x0706fa3c        0x0 d:/altera/12.1sp1b243/nios2eds/bin/gnu/h-i686-mingw32/bin/../lib/gcc/nios2-elf/4.1.2\libgcc.a(_muldi3.o)
 .bss           0x0706fa3c        0x0 d:/altera/12.1sp1b243/nios2eds/bin/gnu/h-i686-mingw32/bin/../lib/gcc/nios2-elf/4.1.2\libgcc.a(_fixunsdfsi.o)
 .bss           0x0706fa3c        0x0 d:/altera/12.1sp1b243/nios2eds/bin/gnu/h-i686-mingw32/bin/../lib/gcc/nios2-elf/4.1.2\libgcc.a(_udivdi3.o)
 .bss           0x0706fa3c        0x0 d:/altera/12.1sp1b243/nios2eds/bin/gnu/h-i686-mingw32/bin/../lib/gcc/nios2-elf/4.1.2\libgcc.a(_umoddi3.o)
 .bss           0x0706fa3c        0x0 d:/altera/12.1sp1b243/nios2eds/bin/gnu/h-i686-mingw32/bin/../lib/gcc/nios2-elf/4.1.2\libgcc.a(_ne_sf.o)
 .bss           0x0706fa3c        0x0 d:/altera/12.1sp1b243/nios2eds/bin/gnu/h-i686-mingw32/bin/../lib/gcc/nios2-elf/4.1.2\libgcc.a(_gt_sf.o)
 .bss           0x0706fa3c        0x0 d:/altera/12.1sp1b243/nios2eds/bin/gnu/h-i686-mingw32/bin/../lib/gcc/nios2-elf/4.1.2\libgcc.a(_lt_sf.o)
 .bss           0x0706fa3c        0x0 d:/altera/12.1sp1b243/nios2eds/bin/gnu/h-i686-mingw32/bin/../lib/gcc/nios2-elf/4.1.2\libgcc.a(_addsub_df.o)
 .bss           0x0706fa3c        0x0 d:/altera/12.1sp1b243/nios2eds/bin/gnu/h-i686-mingw32/bin/../lib/gcc/nios2-elf/4.1.2\libgcc.a(_mul_df.o)
 .bss           0x0706fa3c        0x0 d:/altera/12.1sp1b243/nios2eds/bin/gnu/h-i686-mingw32/bin/../lib/gcc/nios2-elf/4.1.2\libgcc.a(_div_df.o)
 .bss           0x0706fa3c        0x0 d:/altera/12.1sp1b243/nios2eds/bin/gnu/h-i686-mingw32/bin/../lib/gcc/nios2-elf/4.1.2\libgcc.a(_eq_df.o)
 .bss           0x0706fa3c        0x0 d:/altera/12.1sp1b243/nios2eds/bin/gnu/h-i686-mingw32/bin/../lib/gcc/nios2-elf/4.1.2\libgcc.a(_ne_df.o)
 .bss           0x0706fa3c        0x0 d:/altera/12.1sp1b243/nios2eds/bin/gnu/h-i686-mingw32/bin/../lib/gcc/nios2-elf/4.1.2\libgcc.a(_gt_df.o)
 .bss           0x0706fa3c        0x0 d:/altera/12.1sp1b243/nios2eds/bin/gnu/h-i686-mingw32/bin/../lib/gcc/nios2-elf/4.1.2\libgcc.a(_ge_df.o)
 .bss           0x0706fa3c        0x0 d:/altera/12.1sp1b243/nios2eds/bin/gnu/h-i686-mingw32/bin/../lib/gcc/nios2-elf/4.1.2\libgcc.a(_lt_df.o)
 .bss           0x0706fa3c        0x0 d:/altera/12.1sp1b243/nios2eds/bin/gnu/h-i686-mingw32/bin/../lib/gcc/nios2-elf/4.1.2\libgcc.a(_le_df.o)
 .bss           0x0706fa3c        0x0 d:/altera/12.1sp1b243/nios2eds/bin/gnu/h-i686-mingw32/bin/../lib/gcc/nios2-elf/4.1.2\libgcc.a(_si_to_df.o)
 .bss           0x0706fa3c        0x0 d:/altera/12.1sp1b243/nios2eds/bin/gnu/h-i686-mingw32/bin/../lib/gcc/nios2-elf/4.1.2\libgcc.a(_df_to_si.o)
 .bss           0x0706fa3c        0x0 d:/altera/12.1sp1b243/nios2eds/bin/gnu/h-i686-mingw32/bin/../lib/gcc/nios2-elf/4.1.2\libgcc.a(_df_to_sf.o)
 .bss           0x0706fa3c        0x0 d:/altera/12.1sp1b243/nios2eds/bin/gnu/h-i686-mingw32/bin/../lib/gcc/nios2-elf/4.1.2\libgcc.a(_thenan_df.o)
 .bss           0x0706fa3c        0x0 d:/altera/12.1sp1b243/nios2eds/bin/gnu/h-i686-mingw32/bin/../lib/gcc/nios2-elf/4.1.2\libgcc.a(_usi_to_df.o)
 .bss           0x0706fa3c        0x0 d:/altera/12.1sp1b243/nios2eds/bin/gnu/h-i686-mingw32/bin/../lib/gcc/nios2-elf/4.1.2\libgcc.a(_clz.o)
 .bss           0x0706fa3c        0x0 d:/altera/12.1sp1b243/nios2eds/bin/gnu/h-i686-mingw32/bin/../lib/gcc/nios2-elf/4.1.2\libgcc.a(_clzsi2.o)
 .bss           0x0706fa3c        0x0 d:/altera/12.1sp1b243/nios2eds/bin/gnu/h-i686-mingw32/bin/../lib/gcc/nios2-elf/4.1.2\libgcc.a(_unpack_sf.o)
 .bss           0x0706fa3c        0x0 d:/altera/12.1sp1b243/nios2eds/bin/gnu/h-i686-mingw32/bin/../lib/gcc/nios2-elf/4.1.2\libgcc.a(_fpcmp_parts_sf.o)
 .bss           0x0706fa3c        0x0 d:/altera/12.1sp1b243/nios2eds/bin/gnu/h-i686-mingw32/bin/../lib/gcc/nios2-elf/4.1.2\libgcc.a(_make_sf.o)
 .bss           0x0706fa3c        0x0 d:/altera/12.1sp1b243/nios2eds/bin/gnu/h-i686-mingw32/bin/../lib/gcc/nios2-elf/4.1.2\libgcc.a(_pack_df.o)
 .bss           0x0706fa3c        0x0 d:/altera/12.1sp1b243/nios2eds/bin/gnu/h-i686-mingw32/bin/../lib/gcc/nios2-elf/4.1.2\libgcc.a(_unpack_df.o)
 .bss           0x0706fa3c        0x0 d:/altera/12.1sp1b243/nios2eds/bin/gnu/h-i686-mingw32/bin/../lib/gcc/nios2-elf/4.1.2\libgcc.a(_fpcmp_parts_df.o)
 .bss           0x0706fa3c        0x0 d:/altera/12.1sp1b243/nios2eds/bin/gnu/h-i686-mingw32/bin/../lib/gcc/nios2-elf/4.1.2\libgcc.a(_pack_sf.o)
 .bss           0x0706fa3c        0x0 ../../bsp/ucosii_net_rozipfs/\libucosii_bsp.a(alt_fstat.o)
 .bss           0x0706fa3c        0x0 ../../bsp/ucosii_net_rozipfs/\libucosii_bsp.a(alt_isatty.o)
 .bss           0x0706fa3c        0x0 ../../bsp/ucosii_net_rozipfs/\libucosii_bsp.a(alt_lseek.o)
 .bss           0x0706fa3c        0x0 ../../bsp/ucosii_net_rozipfs/\libucosii_bsp.a(alt_main.o)
 .bss           0x0706fa3c        0x0 ../../bsp/ucosii_net_rozipfs/\libucosii_bsp.a(alt_open.o)
 .bss           0x0706fa3c        0x0 ../../bsp/ucosii_net_rozipfs/\libucosii_bsp.a(alt_release_fd.o)
 .bss           0x0706fa3c        0x0 ../../bsp/ucosii_net_rozipfs/\libucosii_bsp.a(alt_sbrk.o)
 .bss           0x0706fa3c        0x0 ../../bsp/ucosii_net_rozipfs/\libucosii_bsp.a(alt_tick.o)
 .bss           0x0706fa3c        0x0 ../../bsp/ucosii_net_rozipfs/\libucosii_bsp.a(alt_usleep.o)
 .bss           0x0706fa3c        0x0 ../../bsp/ucosii_net_rozipfs/\libucosii_bsp.a(alt_env_lock.o)
 .bss           0x0706fa3c        0x0 ../../bsp/ucosii_net_rozipfs/\libucosii_bsp.a(alt_malloc_lock.o)
 .bss           0x0706fa3c        0x0 ../../bsp/ucosii_net_rozipfs/\libucosii_bsp.a(os_core.o)
 .bss           0x0706fa3c        0x0 ../../bsp/ucosii_net_rozipfs/\libucosii_bsp.a(os_dbg.o)
 .bss           0x0706fa3c        0x0 ../../bsp/ucosii_net_rozipfs/\libucosii_bsp.a(os_flag.o)
 .bss           0x0706fa3c        0x0 ../../bsp/ucosii_net_rozipfs/\libucosii_bsp.a(os_mbox.o)
 .bss           0x0706fa3c        0x0 ../../bsp/ucosii_net_rozipfs/\libucosii_bsp.a(os_mem.o)
 .bss           0x0706fa3c        0x0 ../../bsp/ucosii_net_rozipfs/\libucosii_bsp.a(os_q.o)
 .bss           0x0706fa3c        0x0 ../../bsp/ucosii_net_rozipfs/\libucosii_bsp.a(os_sem.o)
 .bss           0x0706fa3c        0x0 ../../bsp/ucosii_net_rozipfs/\libucosii_bsp.a(os_task.o)
 .bss           0x0706fa3c        0x0 ../../bsp/ucosii_net_rozipfs/\libucosii_bsp.a(os_time.o)
 .bss           0x0706fa3c        0x0 ../../bsp/ucosii_net_rozipfs/\libucosii_bsp.a(alt_sys_init.o)
 .bss           0x0706fa3c        0x0 ../../bsp/ucosii_net_rozipfs/\libucosii_bsp.a(altera_avalon_cfi_flash.o)
 .bss           0x0706fa3c        0x0 ../../bsp/ucosii_net_rozipfs/\libucosii_bsp.a(altera_avalon_cfi_flash_table.o)
 .bss           0x0706fa3c        0x0 ../../bsp/ucosii_net_rozipfs/\libucosii_bsp.a(altera_avalon_jtag_uart_fd.o)
 .bss           0x0706fa3c        0x0 ../../bsp/ucosii_net_rozipfs/\libucosii_bsp.a(altera_avalon_jtag_uart_init.o)
 .bss           0x0706fa3c        0x0 ../../bsp/ucosii_net_rozipfs/\libucosii_bsp.a(altera_avalon_jtag_uart_ioctl.o)
 .bss           0x0706fa3c        0x0 ../../bsp/ucosii_net_rozipfs/\libucosii_bsp.a(altera_avalon_jtag_uart_read.o)
 .bss           0x0706fa3c        0x0 ../../bsp/ucosii_net_rozipfs/\libucosii_bsp.a(altera_avalon_jtag_uart_write.o)
 .bss           0x0706fa3c        0x0 ../../bsp/ucosii_net_rozipfs/\libucosii_bsp.a(altera_avalon_lcd_16207.o)
 .bss           0x0706fa3c        0x0 ../../bsp/ucosii_net_rozipfs/\libucosii_bsp.a(altera_avalon_lcd_16207_fd.o)
 .bss           0x0706fa3c        0x0 ../../bsp/ucosii_net_rozipfs/\libucosii_bsp.a(altera_avalon_sgdma.o)
 .bss           0x0706fa3c        0x0 ../../bsp/ucosii_net_rozipfs/\libucosii_bsp.a(altera_avalon_timer_sc.o)
 .bss           0x0706fa3c        0x0 ../../bsp/ucosii_net_rozipfs/\libucosii_bsp.a(altera_avalon_tse.o)
 .bss           0x0706fa3c        0x0 ../../bsp/ucosii_net_rozipfs/\libucosii_bsp.a(altera_ro_zipfs.o)
 .bss           0x0706fa3c        0x0 ../../bsp/ucosii_net_rozipfs/\libucosii_bsp.a(ins_tse_mac.o)
 .bss           0x0706fa3c        0x0 ../../bsp/ucosii_net_rozipfs/\libucosii_bsp.a(alt_iniche_close.o)
 .bss           0x0706fa3c        0x0 ../../bsp/ucosii_net_rozipfs/\libucosii_bsp.a(alt_iniche_dev.o)
 .bss           0x0706fa3c        0x0 ../../bsp/ucosii_net_rozipfs/\libucosii_bsp.a(alt_iniche_read.o)
 .bss           0x0706fa3c        0x0 ../../bsp/ucosii_net_rozipfs/\libucosii_bsp.a(alt_iniche_write.o)
 .bss           0x0706fa3c        0x0 ../../bsp/ucosii_net_rozipfs/\libucosii_bsp.a(ipnet.o)
 .bss           0x0706fa3c       0x3c ../../bsp/ucosii_net_rozipfs/\libucosii_bsp.a(ipstart.o)
 .bss           0x0706fa78        0x0 ../../bsp/ucosii_net_rozipfs/\libucosii_bsp.a(igmp_cmn.o)
 .bss           0x0706fa78        0x0 ../../bsp/ucosii_net_rozipfs/\libucosii_bsp.a(bsdsock.o)
 .bss           0x0706fa78        0x0 ../../bsp/ucosii_net_rozipfs/\libucosii_bsp.a(cksum.o)
 .bss           0x0706fa78       0x18 ../../bsp/ucosii_net_rozipfs/\libucosii_bsp.a(in_utils.o)
 .bss           0x0706fa90        0x0 ../../bsp/ucosii_net_rozipfs/\libucosii_bsp.a(netmain.o)
 .bss           0x0706fa90        0x0 ../../bsp/ucosii_net_rozipfs/\libucosii_bsp.a(tk_crnos.o)
 .bss           0x0706fa90        0x0 ../../bsp/ucosii_net_rozipfs/\libucosii_bsp.a(dhcpclnt.o)
 .bss           0x0706fa90        0x0 ../../bsp/ucosii_net_rozipfs/\libucosii_bsp.a(dhcputil.o)
 .bss           0x0706fa90        0x0 ../../bsp/ucosii_net_rozipfs/\libucosii_bsp.a(pktalloc.o)
 .bss           0x0706fa90        0x0 ../../bsp/ucosii_net_rozipfs/\libucosii_bsp.a(q.o)
 .bss           0x0706fa90        0x0 ../../bsp/ucosii_net_rozipfs/\libucosii_bsp.a(udp_open.o)
 .bss           0x0706fa90        0x0 ../../bsp/ucosii_net_rozipfs/\libucosii_bsp.a(asm_cksum.o)
 .bss           0x0706fa90        0x0 ../../bsp/ucosii_net_rozipfs/\libucosii_bsp.a(brdutils.o)
 .bss           0x0706fa90        0x0 ../../bsp/ucosii_net_rozipfs/\libucosii_bsp.a(osportco.o)
 .bss           0x0706fa90        0x0 ../../bsp/ucosii_net_rozipfs/\libucosii_bsp.a(targnios.o)
 .bss           0x0706fa90        0x0 ../../bsp/ucosii_net_rozipfs/\libucosii_bsp.a(nptcp.o)
 .bss           0x0706fa90        0x0 ../../bsp/ucosii_net_rozipfs/\libucosii_bsp.a(rawsock.o)
 .bss           0x0706fa90        0x0 ../../bsp/ucosii_net_rozipfs/\libucosii_bsp.a(sockcall.o)
 .bss           0x0706fa90        0x0 ../../bsp/ucosii_net_rozipfs/\libucosii_bsp.a(socket.o)
 .bss           0x0706fa90        0x0 ../../bsp/ucosii_net_rozipfs/\libucosii_bsp.a(socket2.o)
 .bss           0x0706fa90        0x0 ../../bsp/ucosii_net_rozipfs/\libucosii_bsp.a(soselect.o)
 .bss           0x0706fa90        0x0 ../../bsp/ucosii_net_rozipfs/\libucosii_bsp.a(tcp_in.o)
 .bss           0x0706fa90        0x0 ../../bsp/ucosii_net_rozipfs/\libucosii_bsp.a(tcp_out.o)
 .bss           0x0706fa90        0x0 ../../bsp/ucosii_net_rozipfs/\libucosii_bsp.a(tcp_subr.o)
 .bss           0x0706fa90        0x0 ../../bsp/ucosii_net_rozipfs/\libucosii_bsp.a(tcp_timr.o)
 .bss           0x0706fa90        0x0 ../../bsp/ucosii_net_rozipfs/\libucosii_bsp.a(tcp_usr.o)
 .bss           0x0706fa90        0x0 ../../bsp/ucosii_net_rozipfs/\libucosii_bsp.a(tcpport.o)
 .bss           0x0706fa90        0x0 ../../bsp/ucosii_net_rozipfs/\libucosii_bsp.a(udpsock.o)
 .bss           0x0706fa90        0x0 ../../bsp/ucosii_net_rozipfs/\libucosii_bsp.a(alt_alarm_start.o)
 .bss           0x0706fa90        0x0 ../../bsp/ucosii_net_rozipfs/\libucosii_bsp.a(alt_busy_sleep.o)
 .bss           0x0706fa90        0x0 ../../bsp/ucosii_net_rozipfs/\libucosii_bsp.a(alt_close.o)
 .bss           0x0706fa90        0x0 ../../bsp/ucosii_net_rozipfs/\libucosii_bsp.a(alt_dcache_flush.o)
 .bss           0x0706fa90        0x0 ../../bsp/ucosii_net_rozipfs/\libucosii_bsp.a(alt_dev.o)
 .bss           0x0706fa90        0x0 ../../bsp/ucosii_net_rozipfs/\libucosii_bsp.a(alt_dev_llist_insert.o)
 .bss           0x0706fa90        0x0 ../../bsp/ucosii_net_rozipfs/\libucosii_bsp.a(alt_do_ctors.o)
 .bss           0x0706fa90        0x0 ../../bsp/ucosii_net_rozipfs/\libucosii_bsp.a(alt_do_dtors.o)
 .bss           0x0706fa90        0x0 ../../bsp/ucosii_net_rozipfs/\libucosii_bsp.a(alt_errno.o)
 .bss           0x0706fa90        0x0 ../../bsp/ucosii_net_rozipfs/\libucosii_bsp.a(alt_find_dev.o)
 .bss           0x0706fa90        0x0 ../../bsp/ucosii_net_rozipfs/\libucosii_bsp.a(alt_find_file.o)
 .bss           0x0706fa90        0x0 ../../bsp/ucosii_net_rozipfs/\libucosii_bsp.a(alt_flash_dev.o)
 .bss           0x0706fa90        0x0 ../../bsp/ucosii_net_rozipfs/\libucosii_bsp.a(alt_fs_reg.o)
 .bss           0x0706fa90        0x0 ../../bsp/ucosii_net_rozipfs/\libucosii_bsp.a(alt_get_fd.o)
 .bss           0x0706fa90        0x0 ../../bsp/ucosii_net_rozipfs/\libucosii_bsp.a(alt_iic.o)
 .bss           0x0706fa90        0x0 ../../bsp/ucosii_net_rozipfs/\libucosii_bsp.a(alt_iic_isr_register.o)
 .bss           0x0706fa90        0x0 ../../bsp/ucosii_net_rozipfs/\libucosii_bsp.a(alt_io_redirect.o)
 .bss           0x0706fa90        0x0 ../../bsp/ucosii_net_rozipfs/\libucosii_bsp.a(alt_irq_entry.o)
 .bss           0x0706fa90        0x0 ../../bsp/ucosii_net_rozipfs/\libucosii_bsp.a(alt_irq_handler.o)
 .bss           0x0706fa90        0x0 ../../bsp/ucosii_net_rozipfs/\libucosii_bsp.a(alt_irq_vars.o)
 .bss           0x0706fa90        0x0 ../../bsp/ucosii_net_rozipfs/\libucosii_bsp.a(alt_read.o)
 .bss           0x0706fa90        0x0 ../../bsp/ucosii_net_rozipfs/\libucosii_bsp.a(alt_remap_cached.o)
 .bss           0x0706fa90        0x0 ../../bsp/ucosii_net_rozipfs/\libucosii_bsp.a(alt_remap_uncached.o)
 .bss           0x0706fa90        0x0 ../../bsp/ucosii_net_rozipfs/\libucosii_bsp.a(alt_uncached_malloc.o)
 .bss           0x0706fa90        0x0 ../../bsp/ucosii_net_rozipfs/\libucosii_bsp.a(alt_write.o)
 .bss           0x0706fa90        0x0 ../../bsp/ucosii_net_rozipfs/\libucosii_bsp.a(altera_nios2_qsys_irq.o)
 .bss           0x0706fa90        0x0 ../../bsp/ucosii_net_rozipfs/\libucosii_bsp.a(os_cpu_a.o)
 .bss           0x0706fa90        0x0 ../../bsp/ucosii_net_rozipfs/\libucosii_bsp.a(os_cpu_c.o)
 .bss           0x0706fa90        0x0 ../../bsp/ucosii_net_rozipfs/\libucosii_bsp.a(altera_avalon_cfi_flash_amd.o)
 .bss           0x0706fa90        0x0 ../../bsp/ucosii_net_rozipfs/\libucosii_bsp.a(altera_avalon_cfi_flash_intel.o)
 .bss           0x0706fa90        0x0 ../../bsp/ucosii_net_rozipfs/\libucosii_bsp.a(allports.o)
 .bss           0x0706fa90        0x0 ../../bsp/ucosii_net_rozipfs/\libucosii_bsp.a(timeouts.o)
 .bss           0x0706fa90        0x0 ../../bsp/ucosii_net_rozipfs/\libucosii_bsp.a(tk_misc.o)
 .bss           0x0706fa90        0x0 ../../bsp/ucosii_net_rozipfs/\libucosii_bsp.a(alt_iniche_fcntl.o)
 .bss           0x0706fa90        0x0 ../../bsp/ucosii_net_rozipfs/\libucosii_bsp.a(et_arp.o)
 .bss           0x0706fa90        0x0 ../../bsp/ucosii_net_rozipfs/\libucosii_bsp.a(iface.o)
 .bss           0x0706fa90        0x0 ../../bsp/ucosii_net_rozipfs/\libucosii_bsp.a(ip.o)
 .bss           0x0706fa90        0x0 ../../bsp/ucosii_net_rozipfs/\libucosii_bsp.a(ip_reasm.o)
 .bss           0x0706fa90        0x0 ../../bsp/ucosii_net_rozipfs/\libucosii_bsp.a(ipdemux.o)
 .bss           0x0706fa90        0x0 ../../bsp/ucosii_net_rozipfs/\libucosii_bsp.a(ipmc.o)
 .bss           0x0706fa90        0x0 ../../bsp/ucosii_net_rozipfs/\libucosii_bsp.a(ipport.o)
 .bss           0x0706fa90        0x0 ../../bsp/ucosii_net_rozipfs/\libucosii_bsp.a(ipraw.o)
 .bss           0x0706fa90        0x0 ../../bsp/ucosii_net_rozipfs/\libucosii_bsp.a(iproute.o)
 .bss           0x0706fa90        0x0 ../../bsp/ucosii_net_rozipfs/\libucosii_bsp.a(udp.o)
 .bss           0x0706fa90        0x0 ../../bsp/ucosii_net_rozipfs/\libucosii_bsp.a(igmp.o)
 .bss           0x0706fa90        0x0 ../../bsp/ucosii_net_rozipfs/\libucosii_bsp.a(igmp2.o)
 .bss           0x0706fa90        0x0 ../../bsp/ucosii_net_rozipfs/\libucosii_bsp.a(ipopt.o)
 .bss           0x0706fa90        0x0 ../../bsp/ucosii_net_rozipfs/\libucosii_bsp.a(u_mctest.o)
 .bss           0x0706fa90        0x0 ../../bsp/ucosii_net_rozipfs/\libucosii_bsp.a(dhcsetup.o)
 .bss           0x0706fa90        0x0 ../../bsp/ucosii_net_rozipfs/\libucosii_bsp.a(memdev.o)
 .bss           0x0706fa90       0x1e ../../bsp/ucosii_net_rozipfs/\libucosii_bsp.a(parseip.o)
 .bss           0x0706faae        0x0 ../../bsp/ucosii_net_rozipfs/\libucosii_bsp.a(tcpcksum.o)
 .bss           0x0706faae        0x0 ../../bsp/ucosii_net_rozipfs/\libucosii_bsp.a(in_pcb.o)
 .bss           0x0706faae        0x0 ../../bsp/ucosii_net_rozipfs/\libucosii_bsp.a(vfsfiles.o)
 .bss           0x0706faae        0x0 ../../bsp/ucosii_net_rozipfs/\libucosii_bsp.a(vfsport.o)
 .bss           0x0706faae        0x0 ../../bsp/ucosii_net_rozipfs/\libucosii_bsp.a(alt_exception_entry.o)
 .bss           0x0706faae        0x0 ../../bsp/ucosii_net_rozipfs/\libucosii_bsp.a(alt_fcntl.o)
 .bss           0x0706faae        0x0 ../../bsp/ucosii_net_rozipfs/\libucosii_bsp.a(icmp.o)
 .bss           0x0706faae        0x0 d:/altera/12.1sp1b243/nios2eds/bin/gnu/h-i686-mingw32/bin/../lib/gcc/nios2-elf/4.1.2/../../../../nios2-elf/lib\libc.a(lib_a-atexit.o)
 .bss           0x0706faae        0x0 d:/altera/12.1sp1b243/nios2eds/bin/gnu/h-i686-mingw32/bin/../lib/gcc/nios2-elf/4.1.2/../../../../nios2-elf/lib\libc.a(lib_a-exit.o)
 .bss           0x0706faae        0x0 d:/altera/12.1sp1b243/nios2eds/bin/gnu/h-i686-mingw32/bin/../lib/gcc/nios2-elf/4.1.2/../../../../nios2-elf/lib\libc.a(lib_a-vprintf.o)
 .bss           0x0706faae        0x0 d:/altera/12.1sp1b243/nios2eds/bin/gnu/h-i686-mingw32/bin/../lib/gcc/nios2-elf/4.1.2/../../../../nios2-elf/lib\libc.a(lib_a-__atexit.o)
 .bss           0x0706faae        0x0 d:/altera/12.1sp1b243/nios2eds/bin/gnu/h-i686-mingw32/bin/../lib/gcc/nios2-elf/4.1.2/../../../../nios2-elf/lib\libc.a(lib_a-__call_atexit.o)
 .bss           0x0706faae        0x0 ../../bsp/ucosii_net_rozipfs/\libucosii_bsp.a(alt_exit.o)
 *(COMMON)
 *fill*         0x0706faae        0x2 00
 COMMON         0x0706fab0     0x2000 obj/default/src/main.o
                0x0706fab0                lcd_task_stk
                0x07070ab0                led_task_stk
 COMMON         0x07071ab0    0x1a244 obj/default/src/webserver.o
                0x07071ab0                board_funcs
                0x07071ada                ws_msg_string
                0x07071bdc                netman_task_stk
                0x07073bdc                http_rx_buffer
                0x0707fbdc                frag
                0x0707fce0                progress
                0x0707fcf4                http_tx_buffer
 COMMON         0x0708bcf4      0x100 d:/altera/12.1sp1b243/nios2eds/bin/gnu/h-i686-mingw32/bin/../lib/gcc/nios2-elf/4.1.2/../../../../nios2-elf/lib\libc.a(lib_a-gdtoa-gethex.o)
                0x0708bcf4                __hexdig
 COMMON         0x0708bdf4     0x3224 ../../bsp/ucosii_net_rozipfs/\libucosii_bsp.a(os_core.o)
                0x0708bdf4                OSFlagTbl
                0x0708c164                OSMemTbl
                0x0708cd94                OSTaskStatStk
                0x0708d594                OSQTbl
                0x0708d774                OSTaskIdleStk
                0x0708df74                OSEventTbl
                0x0708eab4                OSTCBTbl
                0x0708efc4                OSTCBPrioTbl
 COMMON         0x0708f018       0xe0 ../../bsp/ucosii_net_rozipfs/\libucosii_bsp.a(alt_sys_init.o)
                0x0708f018                tse_mac_if
 COMMON         0x0708f0f8       0x20 ../../bsp/ucosii_net_rozipfs/\libucosii_bsp.a(altera_avalon_tse.o)
                0x0708f0f8                pmac_groups
                0x0708f108                pphy_profiles
 COMMON         0x0708f118      0x160 ../../bsp/ucosii_net_rozipfs/\libucosii_bsp.a(ins_tse_mac.o)
                0x0708f118                tse_iniche_dev_driver_data
                0x0708f148                tse
 COMMON         0x0708f278       0x14 ../../bsp/ucosii_net_rozipfs/\libucosii_bsp.a(ipnet.o)
                0x0708f278                rcvdq
 COMMON         0x0708f28c      0x310 ../../bsp/ucosii_net_rozipfs/\libucosii_bsp.a(ipstart.o)
                0x0708f28c                netstatic
                0x0708f58c                nets
 COMMON         0x0708f59c       0x64 ../../bsp/ucosii_net_rozipfs/\libucosii_bsp.a(igmp_cmn.o)
                0x0708f59c                igmpstats
 COMMON         0x0708f600       0x24 ../../bsp/ucosii_net_rozipfs/\libucosii_bsp.a(in_utils.o)
                0x0708f600                eth_prt_buf
                0x0708f612                ipreturn
 COMMON         0x0708f624       0xf0 ../../bsp/ucosii_net_rozipfs/\libucosii_bsp.a(dhcpclnt.o)
                0x0708f624                dhc_states
 COMMON         0x0708f714      0x128 ../../bsp/ucosii_net_rozipfs/\libucosii_bsp.a(pktalloc.o)
                0x0708f714                lilfreeq
                0x0708f728                memestats
                0x0708f738                pktlog
                0x0708f828                bigfreeq
 COMMON         0x0708f83c      0x1ec ../../bsp/ucosii_net_rozipfs/\libucosii_bsp.a(osportco.o)
                0x0708f83c                global_tcb_ext
                0x0708f938                global_TCPwakeup_set
 COMMON         0x0708fa28       0x58 ../../bsp/ucosii_net_rozipfs/\libucosii_bsp.a(targnios.o)
                0x0708fa28                resid_semaphore
                0x0708fa68                app_semaphore
 COMMON         0x0708fa80       0x78 ../../bsp/ucosii_net_rozipfs/\libucosii_bsp.a(nptcp.o)
                0x0708fa80                soq
                0x0708fa94                tcpmib
                0x0708fad0                mbufq
                0x0708fae4                mfreeq
 COMMON         0x0708faf8       0x28 ../../bsp/ucosii_net_rozipfs/\libucosii_bsp.a(tcp_in.o)
                0x0708faf8                tcp_saveti
 COMMON         0x0708fb20      0x10c ../../bsp/ucosii_net_rozipfs/\libucosii_bsp.a(tcp_subr.o)
                0x0708fb20                tcb
                0x0708fb4c                tcpstat
 COMMON         0x0708fc2c      0x100 ../../bsp/ucosii_net_rozipfs/\libucosii_bsp.a(alt_irq_handler.o)
                0x0708fc2c                alt_irq
 COMMON         0x0708fd2c       0x64 ../../bsp/ucosii_net_rozipfs/\libucosii_bsp.a(timeouts.o)
                0x0708fd2c                intimers
 COMMON         0x0708fd90      0x100 ../../bsp/ucosii_net_rozipfs/\libucosii_bsp.a(et_arp.o)
                0x0708fd90                arp_table
 COMMON         0x0708fe90       0x14 ../../bsp/ucosii_net_rozipfs/\libucosii_bsp.a(iface.o)
                0x0708fe90                netlist
 COMMON         0x0708fea4       0x50 ../../bsp/ucosii_net_rozipfs/\libucosii_bsp.a(ip.o)
                0x0708fea4                ip_mib
 COMMON         0x0708fef4       0x18 ../../bsp/ucosii_net_rozipfs/\libucosii_bsp.a(ip_reasm.o)
                0x0708fef4                ire_stats
 COMMON         0x0708ff0c       0x10 ../../bsp/ucosii_net_rozipfs/\libucosii_bsp.a(udp.o)
                0x0708ff0c                udp_mib
 COMMON         0x0708ff1c       0x68 ../../bsp/ucosii_net_rozipfs/\libucosii_bsp.a(icmp.o)
                0x0708ff1c                icmp_mib
 COMMON         0x0708ff84      0x190 d:/altera/12.1sp1b243/nios2eds/bin/gnu/h-i686-mingw32/bin/../lib/gcc/nios2-elf/4.1.2/../../../../nios2-elf/lib\libc.a(lib_a-atexit.o)
                0x0708ff84                _atexit0
                0x07090114                . = ALIGN (0x4)
                0x07090114                __bss_end = ABSOLUTE (.)

.ext_flash      0x01bc0020        0x0
                0x01bc0020                PROVIDE (_alt_partition_ext_flash_start, ABSOLUTE (.))
 *(.ext_flash. ext_flash.*)
                0x01bc0020                . = ALIGN (0x4)
                0x01bc0020                PROVIDE (_alt_partition_ext_flash_end, ABSOLUTE (.))
                0x01bc0020                PROVIDE (_alt_partition_ext_flash_load_addr, LOADADDR (.ext_flash))

.ssram          0x07090114        0x0
                0x07090114                PROVIDE (_alt_partition_ssram_start, ABSOLUTE (.))
 *(.ssram. ssram.*)
                0x07090114                . = ALIGN (0x4)
                0x07090114                PROVIDE (_alt_partition_ssram_end, ABSOLUTE (.))
                0x07090114                _end = ABSOLUTE (.)
                0x07090114                end = ABSOLUTE (.)
                0x07090114                __alt_stack_base = ABSOLUTE (.)
                0x07090114                PROVIDE (_alt_partition_ssram_load_addr, LOADADDR (.ssram))

.descriptor_memory
                0x08000000        0x0
                0x08000000                PROVIDE (_alt_partition_descriptor_memory_start, ABSOLUTE (.))
 *(.descriptor_memory. descriptor_memory.*)
                0x08000000                . = ALIGN (0x4)
                0x08000000                PROVIDE (_alt_partition_descriptor_memory_end, ABSOLUTE (.))
                0x08000000                PROVIDE (_alt_partition_descriptor_memory_load_addr, LOADADDR (.descriptor_memory))

.onchip_ram     0x082001bc        0x0
                0x082001bc                PROVIDE (_alt_partition_onchip_ram_start, ABSOLUTE (.))
 *(.onchip_ram. onchip_ram.*)
                0x082001bc                . = ALIGN (0x4)
                0x082001bc                PROVIDE (_alt_partition_onchip_ram_end, ABSOLUTE (.))
                0x082001bc                PROVIDE (_alt_partition_onchip_ram_load_addr, LOADADDR (.onchip_ram))

.stab
 *(.stab)

.stabstr
 *(.stabstr)

.stab.excl
 *(.stab.excl)

.stab.exclstr
 *(.stab.exclstr)

.stab.index
 *(.stab.index)

.stab.indexstr
 *(.stab.indexstr)

.comment        0x00000000       0x26
 *(.comment)
 .comment       0x00000000       0x26 obj/default/src/flash_intel_p30/flash_intel_p30.o
                                 0x27 (size before relaxing)
 .comment       0x00000000       0x27 obj/default/src/main.o
 .comment       0x00000000       0x27 obj/default/src/os_utils.o
 .comment       0x00000000       0x27 obj/default/src/reconfig_utils.o
 .comment       0x00000000       0x27 obj/default/src/srec/srec.o
 .comment       0x00000000       0x27 obj/default/src/tse_my_system.o
 .comment       0x00000000       0x27 obj/default/src/webserver.o
 .comment       0x00000000       0x27 d:/altera/12.1sp1b243/nios2eds/bin/gnu/h-i686-mingw32/bin/../lib/gcc/nios2-elf/4.1.2\libgcc.a(lib2-divmod.o)
 .comment       0x00000000       0x27 d:/altera/12.1sp1b243/nios2eds/bin/gnu/h-i686-mingw32/bin/../lib/gcc/nios2-elf/4.1.2/../../../../nios2-elf/lib\libc.a(lib_a-atoi.o)
 .comment       0x00000000       0x27 d:/altera/12.1sp1b243/nios2eds/bin/gnu/h-i686-mingw32/bin/../lib/gcc/nios2-elf/4.1.2/../../../../nios2-elf/lib\libc.a(lib_a-calloc.o)
 .comment       0x00000000       0x27 d:/altera/12.1sp1b243/nios2eds/bin/gnu/h-i686-mingw32/bin/../lib/gcc/nios2-elf/4.1.2/../../../../nios2-elf/lib\libc.a(lib_a-callocr.o)
 .comment       0x00000000       0x27 d:/altera/12.1sp1b243/nios2eds/bin/gnu/h-i686-mingw32/bin/../lib/gcc/nios2-elf/4.1.2/../../../../nios2-elf/lib\libc.a(lib_a-ctype_.o)
 .comment       0x00000000       0x27 d:/altera/12.1sp1b243/nios2eds/bin/gnu/h-i686-mingw32/bin/../lib/gcc/nios2-elf/4.1.2/../../../../nios2-elf/lib\libc.a(lib_a-fclose.o)
 .comment       0x00000000       0x27 d:/altera/12.1sp1b243/nios2eds/bin/gnu/h-i686-mingw32/bin/../lib/gcc/nios2-elf/4.1.2/../../../../nios2-elf/lib\libc.a(lib_a-fflush.o)
 .comment       0x00000000       0x27 d:/altera/12.1sp1b243/nios2eds/bin/gnu/h-i686-mingw32/bin/../lib/gcc/nios2-elf/4.1.2/../../../../nios2-elf/lib\libc.a(lib_a-fgetpos.o)
 .comment       0x00000000       0x27 d:/altera/12.1sp1b243/nios2eds/bin/gnu/h-i686-mingw32/bin/../lib/gcc/nios2-elf/4.1.2/../../../../nios2-elf/lib\libc.a(lib_a-findfp.o)
 .comment       0x00000000       0x27 d:/altera/12.1sp1b243/nios2eds/bin/gnu/h-i686-mingw32/bin/../lib/gcc/nios2-elf/4.1.2/../../../../nios2-elf/lib\libc.a(lib_a-fopen.o)
 .comment       0x00000000       0x27 d:/altera/12.1sp1b243/nios2eds/bin/gnu/h-i686-mingw32/bin/../lib/gcc/nios2-elf/4.1.2/../../../../nios2-elf/lib\libc.a(lib_a-fread.o)
 .comment       0x00000000       0x27 d:/altera/12.1sp1b243/nios2eds/bin/gnu/h-i686-mingw32/bin/../lib/gcc/nios2-elf/4.1.2/../../../../nios2-elf/lib\libc.a(lib_a-freer.o)
 .comment       0x00000000       0x27 d:/altera/12.1sp1b243/nios2eds/bin/gnu/h-i686-mingw32/bin/../lib/gcc/nios2-elf/4.1.2/../../../../nios2-elf/lib\libc.a(lib_a-fseek.o)
 .comment       0x00000000       0x27 d:/altera/12.1sp1b243/nios2eds/bin/gnu/h-i686-mingw32/bin/../lib/gcc/nios2-elf/4.1.2/../../../../nios2-elf/lib\libc.a(lib_a-fstatr.o)
 .comment       0x00000000       0x27 d:/altera/12.1sp1b243/nios2eds/bin/gnu/h-i686-mingw32/bin/../lib/gcc/nios2-elf/4.1.2/../../../../nios2-elf/lib\libc.a(lib_a-ftell.o)
 .comment       0x00000000       0x27 d:/altera/12.1sp1b243/nios2eds/bin/gnu/h-i686-mingw32/bin/../lib/gcc/nios2-elf/4.1.2/../../../../nios2-elf/lib\libc.a(lib_a-fwalk.o)
 .comment       0x00000000       0x27 d:/altera/12.1sp1b243/nios2eds/bin/gnu/h-i686-mingw32/bin/../lib/gcc/nios2-elf/4.1.2/../../../../nios2-elf/lib\libc.a(lib_a-fwrite.o)
 .comment       0x00000000       0x27 d:/altera/12.1sp1b243/nios2eds/bin/gnu/h-i686-mingw32/bin/../lib/gcc/nios2-elf/4.1.2/../../../../nios2-elf/lib\libc.a(lib_a-getc.o)
 .comment       0x00000000       0x27 d:/altera/12.1sp1b243/nios2eds/bin/gnu/h-i686-mingw32/bin/../lib/gcc/nios2-elf/4.1.2/../../../../nios2-elf/lib\libc.a(lib_a-impure.o)
 .comment       0x00000000       0x27 d:/altera/12.1sp1b243/nios2eds/bin/gnu/h-i686-mingw32/bin/../lib/gcc/nios2-elf/4.1.2/../../../../nios2-elf/lib\libc.a(lib_a-int_errno.o)
 .comment       0x00000000       0x27 d:/altera/12.1sp1b243/nios2eds/bin/gnu/h-i686-mingw32/bin/../lib/gcc/nios2-elf/4.1.2/../../../../nios2-elf/lib\libc.a(lib_a-makebuf.o)
 .comment       0x00000000       0x27 d:/altera/12.1sp1b243/nios2eds/bin/gnu/h-i686-mingw32/bin/../lib/gcc/nios2-elf/4.1.2/../../../../nios2-elf/lib\libc.a(lib_a-malloc.o)
 .comment       0x00000000       0x27 d:/altera/12.1sp1b243/nios2eds/bin/gnu/h-i686-mingw32/bin/../lib/gcc/nios2-elf/4.1.2/../../../../nios2-elf/lib\libc.a(lib_a-mallocr.o)
 .comment       0x00000000       0x27 d:/altera/12.1sp1b243/nios2eds/bin/gnu/h-i686-mingw32/bin/../lib/gcc/nios2-elf/4.1.2/../../../../nios2-elf/lib\libc.a(lib_a-memchr.o)
 .comment       0x00000000       0x27 d:/altera/12.1sp1b243/nios2eds/bin/gnu/h-i686-mingw32/bin/../lib/gcc/nios2-elf/4.1.2/../../../../nios2-elf/lib\libc.a(lib_a-memcmp.o)
 .comment       0x00000000       0x27 d:/altera/12.1sp1b243/nios2eds/bin/gnu/h-i686-mingw32/bin/../lib/gcc/nios2-elf/4.1.2/../../../../nios2-elf/lib\libc.a(lib_a-memcpy.o)
 .comment       0x00000000       0x27 d:/altera/12.1sp1b243/nios2eds/bin/gnu/h-i686-mingw32/bin/../lib/gcc/nios2-elf/4.1.2/../../../../nios2-elf/lib\libc.a(lib_a-memmove.o)
 .comment       0x00000000       0x27 d:/altera/12.1sp1b243/nios2eds/bin/gnu/h-i686-mingw32/bin/../lib/gcc/nios2-elf/4.1.2/../../../../nios2-elf/lib\libc.a(lib_a-memset.o)
 .comment       0x00000000       0x27 d:/altera/12.1sp1b243/nios2eds/bin/gnu/h-i686-mingw32/bin/../lib/gcc/nios2-elf/4.1.2/../../../../nios2-elf/lib\libc.a(lib_a-openr.o)
 .comment       0x00000000       0x27 d:/altera/12.1sp1b243/nios2eds/bin/gnu/h-i686-mingw32/bin/../lib/gcc/nios2-elf/4.1.2/../../../../nios2-elf/lib\libc.a(lib_a-perror.o)
 .comment       0x00000000       0x27 d:/altera/12.1sp1b243/nios2eds/bin/gnu/h-i686-mingw32/bin/../lib/gcc/nios2-elf/4.1.2/../../../../nios2-elf/lib\libc.a(lib_a-putc.o)
 .comment       0x00000000       0x27 d:/altera/12.1sp1b243/nios2eds/bin/gnu/h-i686-mingw32/bin/../lib/gcc/nios2-elf/4.1.2/../../../../nios2-elf/lib\libc.a(lib_a-puts.o)
 .comment       0x00000000       0x27 d:/altera/12.1sp1b243/nios2eds/bin/gnu/h-i686-mingw32/bin/../lib/gcc/nios2-elf/4.1.2/../../../../nios2-elf/lib\libc.a(lib_a-refill.o)
 .comment       0x00000000       0x27 d:/altera/12.1sp1b243/nios2eds/bin/gnu/h-i686-mingw32/bin/../lib/gcc/nios2-elf/4.1.2/../../../../nios2-elf/lib\libc.a(lib_a-rget.o)
 .comment       0x00000000       0x27 d:/altera/12.1sp1b243/nios2eds/bin/gnu/h-i686-mingw32/bin/../lib/gcc/nios2-elf/4.1.2/../../../../nios2-elf/lib\libc.a(lib_a-sbrkr.o)
 .comment       0x00000000       0x27 d:/altera/12.1sp1b243/nios2eds/bin/gnu/h-i686-mingw32/bin/../lib/gcc/nios2-elf/4.1.2/../../../../nios2-elf/lib\libc.a(lib_a-sprintf.o)
 .comment       0x00000000       0x27 d:/altera/12.1sp1b243/nios2eds/bin/gnu/h-i686-mingw32/bin/../lib/gcc/nios2-elf/4.1.2/../../../../nios2-elf/lib\libc.a(lib_a-sscanf.o)
 .comment       0x00000000       0x27 d:/altera/12.1sp1b243/nios2eds/bin/gnu/h-i686-mingw32/bin/../lib/gcc/nios2-elf/4.1.2/../../../../nios2-elf/lib\libc.a(lib_a-stdio.o)
 .comment       0x00000000       0x27 d:/altera/12.1sp1b243/nios2eds/bin/gnu/h-i686-mingw32/bin/../lib/gcc/nios2-elf/4.1.2/../../../../nios2-elf/lib\libc.a(lib_a-strcasecmp.o)
 .comment       0x00000000       0x27 d:/altera/12.1sp1b243/nios2eds/bin/gnu/h-i686-mingw32/bin/../lib/gcc/nios2-elf/4.1.2/../../../../nios2-elf/lib\libc.a(lib_a-strchr.o)
 .comment       0x00000000       0x27 d:/altera/12.1sp1b243/nios2eds/bin/gnu/h-i686-mingw32/bin/../lib/gcc/nios2-elf/4.1.2/../../../../nios2-elf/lib\libc.a(lib_a-strcmp.o)
 .comment       0x00000000       0x27 d:/altera/12.1sp1b243/nios2eds/bin/gnu/h-i686-mingw32/bin/../lib/gcc/nios2-elf/4.1.2/../../../../nios2-elf/lib\libc.a(lib_a-strcpy.o)
 .comment       0x00000000       0x27 d:/altera/12.1sp1b243/nios2eds/bin/gnu/h-i686-mingw32/bin/../lib/gcc/nios2-elf/4.1.2/../../../../nios2-elf/lib\libc.a(lib_a-strerror.o)
 .comment       0x00000000       0x27 d:/altera/12.1sp1b243/nios2eds/bin/gnu/h-i686-mingw32/bin/../lib/gcc/nios2-elf/4.1.2/../../../../nios2-elf/lib\libc.a(lib_a-strlen.o)
 .comment       0x00000000       0x27 d:/altera/12.1sp1b243/nios2eds/bin/gnu/h-i686-mingw32/bin/../lib/gcc/nios2-elf/4.1.2/../../../../nios2-elf/lib\libc.a(lib_a-strncmp.o)
 .comment       0x00000000       0x27 d:/altera/12.1sp1b243/nios2eds/bin/gnu/h-i686-mingw32/bin/../lib/gcc/nios2-elf/4.1.2/../../../../nios2-elf/lib\libc.a(lib_a-strncpy.o)
 .comment       0x00000000       0x27 d:/altera/12.1sp1b243/nios2eds/bin/gnu/h-i686-mingw32/bin/../lib/gcc/nios2-elf/4.1.2/../../../../nios2-elf/lib\libc.a(lib_a-strstr.o)
 .comment       0x00000000       0x27 d:/altera/12.1sp1b243/nios2eds/bin/gnu/h-i686-mingw32/bin/../lib/gcc/nios2-elf/4.1.2/../../../../nios2-elf/lib\libc.a(lib_a-strtok.o)
 .comment       0x00000000       0x27 d:/altera/12.1sp1b243/nios2eds/bin/gnu/h-i686-mingw32/bin/../lib/gcc/nios2-elf/4.1.2/../../../../nios2-elf/lib\libc.a(lib_a-strtok_r.o)
 .comment       0x00000000       0x27 d:/altera/12.1sp1b243/nios2eds/bin/gnu/h-i686-mingw32/bin/../lib/gcc/nios2-elf/4.1.2/../../../../nios2-elf/lib\libc.a(lib_a-strtol.o)
 .comment       0x00000000       0x27 d:/altera/12.1sp1b243/nios2eds/bin/gnu/h-i686-mingw32/bin/../lib/gcc/nios2-elf/4.1.2/../../../../nios2-elf/lib\libc.a(lib_a-u_strerr.o)
 .comment       0x00000000       0x27 d:/altera/12.1sp1b243/nios2eds/bin/gnu/h-i686-mingw32/bin/../lib/gcc/nios2-elf/4.1.2/../../../../nios2-elf/lib\libc.a(lib_a-vfprintf.o)
 .comment       0x00000000       0x27 d:/altera/12.1sp1b243/nios2eds/bin/gnu/h-i686-mingw32/bin/../lib/gcc/nios2-elf/4.1.2/../../../../nios2-elf/lib\libc.a(lib_a-vfscanf.o)
 .comment       0x00000000       0x27 d:/altera/12.1sp1b243/nios2eds/bin/gnu/h-i686-mingw32/bin/../lib/gcc/nios2-elf/4.1.2/../../../../nios2-elf/lib\libc.a(lib_a-vsprintf.o)
 .comment       0x00000000       0x27 d:/altera/12.1sp1b243/nios2eds/bin/gnu/h-i686-mingw32/bin/../lib/gcc/nios2-elf/4.1.2/../../../../nios2-elf/lib\libc.a(lib_a-wbuf.o)
 .comment       0x00000000       0x27 d:/altera/12.1sp1b243/nios2eds/bin/gnu/h-i686-mingw32/bin/../lib/gcc/nios2-elf/4.1.2/../../../../nios2-elf/lib\libc.a(lib_a-writer.o)
 .comment       0x00000000       0x27 d:/altera/12.1sp1b243/nios2eds/bin/gnu/h-i686-mingw32/bin/../lib/gcc/nios2-elf/4.1.2/../../../../nios2-elf/lib\libc.a(lib_a-wsetup.o)
 .comment       0x00000000       0x27 d:/altera/12.1sp1b243/nios2eds/bin/gnu/h-i686-mingw32/bin/../lib/gcc/nios2-elf/4.1.2/../../../../nios2-elf/lib\libc.a(lib_a-closer.o)
 .comment       0x00000000       0x27 d:/altera/12.1sp1b243/nios2eds/bin/gnu/h-i686-mingw32/bin/../lib/gcc/nios2-elf/4.1.2/../../../../nios2-elf/lib\libc.a(lib_a-dtoa.o)
 .comment       0x00000000       0x27 d:/altera/12.1sp1b243/nios2eds/bin/gnu/h-i686-mingw32/bin/../lib/gcc/nios2-elf/4.1.2/../../../../nios2-elf/lib\libc.a(lib_a-flags.o)
 .comment       0x00000000       0x27 d:/altera/12.1sp1b243/nios2eds/bin/gnu/h-i686-mingw32/bin/../lib/gcc/nios2-elf/4.1.2/../../../../nios2-elf/lib\libc.a(lib_a-fputc.o)
 .comment       0x00000000       0x27 d:/altera/12.1sp1b243/nios2eds/bin/gnu/h-i686-mingw32/bin/../lib/gcc/nios2-elf/4.1.2/../../../../nios2-elf/lib\libc.a(lib_a-fputs.o)
 .comment       0x00000000       0x27 d:/altera/12.1sp1b243/nios2eds/bin/gnu/h-i686-mingw32/bin/../lib/gcc/nios2-elf/4.1.2/../../../../nios2-elf/lib\libc.a(lib_a-fvwrite.o)
 .comment       0x00000000       0x27 d:/altera/12.1sp1b243/nios2eds/bin/gnu/h-i686-mingw32/bin/../lib/gcc/nios2-elf/4.1.2/../../../../nios2-elf/lib\libc.a(lib_a-isattyr.o)
 .comment       0x00000000       0x27 d:/altera/12.1sp1b243/nios2eds/bin/gnu/h-i686-mingw32/bin/../lib/gcc/nios2-elf/4.1.2/../../../../nios2-elf/lib\libc.a(lib_a-iswspace.o)
 .comment       0x00000000       0x27 d:/altera/12.1sp1b243/nios2eds/bin/gnu/h-i686-mingw32/bin/../lib/gcc/nios2-elf/4.1.2/../../../../nios2-elf/lib\libc.a(lib_a-locale.o)
 .comment       0x00000000       0x27 d:/altera/12.1sp1b243/nios2eds/bin/gnu/h-i686-mingw32/bin/../lib/gcc/nios2-elf/4.1.2/../../../../nios2-elf/lib\libc.a(lib_a-lseekr.o)
 .comment       0x00000000       0x27 d:/altera/12.1sp1b243/nios2eds/bin/gnu/h-i686-mingw32/bin/../lib/gcc/nios2-elf/4.1.2/../../../../nios2-elf/lib\libc.a(lib_a-mbrtowc.o)
 .comment       0x00000000       0x27 d:/altera/12.1sp1b243/nios2eds/bin/gnu/h-i686-mingw32/bin/../lib/gcc/nios2-elf/4.1.2/../../../../nios2-elf/lib\libc.a(lib_a-mbtowc_r.o)
 .comment       0x00000000       0x27 d:/altera/12.1sp1b243/nios2eds/bin/gnu/h-i686-mingw32/bin/../lib/gcc/nios2-elf/4.1.2/../../../../nios2-elf/lib\libc.a(lib_a-mprec.o)
 .comment       0x00000000       0x27 d:/altera/12.1sp1b243/nios2eds/bin/gnu/h-i686-mingw32/bin/../lib/gcc/nios2-elf/4.1.2/../../../../nios2-elf/lib\libc.a(lib_a-readr.o)
 .comment       0x00000000       0x27 d:/altera/12.1sp1b243/nios2eds/bin/gnu/h-i686-mingw32/bin/../lib/gcc/nios2-elf/4.1.2/../../../../nios2-elf/lib\libc.a(lib_a-reallocr.o)
 .comment       0x00000000       0x27 d:/altera/12.1sp1b243/nios2eds/bin/gnu/h-i686-mingw32/bin/../lib/gcc/nios2-elf/4.1.2/../../../../nios2-elf/lib\libc.a(lib_a-s_isinfd.o)
 .comment       0x00000000       0x27 d:/altera/12.1sp1b243/nios2eds/bin/gnu/h-i686-mingw32/bin/../lib/gcc/nios2-elf/4.1.2/../../../../nios2-elf/lib\libc.a(lib_a-s_isnand.o)
 .comment       0x00000000       0x27 d:/altera/12.1sp1b243/nios2eds/bin/gnu/h-i686-mingw32/bin/../lib/gcc/nios2-elf/4.1.2/../../../../nios2-elf/lib\libc.a(lib_a-sccl.o)
 .comment       0x00000000       0x27 d:/altera/12.1sp1b243/nios2eds/bin/gnu/h-i686-mingw32/bin/../lib/gcc/nios2-elf/4.1.2/../../../../nios2-elf/lib\libc.a(lib_a-sf_nan.o)
 .comment       0x00000000       0x27 d:/altera/12.1sp1b243/nios2eds/bin/gnu/h-i686-mingw32/bin/../lib/gcc/nios2-elf/4.1.2/../../../../nios2-elf/lib\libc.a(lib_a-strtod.o)
 .comment       0x00000000       0x27 d:/altera/12.1sp1b243/nios2eds/bin/gnu/h-i686-mingw32/bin/../lib/gcc/nios2-elf/4.1.2/../../../../nios2-elf/lib\libc.a(lib_a-strtoll_r.o)
 .comment       0x00000000       0x27 d:/altera/12.1sp1b243/nios2eds/bin/gnu/h-i686-mingw32/bin/../lib/gcc/nios2-elf/4.1.2/../../../../nios2-elf/lib\libc.a(lib_a-strtoul.o)
 .comment       0x00000000       0x27 d:/altera/12.1sp1b243/nios2eds/bin/gnu/h-i686-mingw32/bin/../lib/gcc/nios2-elf/4.1.2/../../../../nios2-elf/lib\libc.a(lib_a-strtoull_r.o)
 .comment       0x00000000       0x27 d:/altera/12.1sp1b243/nios2eds/bin/gnu/h-i686-mingw32/bin/../lib/gcc/nios2-elf/4.1.2/../../../../nios2-elf/lib\libc.a(lib_a-ungetc.o)
 .comment       0x00000000       0x27 d:/altera/12.1sp1b243/nios2eds/bin/gnu/h-i686-mingw32/bin/../lib/gcc/nios2-elf/4.1.2/../../../../nios2-elf/lib\libc.a(lib_a-gdtoa-gethex.o)
 .comment       0x00000000       0x27 d:/altera/12.1sp1b243/nios2eds/bin/gnu/h-i686-mingw32/bin/../lib/gcc/nios2-elf/4.1.2/../../../../nios2-elf/lib\libc.a(lib_a-gdtoa-hexnan.o)
 .comment       0x00000000       0x27 d:/altera/12.1sp1b243/nios2eds/bin/gnu/h-i686-mingw32/bin/../lib/gcc/nios2-elf/4.1.2\libgcc.a(_muldi3.o)
 .comment       0x00000000       0x27 d:/altera/12.1sp1b243/nios2eds/bin/gnu/h-i686-mingw32/bin/../lib/gcc/nios2-elf/4.1.2\libgcc.a(_fixunsdfsi.o)
 .comment       0x00000000       0x27 d:/altera/12.1sp1b243/nios2eds/bin/gnu/h-i686-mingw32/bin/../lib/gcc/nios2-elf/4.1.2\libgcc.a(_udivdi3.o)
 .comment       0x00000000       0x27 d:/altera/12.1sp1b243/nios2eds/bin/gnu/h-i686-mingw32/bin/../lib/gcc/nios2-elf/4.1.2\libgcc.a(_umoddi3.o)
 .comment       0x00000000       0x27 d:/altera/12.1sp1b243/nios2eds/bin/gnu/h-i686-mingw32/bin/../lib/gcc/nios2-elf/4.1.2\libgcc.a(_ne_sf.o)
 .comment       0x00000000       0x27 d:/altera/12.1sp1b243/nios2eds/bin/gnu/h-i686-mingw32/bin/../lib/gcc/nios2-elf/4.1.2\libgcc.a(_gt_sf.o)
 .comment       0x00000000       0x27 d:/altera/12.1sp1b243/nios2eds/bin/gnu/h-i686-mingw32/bin/../lib/gcc/nios2-elf/4.1.2\libgcc.a(_lt_sf.o)
 .comment       0x00000000       0x27 d:/altera/12.1sp1b243/nios2eds/bin/gnu/h-i686-mingw32/bin/../lib/gcc/nios2-elf/4.1.2\libgcc.a(_addsub_df.o)
 .comment       0x00000000       0x27 d:/altera/12.1sp1b243/nios2eds/bin/gnu/h-i686-mingw32/bin/../lib/gcc/nios2-elf/4.1.2\libgcc.a(_mul_df.o)
 .comment       0x00000000       0x27 d:/altera/12.1sp1b243/nios2eds/bin/gnu/h-i686-mingw32/bin/../lib/gcc/nios2-elf/4.1.2\libgcc.a(_div_df.o)
 .comment       0x00000000       0x27 d:/altera/12.1sp1b243/nios2eds/bin/gnu/h-i686-mingw32/bin/../lib/gcc/nios2-elf/4.1.2\libgcc.a(_eq_df.o)
 .comment       0x00000000       0x27 d:/altera/12.1sp1b243/nios2eds/bin/gnu/h-i686-mingw32/bin/../lib/gcc/nios2-elf/4.1.2\libgcc.a(_ne_df.o)
 .comment       0x00000000       0x27 d:/altera/12.1sp1b243/nios2eds/bin/gnu/h-i686-mingw32/bin/../lib/gcc/nios2-elf/4.1.2\libgcc.a(_gt_df.o)
 .comment       0x00000000       0x27 d:/altera/12.1sp1b243/nios2eds/bin/gnu/h-i686-mingw32/bin/../lib/gcc/nios2-elf/4.1.2\libgcc.a(_ge_df.o)
 .comment       0x00000000       0x27 d:/altera/12.1sp1b243/nios2eds/bin/gnu/h-i686-mingw32/bin/../lib/gcc/nios2-elf/4.1.2\libgcc.a(_lt_df.o)
 .comment       0x00000000       0x27 d:/altera/12.1sp1b243/nios2eds/bin/gnu/h-i686-mingw32/bin/../lib/gcc/nios2-elf/4.1.2\libgcc.a(_le_df.o)
 .comment       0x00000000       0x27 d:/altera/12.1sp1b243/nios2eds/bin/gnu/h-i686-mingw32/bin/../lib/gcc/nios2-elf/4.1.2\libgcc.a(_si_to_df.o)
 .comment       0x00000000       0x27 d:/altera/12.1sp1b243/nios2eds/bin/gnu/h-i686-mingw32/bin/../lib/gcc/nios2-elf/4.1.2\libgcc.a(_df_to_si.o)
 .comment       0x00000000       0x27 d:/altera/12.1sp1b243/nios2eds/bin/gnu/h-i686-mingw32/bin/../lib/gcc/nios2-elf/4.1.2\libgcc.a(_df_to_sf.o)
 .comment       0x00000000       0x27 d:/altera/12.1sp1b243/nios2eds/bin/gnu/h-i686-mingw32/bin/../lib/gcc/nios2-elf/4.1.2\libgcc.a(_thenan_df.o)
 .comment       0x00000000       0x27 d:/altera/12.1sp1b243/nios2eds/bin/gnu/h-i686-mingw32/bin/../lib/gcc/nios2-elf/4.1.2\libgcc.a(_usi_to_df.o)
 .comment       0x00000000       0x27 d:/altera/12.1sp1b243/nios2eds/bin/gnu/h-i686-mingw32/bin/../lib/gcc/nios2-elf/4.1.2\libgcc.a(_clz.o)
 .comment       0x00000000       0x27 d:/altera/12.1sp1b243/nios2eds/bin/gnu/h-i686-mingw32/bin/../lib/gcc/nios2-elf/4.1.2\libgcc.a(_clzsi2.o)
 .comment       0x00000000       0x27 d:/altera/12.1sp1b243/nios2eds/bin/gnu/h-i686-mingw32/bin/../lib/gcc/nios2-elf/4.1.2\libgcc.a(_unpack_sf.o)
 .comment       0x00000000       0x27 d:/altera/12.1sp1b243/nios2eds/bin/gnu/h-i686-mingw32/bin/../lib/gcc/nios2-elf/4.1.2\libgcc.a(_fpcmp_parts_sf.o)
 .comment       0x00000000       0x27 d:/altera/12.1sp1b243/nios2eds/bin/gnu/h-i686-mingw32/bin/../lib/gcc/nios2-elf/4.1.2\libgcc.a(_make_sf.o)
 .comment       0x00000000       0x27 d:/altera/12.1sp1b243/nios2eds/bin/gnu/h-i686-mingw32/bin/../lib/gcc/nios2-elf/4.1.2\libgcc.a(_pack_df.o)
 .comment       0x00000000       0x27 d:/altera/12.1sp1b243/nios2eds/bin/gnu/h-i686-mingw32/bin/../lib/gcc/nios2-elf/4.1.2\libgcc.a(_unpack_df.o)
 .comment       0x00000000       0x27 d:/altera/12.1sp1b243/nios2eds/bin/gnu/h-i686-mingw32/bin/../lib/gcc/nios2-elf/4.1.2\libgcc.a(_fpcmp_parts_df.o)
 .comment       0x00000000       0x27 d:/altera/12.1sp1b243/nios2eds/bin/gnu/h-i686-mingw32/bin/../lib/gcc/nios2-elf/4.1.2\libgcc.a(_pack_sf.o)
 .comment       0x00000000       0x27 ../../bsp/ucosii_net_rozipfs/\libucosii_bsp.a(alt_fstat.o)
 .comment       0x00000000       0x27 ../../bsp/ucosii_net_rozipfs/\libucosii_bsp.a(alt_isatty.o)
 .comment       0x00000000       0x27 ../../bsp/ucosii_net_rozipfs/\libucosii_bsp.a(alt_lseek.o)
 .comment       0x00000000       0x27 ../../bsp/ucosii_net_rozipfs/\libucosii_bsp.a(alt_main.o)
 .comment       0x00000000       0x27 ../../bsp/ucosii_net_rozipfs/\libucosii_bsp.a(alt_open.o)
 .comment       0x00000000       0x27 ../../bsp/ucosii_net_rozipfs/\libucosii_bsp.a(alt_release_fd.o)
 .comment       0x00000000       0x27 ../../bsp/ucosii_net_rozipfs/\libucosii_bsp.a(alt_sbrk.o)
 .comment       0x00000000       0x27 ../../bsp/ucosii_net_rozipfs/\libucosii_bsp.a(alt_tick.o)
 .comment       0x00000000       0x27 ../../bsp/ucosii_net_rozipfs/\libucosii_bsp.a(alt_usleep.o)
 .comment       0x00000000       0x27 ../../bsp/ucosii_net_rozipfs/\libucosii_bsp.a(alt_env_lock.o)
 .comment       0x00000000       0x27 ../../bsp/ucosii_net_rozipfs/\libucosii_bsp.a(alt_malloc_lock.o)
 .comment       0x00000000       0x27 ../../bsp/ucosii_net_rozipfs/\libucosii_bsp.a(os_core.o)
 .comment       0x00000000       0x27 ../../bsp/ucosii_net_rozipfs/\libucosii_bsp.a(os_dbg.o)
 .comment       0x00000000       0x27 ../../bsp/ucosii_net_rozipfs/\libucosii_bsp.a(os_flag.o)
 .comment       0x00000000       0x27 ../../bsp/ucosii_net_rozipfs/\libucosii_bsp.a(os_mbox.o)
 .comment       0x00000000       0x27 ../../bsp/ucosii_net_rozipfs/\libucosii_bsp.a(os_mem.o)
 .comment       0x00000000       0x27 ../../bsp/ucosii_net_rozipfs/\libucosii_bsp.a(os_q.o)
 .comment       0x00000000       0x27 ../../bsp/ucosii_net_rozipfs/\libucosii_bsp.a(os_sem.o)
 .comment       0x00000000       0x27 ../../bsp/ucosii_net_rozipfs/\libucosii_bsp.a(os_task.o)
 .comment       0x00000000       0x27 ../../bsp/ucosii_net_rozipfs/\libucosii_bsp.a(os_time.o)
 .comment       0x00000000       0x27 ../../bsp/ucosii_net_rozipfs/\libucosii_bsp.a(alt_sys_init.o)
 .comment       0x00000000       0x27 ../../bsp/ucosii_net_rozipfs/\libucosii_bsp.a(altera_avalon_cfi_flash.o)
 .comment       0x00000000       0x27 ../../bsp/ucosii_net_rozipfs/\libucosii_bsp.a(altera_avalon_cfi_flash_table.o)
 .comment       0x00000000       0x27 ../../bsp/ucosii_net_rozipfs/\libucosii_bsp.a(altera_avalon_jtag_uart_fd.o)
 .comment       0x00000000       0x27 ../../bsp/ucosii_net_rozipfs/\libucosii_bsp.a(altera_avalon_jtag_uart_init.o)
 .comment       0x00000000       0x27 ../../bsp/ucosii_net_rozipfs/\libucosii_bsp.a(altera_avalon_jtag_uart_ioctl.o)
 .comment       0x00000000       0x27 ../../bsp/ucosii_net_rozipfs/\libucosii_bsp.a(altera_avalon_jtag_uart_read.o)
 .comment       0x00000000       0x27 ../../bsp/ucosii_net_rozipfs/\libucosii_bsp.a(altera_avalon_jtag_uart_write.o)
 .comment       0x00000000       0x27 ../../bsp/ucosii_net_rozipfs/\libucosii_bsp.a(altera_avalon_lcd_16207.o)
 .comment       0x00000000       0x27 ../../bsp/ucosii_net_rozipfs/\libucosii_bsp.a(altera_avalon_lcd_16207_fd.o)
 .comment       0x00000000       0x27 ../../bsp/ucosii_net_rozipfs/\libucosii_bsp.a(altera_avalon_sgdma.o)
 .comment       0x00000000       0x27 ../../bsp/ucosii_net_rozipfs/\libucosii_bsp.a(altera_avalon_timer_sc.o)
 .comment       0x00000000       0x27 ../../bsp/ucosii_net_rozipfs/\libucosii_bsp.a(altera_avalon_tse.o)
 .comment       0x00000000       0x27 ../../bsp/ucosii_net_rozipfs/\libucosii_bsp.a(altera_ro_zipfs.o)
 .comment       0x00000000       0x27 ../../bsp/ucosii_net_rozipfs/\libucosii_bsp.a(ins_tse_mac.o)
 .comment       0x00000000       0x27 ../../bsp/ucosii_net_rozipfs/\libucosii_bsp.a(alt_iniche_close.o)
 .comment       0x00000000       0x27 ../../bsp/ucosii_net_rozipfs/\libucosii_bsp.a(alt_iniche_dev.o)
 .comment       0x00000000       0x27 ../../bsp/ucosii_net_rozipfs/\libucosii_bsp.a(alt_iniche_read.o)
 .comment       0x00000000       0x27 ../../bsp/ucosii_net_rozipfs/\libucosii_bsp.a(alt_iniche_write.o)
 .comment       0x00000000       0x27 ../../bsp/ucosii_net_rozipfs/\libucosii_bsp.a(ipnet.o)
 .comment       0x00000000       0x27 ../../bsp/ucosii_net_rozipfs/\libucosii_bsp.a(ipstart.o)
 .comment       0x00000000       0x27 ../../bsp/ucosii_net_rozipfs/\libucosii_bsp.a(igmp_cmn.o)
 .comment       0x00000000       0x27 ../../bsp/ucosii_net_rozipfs/\libucosii_bsp.a(bsdsock.o)
 .comment       0x00000000       0x27 ../../bsp/ucosii_net_rozipfs/\libucosii_bsp.a(cksum.o)
 .comment       0x00000000       0x27 ../../bsp/ucosii_net_rozipfs/\libucosii_bsp.a(in_utils.o)
 .comment       0x00000000       0x27 ../../bsp/ucosii_net_rozipfs/\libucosii_bsp.a(netmain.o)
 .comment       0x00000000       0x27 ../../bsp/ucosii_net_rozipfs/\libucosii_bsp.a(tk_crnos.o)
 .comment       0x00000000       0x27 ../../bsp/ucosii_net_rozipfs/\libucosii_bsp.a(dhcpclnt.o)
 .comment       0x00000000       0x27 ../../bsp/ucosii_net_rozipfs/\libucosii_bsp.a(dhcputil.o)
 .comment       0x00000000       0x27 ../../bsp/ucosii_net_rozipfs/\libucosii_bsp.a(pktalloc.o)
 .comment       0x00000000       0x27 ../../bsp/ucosii_net_rozipfs/\libucosii_bsp.a(q.o)
 .comment       0x00000000       0x27 ../../bsp/ucosii_net_rozipfs/\libucosii_bsp.a(udp_open.o)
 .comment       0x00000000       0x27 ../../bsp/ucosii_net_rozipfs/\libucosii_bsp.a(brdutils.o)
 .comment       0x00000000       0x27 ../../bsp/ucosii_net_rozipfs/\libucosii_bsp.a(osportco.o)
 .comment       0x00000000       0x27 ../../bsp/ucosii_net_rozipfs/\libucosii_bsp.a(targnios.o)
 .comment       0x00000000       0x27 ../../bsp/ucosii_net_rozipfs/\libucosii_bsp.a(nptcp.o)
 .comment       0x00000000       0x27 ../../bsp/ucosii_net_rozipfs/\libucosii_bsp.a(rawsock.o)
 .comment       0x00000000       0x27 ../../bsp/ucosii_net_rozipfs/\libucosii_bsp.a(sockcall.o)
 .comment       0x00000000       0x27 ../../bsp/ucosii_net_rozipfs/\libucosii_bsp.a(socket.o)
 .comment       0x00000000       0x27 ../../bsp/ucosii_net_rozipfs/\libucosii_bsp.a(socket2.o)
 .comment       0x00000000       0x27 ../../bsp/ucosii_net_rozipfs/\libucosii_bsp.a(soselect.o)
 .comment       0x00000000       0x27 ../../bsp/ucosii_net_rozipfs/\libucosii_bsp.a(tcp_in.o)
 .comment       0x00000000       0x27 ../../bsp/ucosii_net_rozipfs/\libucosii_bsp.a(tcp_out.o)
 .comment       0x00000000       0x27 ../../bsp/ucosii_net_rozipfs/\libucosii_bsp.a(tcp_subr.o)
 .comment       0x00000000       0x27 ../../bsp/ucosii_net_rozipfs/\libucosii_bsp.a(tcp_timr.o)
 .comment       0x00000000       0x27 ../../bsp/ucosii_net_rozipfs/\libucosii_bsp.a(tcp_usr.o)
 .comment       0x00000000       0x27 ../../bsp/ucosii_net_rozipfs/\libucosii_bsp.a(tcpport.o)
 .comment       0x00000000       0x27 ../../bsp/ucosii_net_rozipfs/\libucosii_bsp.a(udpsock.o)
 .comment       0x00000000       0x27 ../../bsp/ucosii_net_rozipfs/\libucosii_bsp.a(alt_alarm_start.o)
 .comment       0x00000000       0x27 ../../bsp/ucosii_net_rozipfs/\libucosii_bsp.a(alt_busy_sleep.o)
 .comment       0x00000000       0x27 ../../bsp/ucosii_net_rozipfs/\libucosii_bsp.a(alt_close.o)
 .comment       0x00000000       0x27 ../../bsp/ucosii_net_rozipfs/\libucosii_bsp.a(alt_dcache_flush.o)
 .comment       0x00000000       0x27 ../../bsp/ucosii_net_rozipfs/\libucosii_bsp.a(alt_dev.o)
 .comment       0x00000000       0x27 ../../bsp/ucosii_net_rozipfs/\libucosii_bsp.a(alt_dev_llist_insert.o)
 .comment       0x00000000       0x27 ../../bsp/ucosii_net_rozipfs/\libucosii_bsp.a(alt_do_ctors.o)
 .comment       0x00000000       0x27 ../../bsp/ucosii_net_rozipfs/\libucosii_bsp.a(alt_do_dtors.o)
 .comment       0x00000000       0x27 ../../bsp/ucosii_net_rozipfs/\libucosii_bsp.a(alt_errno.o)
 .comment       0x00000000       0x27 ../../bsp/ucosii_net_rozipfs/\libucosii_bsp.a(alt_find_dev.o)
 .comment       0x00000000       0x27 ../../bsp/ucosii_net_rozipfs/\libucosii_bsp.a(alt_find_file.o)
 .comment       0x00000000       0x27 ../../bsp/ucosii_net_rozipfs/\libucosii_bsp.a(alt_flash_dev.o)
 .comment       0x00000000       0x27 ../../bsp/ucosii_net_rozipfs/\libucosii_bsp.a(alt_fs_reg.o)
 .comment       0x00000000       0x27 ../../bsp/ucosii_net_rozipfs/\libucosii_bsp.a(alt_get_fd.o)
 .comment       0x00000000       0x27 ../../bsp/ucosii_net_rozipfs/\libucosii_bsp.a(alt_iic.o)
 .comment       0x00000000       0x27 ../../bsp/ucosii_net_rozipfs/\libucosii_bsp.a(alt_iic_isr_register.o)
 .comment       0x00000000       0x27 ../../bsp/ucosii_net_rozipfs/\libucosii_bsp.a(alt_io_redirect.o)
 .comment       0x00000000       0x27 ../../bsp/ucosii_net_rozipfs/\libucosii_bsp.a(alt_irq_handler.o)
 .comment       0x00000000       0x27 ../../bsp/ucosii_net_rozipfs/\libucosii_bsp.a(alt_irq_vars.o)
 .comment       0x00000000       0x27 ../../bsp/ucosii_net_rozipfs/\libucosii_bsp.a(alt_read.o)
 .comment       0x00000000       0x27 ../../bsp/ucosii_net_rozipfs/\libucosii_bsp.a(alt_remap_cached.o)
 .comment       0x00000000       0x27 ../../bsp/ucosii_net_rozipfs/\libucosii_bsp.a(alt_remap_uncached.o)
 .comment       0x00000000       0x27 ../../bsp/ucosii_net_rozipfs/\libucosii_bsp.a(alt_uncached_malloc.o)
 .comment       0x00000000       0x27 ../../bsp/ucosii_net_rozipfs/\libucosii_bsp.a(alt_write.o)
 .comment       0x00000000       0x27 ../../bsp/ucosii_net_rozipfs/\libucosii_bsp.a(altera_nios2_qsys_irq.o)
 .comment       0x00000000       0x27 ../../bsp/ucosii_net_rozipfs/\libucosii_bsp.a(os_cpu_c.o)
 .comment       0x00000000       0x27 ../../bsp/ucosii_net_rozipfs/\libucosii_bsp.a(altera_avalon_cfi_flash_amd.o)
 .comment       0x00000000       0x27 ../../bsp/ucosii_net_rozipfs/\libucosii_bsp.a(altera_avalon_cfi_flash_intel.o)
 .comment       0x00000000       0x27 ../../bsp/ucosii_net_rozipfs/\libucosii_bsp.a(allports.o)
 .comment       0x00000000       0x27 ../../bsp/ucosii_net_rozipfs/\libucosii_bsp.a(timeouts.o)
 .comment       0x00000000       0x27 ../../bsp/ucosii_net_rozipfs/\libucosii_bsp.a(tk_misc.o)
 .comment       0x00000000       0x27 ../../bsp/ucosii_net_rozipfs/\libucosii_bsp.a(alt_iniche_fcntl.o)
 .comment       0x00000000       0x27 ../../bsp/ucosii_net_rozipfs/\libucosii_bsp.a(et_arp.o)
 .comment       0x00000000       0x27 ../../bsp/ucosii_net_rozipfs/\libucosii_bsp.a(iface.o)
 .comment       0x00000000       0x27 ../../bsp/ucosii_net_rozipfs/\libucosii_bsp.a(ip.o)
 .comment       0x00000000       0x27 ../../bsp/ucosii_net_rozipfs/\libucosii_bsp.a(ip_reasm.o)
 .comment       0x00000000       0x27 ../../bsp/ucosii_net_rozipfs/\libucosii_bsp.a(ipdemux.o)
 .comment       0x00000000       0x27 ../../bsp/ucosii_net_rozipfs/\libucosii_bsp.a(ipmc.o)
 .comment       0x00000000       0x27 ../../bsp/ucosii_net_rozipfs/\libucosii_bsp.a(ipport.o)
 .comment       0x00000000       0x27 ../../bsp/ucosii_net_rozipfs/\libucosii_bsp.a(ipraw.o)
 .comment       0x00000000       0x27 ../../bsp/ucosii_net_rozipfs/\libucosii_bsp.a(iproute.o)
 .comment       0x00000000       0x27 ../../bsp/ucosii_net_rozipfs/\libucosii_bsp.a(udp.o)
 .comment       0x00000000       0x27 ../../bsp/ucosii_net_rozipfs/\libucosii_bsp.a(igmp.o)
 .comment       0x00000000       0x27 ../../bsp/ucosii_net_rozipfs/\libucosii_bsp.a(igmp2.o)
 .comment       0x00000000       0x27 ../../bsp/ucosii_net_rozipfs/\libucosii_bsp.a(ipopt.o)
 .comment       0x00000000       0x27 ../../bsp/ucosii_net_rozipfs/\libucosii_bsp.a(u_mctest.o)
 .comment       0x00000000       0x27 ../../bsp/ucosii_net_rozipfs/\libucosii_bsp.a(dhcsetup.o)
 .comment       0x00000000       0x27 ../../bsp/ucosii_net_rozipfs/\libucosii_bsp.a(memdev.o)
 .comment       0x00000000       0x27 ../../bsp/ucosii_net_rozipfs/\libucosii_bsp.a(parseip.o)
 .comment       0x00000000       0x27 ../../bsp/ucosii_net_rozipfs/\libucosii_bsp.a(tcpcksum.o)
 .comment       0x00000000       0x27 ../../bsp/ucosii_net_rozipfs/\libucosii_bsp.a(in_pcb.o)
 .comment       0x00000000       0x27 ../../bsp/ucosii_net_rozipfs/\libucosii_bsp.a(vfsfiles.o)
 .comment       0x00000000       0x27 ../../bsp/ucosii_net_rozipfs/\libucosii_bsp.a(vfsport.o)
 .comment       0x00000000       0x27 ../../bsp/ucosii_net_rozipfs/\libucosii_bsp.a(alt_fcntl.o)
 .comment       0x00000000       0x27 ../../bsp/ucosii_net_rozipfs/\libucosii_bsp.a(icmp.o)
 .comment       0x00000000       0x27 d:/altera/12.1sp1b243/nios2eds/bin/gnu/h-i686-mingw32/bin/../lib/gcc/nios2-elf/4.1.2/../../../../nios2-elf/lib\libc.a(lib_a-atexit.o)
 .comment       0x00000000       0x27 d:/altera/12.1sp1b243/nios2eds/bin/gnu/h-i686-mingw32/bin/../lib/gcc/nios2-elf/4.1.2/../../../../nios2-elf/lib\libc.a(lib_a-exit.o)
 .comment       0x00000000       0x27 d:/altera/12.1sp1b243/nios2eds/bin/gnu/h-i686-mingw32/bin/../lib/gcc/nios2-elf/4.1.2/../../../../nios2-elf/lib\libc.a(lib_a-vprintf.o)
 .comment       0x00000000       0x27 d:/altera/12.1sp1b243/nios2eds/bin/gnu/h-i686-mingw32/bin/../lib/gcc/nios2-elf/4.1.2/../../../../nios2-elf/lib\libc.a(lib_a-__atexit.o)
 .comment       0x00000000       0x27 d:/altera/12.1sp1b243/nios2eds/bin/gnu/h-i686-mingw32/bin/../lib/gcc/nios2-elf/4.1.2/../../../../nios2-elf/lib\libc.a(lib_a-__call_atexit.o)
 .comment       0x00000000       0x27 ../../bsp/ucosii_net_rozipfs/\libucosii_bsp.a(alt_exit.o)

.debug
 *(.debug)

.line
 *(.line)

.debug_srcinfo
 *(.debug_srcinfo)

.debug_sfnames
 *(.debug_sfnames)

.debug_aranges  0x00000000     0x1ef0
 *(.debug_aranges)
 .debug_aranges
                0x00000000       0x20 ../../bsp/ucosii_net_rozipfs//obj/HAL/src/crt0.o
 .debug_aranges
                0x00000020       0x20 obj/default/src/flash_intel_p30/flash_intel_p30.o
 .debug_aranges
                0x00000040       0x20 obj/default/src/main.o
 .debug_aranges
                0x00000060       0x20 obj/default/src/os_utils.o
 .debug_aranges
                0x00000080       0x20 obj/default/src/reconfig_utils.o
 .debug_aranges
                0x000000a0       0x20 obj/default/src/srec/srec.o
 .debug_aranges
                0x000000c0       0x20 obj/default/src/webserver.o
 .debug_aranges
                0x000000e0       0x20 d:/altera/12.1sp1b243/nios2eds/bin/gnu/h-i686-mingw32/bin/../lib/gcc/nios2-elf/4.1.2\libgcc.a(lib2-divmod.o)
 .debug_aranges
                0x00000100       0x20 d:/altera/12.1sp1b243/nios2eds/bin/gnu/h-i686-mingw32/bin/../lib/gcc/nios2-elf/4.1.2/../../../../nios2-elf/lib\libc.a(lib_a-atoi.o)
 .debug_aranges
                0x00000120       0x20 d:/altera/12.1sp1b243/nios2eds/bin/gnu/h-i686-mingw32/bin/../lib/gcc/nios2-elf/4.1.2/../../../../nios2-elf/lib\libc.a(lib_a-calloc.o)
 .debug_aranges
                0x00000140       0x20 d:/altera/12.1sp1b243/nios2eds/bin/gnu/h-i686-mingw32/bin/../lib/gcc/nios2-elf/4.1.2/../../../../nios2-elf/lib\libc.a(lib_a-callocr.o)
 .debug_aranges
                0x00000160       0x20 d:/altera/12.1sp1b243/nios2eds/bin/gnu/h-i686-mingw32/bin/../lib/gcc/nios2-elf/4.1.2/../../../../nios2-elf/lib\libc.a(lib_a-fclose.o)
 .debug_aranges
                0x00000180       0x20 d:/altera/12.1sp1b243/nios2eds/bin/gnu/h-i686-mingw32/bin/../lib/gcc/nios2-elf/4.1.2/../../../../nios2-elf/lib\libc.a(lib_a-fflush.o)
 .debug_aranges
                0x000001a0       0x20 d:/altera/12.1sp1b243/nios2eds/bin/gnu/h-i686-mingw32/bin/../lib/gcc/nios2-elf/4.1.2/../../../../nios2-elf/lib\libc.a(lib_a-fgetpos.o)
 .debug_aranges
                0x000001c0       0x20 d:/altera/12.1sp1b243/nios2eds/bin/gnu/h-i686-mingw32/bin/../lib/gcc/nios2-elf/4.1.2/../../../../nios2-elf/lib\libc.a(lib_a-findfp.o)
 .debug_aranges
                0x000001e0       0x20 d:/altera/12.1sp1b243/nios2eds/bin/gnu/h-i686-mingw32/bin/../lib/gcc/nios2-elf/4.1.2/../../../../nios2-elf/lib\libc.a(lib_a-fopen.o)
 .debug_aranges
                0x00000200       0x20 d:/altera/12.1sp1b243/nios2eds/bin/gnu/h-i686-mingw32/bin/../lib/gcc/nios2-elf/4.1.2/../../../../nios2-elf/lib\libc.a(lib_a-fread.o)
 .debug_aranges
                0x00000220       0x20 d:/altera/12.1sp1b243/nios2eds/bin/gnu/h-i686-mingw32/bin/../lib/gcc/nios2-elf/4.1.2/../../../../nios2-elf/lib\libc.a(lib_a-freer.o)
 .debug_aranges
                0x00000240       0x20 d:/altera/12.1sp1b243/nios2eds/bin/gnu/h-i686-mingw32/bin/../lib/gcc/nios2-elf/4.1.2/../../../../nios2-elf/lib\libc.a(lib_a-fseek.o)
 .debug_aranges
                0x00000260       0x20 d:/altera/12.1sp1b243/nios2eds/bin/gnu/h-i686-mingw32/bin/../lib/gcc/nios2-elf/4.1.2/../../../../nios2-elf/lib\libc.a(lib_a-fstatr.o)
 .debug_aranges
                0x00000280       0x20 d:/altera/12.1sp1b243/nios2eds/bin/gnu/h-i686-mingw32/bin/../lib/gcc/nios2-elf/4.1.2/../../../../nios2-elf/lib\libc.a(lib_a-ftell.o)
 .debug_aranges
                0x000002a0       0x20 d:/altera/12.1sp1b243/nios2eds/bin/gnu/h-i686-mingw32/bin/../lib/gcc/nios2-elf/4.1.2/../../../../nios2-elf/lib\libc.a(lib_a-fwalk.o)
 .debug_aranges
                0x000002c0       0x20 d:/altera/12.1sp1b243/nios2eds/bin/gnu/h-i686-mingw32/bin/../lib/gcc/nios2-elf/4.1.2/../../../../nios2-elf/lib\libc.a(lib_a-fwrite.o)
 .debug_aranges
                0x000002e0       0x20 d:/altera/12.1sp1b243/nios2eds/bin/gnu/h-i686-mingw32/bin/../lib/gcc/nios2-elf/4.1.2/../../../../nios2-elf/lib\libc.a(lib_a-getc.o)
 .debug_aranges
                0x00000300       0x20 d:/altera/12.1sp1b243/nios2eds/bin/gnu/h-i686-mingw32/bin/../lib/gcc/nios2-elf/4.1.2/../../../../nios2-elf/lib\libc.a(lib_a-makebuf.o)
 .debug_aranges
                0x00000320       0x20 d:/altera/12.1sp1b243/nios2eds/bin/gnu/h-i686-mingw32/bin/../lib/gcc/nios2-elf/4.1.2/../../../../nios2-elf/lib\libc.a(lib_a-malloc.o)
 .debug_aranges
                0x00000340       0x20 d:/altera/12.1sp1b243/nios2eds/bin/gnu/h-i686-mingw32/bin/../lib/gcc/nios2-elf/4.1.2/../../../../nios2-elf/lib\libc.a(lib_a-mallocr.o)
 .debug_aranges
                0x00000360       0x20 d:/altera/12.1sp1b243/nios2eds/bin/gnu/h-i686-mingw32/bin/../lib/gcc/nios2-elf/4.1.2/../../../../nios2-elf/lib\libc.a(lib_a-memchr.o)
 .debug_aranges
                0x00000380       0x20 d:/altera/12.1sp1b243/nios2eds/bin/gnu/h-i686-mingw32/bin/../lib/gcc/nios2-elf/4.1.2/../../../../nios2-elf/lib\libc.a(lib_a-memcmp.o)
 .debug_aranges
                0x000003a0       0x20 d:/altera/12.1sp1b243/nios2eds/bin/gnu/h-i686-mingw32/bin/../lib/gcc/nios2-elf/4.1.2/../../../../nios2-elf/lib\libc.a(lib_a-memcpy.o)
 .debug_aranges
                0x000003c0       0x20 d:/altera/12.1sp1b243/nios2eds/bin/gnu/h-i686-mingw32/bin/../lib/gcc/nios2-elf/4.1.2/../../../../nios2-elf/lib\libc.a(lib_a-memmove.o)
 .debug_aranges
                0x000003e0       0x20 d:/altera/12.1sp1b243/nios2eds/bin/gnu/h-i686-mingw32/bin/../lib/gcc/nios2-elf/4.1.2/../../../../nios2-elf/lib\libc.a(lib_a-memset.o)
 .debug_aranges
                0x00000400       0x20 d:/altera/12.1sp1b243/nios2eds/bin/gnu/h-i686-mingw32/bin/../lib/gcc/nios2-elf/4.1.2/../../../../nios2-elf/lib\libc.a(lib_a-openr.o)
 .debug_aranges
                0x00000420       0x20 d:/altera/12.1sp1b243/nios2eds/bin/gnu/h-i686-mingw32/bin/../lib/gcc/nios2-elf/4.1.2/../../../../nios2-elf/lib\libc.a(lib_a-perror.o)
 .debug_aranges
                0x00000440       0x20 d:/altera/12.1sp1b243/nios2eds/bin/gnu/h-i686-mingw32/bin/../lib/gcc/nios2-elf/4.1.2/../../../../nios2-elf/lib\libc.a(lib_a-putc.o)
 .debug_aranges
                0x00000460       0x20 d:/altera/12.1sp1b243/nios2eds/bin/gnu/h-i686-mingw32/bin/../lib/gcc/nios2-elf/4.1.2/../../../../nios2-elf/lib\libc.a(lib_a-puts.o)
 .debug_aranges
                0x00000480       0x20 d:/altera/12.1sp1b243/nios2eds/bin/gnu/h-i686-mingw32/bin/../lib/gcc/nios2-elf/4.1.2/../../../../nios2-elf/lib\libc.a(lib_a-refill.o)
 .debug_aranges
                0x000004a0       0x20 d:/altera/12.1sp1b243/nios2eds/bin/gnu/h-i686-mingw32/bin/../lib/gcc/nios2-elf/4.1.2/../../../../nios2-elf/lib\libc.a(lib_a-rget.o)
 .debug_aranges
                0x000004c0       0x20 d:/altera/12.1sp1b243/nios2eds/bin/gnu/h-i686-mingw32/bin/../lib/gcc/nios2-elf/4.1.2/../../../../nios2-elf/lib\libc.a(lib_a-sbrkr.o)
 .debug_aranges
                0x000004e0       0x20 d:/altera/12.1sp1b243/nios2eds/bin/gnu/h-i686-mingw32/bin/../lib/gcc/nios2-elf/4.1.2/../../../../nios2-elf/lib\libc.a(lib_a-sprintf.o)
 .debug_aranges
                0x00000500       0x20 d:/altera/12.1sp1b243/nios2eds/bin/gnu/h-i686-mingw32/bin/../lib/gcc/nios2-elf/4.1.2/../../../../nios2-elf/lib\libc.a(lib_a-sscanf.o)
 .debug_aranges
                0x00000520       0x20 d:/altera/12.1sp1b243/nios2eds/bin/gnu/h-i686-mingw32/bin/../lib/gcc/nios2-elf/4.1.2/../../../../nios2-elf/lib\libc.a(lib_a-stdio.o)
 .debug_aranges
                0x00000540       0x20 d:/altera/12.1sp1b243/nios2eds/bin/gnu/h-i686-mingw32/bin/../lib/gcc/nios2-elf/4.1.2/../../../../nios2-elf/lib\libc.a(lib_a-strcasecmp.o)
 .debug_aranges
                0x00000560       0x20 d:/altera/12.1sp1b243/nios2eds/bin/gnu/h-i686-mingw32/bin/../lib/gcc/nios2-elf/4.1.2/../../../../nios2-elf/lib\libc.a(lib_a-strchr.o)
 .debug_aranges
                0x00000580       0x20 d:/altera/12.1sp1b243/nios2eds/bin/gnu/h-i686-mingw32/bin/../lib/gcc/nios2-elf/4.1.2/../../../../nios2-elf/lib\libc.a(lib_a-strcmp.o)
 .debug_aranges
                0x000005a0       0x20 d:/altera/12.1sp1b243/nios2eds/bin/gnu/h-i686-mingw32/bin/../lib/gcc/nios2-elf/4.1.2/../../../../nios2-elf/lib\libc.a(lib_a-strcpy.o)
 .debug_aranges
                0x000005c0       0x20 d:/altera/12.1sp1b243/nios2eds/bin/gnu/h-i686-mingw32/bin/../lib/gcc/nios2-elf/4.1.2/../../../../nios2-elf/lib\libc.a(lib_a-strerror.o)
 .debug_aranges
                0x000005e0       0x20 d:/altera/12.1sp1b243/nios2eds/bin/gnu/h-i686-mingw32/bin/../lib/gcc/nios2-elf/4.1.2/../../../../nios2-elf/lib\libc.a(lib_a-strlen.o)
 .debug_aranges
                0x00000600       0x20 d:/altera/12.1sp1b243/nios2eds/bin/gnu/h-i686-mingw32/bin/../lib/gcc/nios2-elf/4.1.2/../../../../nios2-elf/lib\libc.a(lib_a-strncmp.o)
 .debug_aranges
                0x00000620       0x20 d:/altera/12.1sp1b243/nios2eds/bin/gnu/h-i686-mingw32/bin/../lib/gcc/nios2-elf/4.1.2/../../../../nios2-elf/lib\libc.a(lib_a-strncpy.o)
 .debug_aranges
                0x00000640       0x20 d:/altera/12.1sp1b243/nios2eds/bin/gnu/h-i686-mingw32/bin/../lib/gcc/nios2-elf/4.1.2/../../../../nios2-elf/lib\libc.a(lib_a-strstr.o)
 .debug_aranges
                0x00000660       0x20 d:/altera/12.1sp1b243/nios2eds/bin/gnu/h-i686-mingw32/bin/../lib/gcc/nios2-elf/4.1.2/../../../../nios2-elf/lib\libc.a(lib_a-strtok.o)
 .debug_aranges
                0x00000680       0x20 d:/altera/12.1sp1b243/nios2eds/bin/gnu/h-i686-mingw32/bin/../lib/gcc/nios2-elf/4.1.2/../../../../nios2-elf/lib\libc.a(lib_a-strtok_r.o)
 .debug_aranges
                0x000006a0       0x20 d:/altera/12.1sp1b243/nios2eds/bin/gnu/h-i686-mingw32/bin/../lib/gcc/nios2-elf/4.1.2/../../../../nios2-elf/lib\libc.a(lib_a-strtol.o)
 .debug_aranges
                0x000006c0       0x20 d:/altera/12.1sp1b243/nios2eds/bin/gnu/h-i686-mingw32/bin/../lib/gcc/nios2-elf/4.1.2/../../../../nios2-elf/lib\libc.a(lib_a-u_strerr.o)
 .debug_aranges
                0x000006e0       0x20 d:/altera/12.1sp1b243/nios2eds/bin/gnu/h-i686-mingw32/bin/../lib/gcc/nios2-elf/4.1.2/../../../../nios2-elf/lib\libc.a(lib_a-vfprintf.o)
 .debug_aranges
                0x00000700       0x20 d:/altera/12.1sp1b243/nios2eds/bin/gnu/h-i686-mingw32/bin/../lib/gcc/nios2-elf/4.1.2/../../../../nios2-elf/lib\libc.a(lib_a-vfscanf.o)
 .debug_aranges
                0x00000720       0x20 d:/altera/12.1sp1b243/nios2eds/bin/gnu/h-i686-mingw32/bin/../lib/gcc/nios2-elf/4.1.2/../../../../nios2-elf/lib\libc.a(lib_a-vsprintf.o)
 .debug_aranges
                0x00000740       0x20 d:/altera/12.1sp1b243/nios2eds/bin/gnu/h-i686-mingw32/bin/../lib/gcc/nios2-elf/4.1.2/../../../../nios2-elf/lib\libc.a(lib_a-wbuf.o)
 .debug_aranges
                0x00000760       0x20 d:/altera/12.1sp1b243/nios2eds/bin/gnu/h-i686-mingw32/bin/../lib/gcc/nios2-elf/4.1.2/../../../../nios2-elf/lib\libc.a(lib_a-writer.o)
 .debug_aranges
                0x00000780       0x20 d:/altera/12.1sp1b243/nios2eds/bin/gnu/h-i686-mingw32/bin/../lib/gcc/nios2-elf/4.1.2/../../../../nios2-elf/lib\libc.a(lib_a-wsetup.o)
 .debug_aranges
                0x000007a0       0x20 d:/altera/12.1sp1b243/nios2eds/bin/gnu/h-i686-mingw32/bin/../lib/gcc/nios2-elf/4.1.2/../../../../nios2-elf/lib\libc.a(lib_a-closer.o)
 .debug_aranges
                0x000007c0       0x20 d:/altera/12.1sp1b243/nios2eds/bin/gnu/h-i686-mingw32/bin/../lib/gcc/nios2-elf/4.1.2/../../../../nios2-elf/lib\libc.a(lib_a-dtoa.o)
 .debug_aranges
                0x000007e0       0x20 d:/altera/12.1sp1b243/nios2eds/bin/gnu/h-i686-mingw32/bin/../lib/gcc/nios2-elf/4.1.2/../../../../nios2-elf/lib\libc.a(lib_a-flags.o)
 .debug_aranges
                0x00000800       0x20 d:/altera/12.1sp1b243/nios2eds/bin/gnu/h-i686-mingw32/bin/../lib/gcc/nios2-elf/4.1.2/../../../../nios2-elf/lib\libc.a(lib_a-fputc.o)
 .debug_aranges
                0x00000820       0x20 d:/altera/12.1sp1b243/nios2eds/bin/gnu/h-i686-mingw32/bin/../lib/gcc/nios2-elf/4.1.2/../../../../nios2-elf/lib\libc.a(lib_a-fputs.o)
 .debug_aranges
                0x00000840       0x20 d:/altera/12.1sp1b243/nios2eds/bin/gnu/h-i686-mingw32/bin/../lib/gcc/nios2-elf/4.1.2/../../../../nios2-elf/lib\libc.a(lib_a-fvwrite.o)
 .debug_aranges
                0x00000860       0x20 d:/altera/12.1sp1b243/nios2eds/bin/gnu/h-i686-mingw32/bin/../lib/gcc/nios2-elf/4.1.2/../../../../nios2-elf/lib\libc.a(lib_a-isattyr.o)
 .debug_aranges
                0x00000880       0x20 d:/altera/12.1sp1b243/nios2eds/bin/gnu/h-i686-mingw32/bin/../lib/gcc/nios2-elf/4.1.2/../../../../nios2-elf/lib\libc.a(lib_a-iswspace.o)
 .debug_aranges
                0x000008a0       0x20 d:/altera/12.1sp1b243/nios2eds/bin/gnu/h-i686-mingw32/bin/../lib/gcc/nios2-elf/4.1.2/../../../../nios2-elf/lib\libc.a(lib_a-locale.o)
 .debug_aranges
                0x000008c0       0x20 d:/altera/12.1sp1b243/nios2eds/bin/gnu/h-i686-mingw32/bin/../lib/gcc/nios2-elf/4.1.2/../../../../nios2-elf/lib\libc.a(lib_a-lseekr.o)
 .debug_aranges
                0x000008e0       0x20 d:/altera/12.1sp1b243/nios2eds/bin/gnu/h-i686-mingw32/bin/../lib/gcc/nios2-elf/4.1.2/../../../../nios2-elf/lib\libc.a(lib_a-mbrtowc.o)
 .debug_aranges
                0x00000900       0x20 d:/altera/12.1sp1b243/nios2eds/bin/gnu/h-i686-mingw32/bin/../lib/gcc/nios2-elf/4.1.2/../../../../nios2-elf/lib\libc.a(lib_a-mbtowc_r.o)
 .debug_aranges
                0x00000920       0x20 d:/altera/12.1sp1b243/nios2eds/bin/gnu/h-i686-mingw32/bin/../lib/gcc/nios2-elf/4.1.2/../../../../nios2-elf/lib\libc.a(lib_a-mprec.o)
 .debug_aranges
                0x00000940       0x20 d:/altera/12.1sp1b243/nios2eds/bin/gnu/h-i686-mingw32/bin/../lib/gcc/nios2-elf/4.1.2/../../../../nios2-elf/lib\libc.a(lib_a-readr.o)
 .debug_aranges
                0x00000960       0x20 d:/altera/12.1sp1b243/nios2eds/bin/gnu/h-i686-mingw32/bin/../lib/gcc/nios2-elf/4.1.2/../../../../nios2-elf/lib\libc.a(lib_a-reallocr.o)
 .debug_aranges
                0x00000980       0x20 d:/altera/12.1sp1b243/nios2eds/bin/gnu/h-i686-mingw32/bin/../lib/gcc/nios2-elf/4.1.2/../../../../nios2-elf/lib\libc.a(lib_a-s_isinfd.o)
 .debug_aranges
                0x000009a0       0x20 d:/altera/12.1sp1b243/nios2eds/bin/gnu/h-i686-mingw32/bin/../lib/gcc/nios2-elf/4.1.2/../../../../nios2-elf/lib\libc.a(lib_a-s_isnand.o)
 .debug_aranges
                0x000009c0       0x20 d:/altera/12.1sp1b243/nios2eds/bin/gnu/h-i686-mingw32/bin/../lib/gcc/nios2-elf/4.1.2/../../../../nios2-elf/lib\libc.a(lib_a-sccl.o)
 .debug_aranges
                0x000009e0       0x20 d:/altera/12.1sp1b243/nios2eds/bin/gnu/h-i686-mingw32/bin/../lib/gcc/nios2-elf/4.1.2/../../../../nios2-elf/lib\libc.a(lib_a-sf_nan.o)
 .debug_aranges
                0x00000a00       0x20 d:/altera/12.1sp1b243/nios2eds/bin/gnu/h-i686-mingw32/bin/../lib/gcc/nios2-elf/4.1.2/../../../../nios2-elf/lib\libc.a(lib_a-strtod.o)
 .debug_aranges
                0x00000a20       0x20 d:/altera/12.1sp1b243/nios2eds/bin/gnu/h-i686-mingw32/bin/../lib/gcc/nios2-elf/4.1.2/../../../../nios2-elf/lib\libc.a(lib_a-strtoll_r.o)
 .debug_aranges
                0x00000a40       0x20 d:/altera/12.1sp1b243/nios2eds/bin/gnu/h-i686-mingw32/bin/../lib/gcc/nios2-elf/4.1.2/../../../../nios2-elf/lib\libc.a(lib_a-strtoul.o)
 .debug_aranges
                0x00000a60       0x20 d:/altera/12.1sp1b243/nios2eds/bin/gnu/h-i686-mingw32/bin/../lib/gcc/nios2-elf/4.1.2/../../../../nios2-elf/lib\libc.a(lib_a-strtoull_r.o)
 .debug_aranges
                0x00000a80       0x20 d:/altera/12.1sp1b243/nios2eds/bin/gnu/h-i686-mingw32/bin/../lib/gcc/nios2-elf/4.1.2/../../../../nios2-elf/lib\libc.a(lib_a-ungetc.o)
 .debug_aranges
                0x00000aa0       0x20 d:/altera/12.1sp1b243/nios2eds/bin/gnu/h-i686-mingw32/bin/../lib/gcc/nios2-elf/4.1.2/../../../../nios2-elf/lib\libc.a(lib_a-gdtoa-gethex.o)
 .debug_aranges
                0x00000ac0       0x20 d:/altera/12.1sp1b243/nios2eds/bin/gnu/h-i686-mingw32/bin/../lib/gcc/nios2-elf/4.1.2/../../../../nios2-elf/lib\libc.a(lib_a-gdtoa-hexnan.o)
 .debug_aranges
                0x00000ae0       0x20 d:/altera/12.1sp1b243/nios2eds/bin/gnu/h-i686-mingw32/bin/../lib/gcc/nios2-elf/4.1.2\libgcc.a(_muldi3.o)
 .debug_aranges
                0x00000b00       0x20 d:/altera/12.1sp1b243/nios2eds/bin/gnu/h-i686-mingw32/bin/../lib/gcc/nios2-elf/4.1.2\libgcc.a(_fixunsdfsi.o)
 .debug_aranges
                0x00000b20       0x20 d:/altera/12.1sp1b243/nios2eds/bin/gnu/h-i686-mingw32/bin/../lib/gcc/nios2-elf/4.1.2\libgcc.a(_udivdi3.o)
 .debug_aranges
                0x00000b40       0x20 d:/altera/12.1sp1b243/nios2eds/bin/gnu/h-i686-mingw32/bin/../lib/gcc/nios2-elf/4.1.2\libgcc.a(_umoddi3.o)
 .debug_aranges
                0x00000b60       0x20 d:/altera/12.1sp1b243/nios2eds/bin/gnu/h-i686-mingw32/bin/../lib/gcc/nios2-elf/4.1.2\libgcc.a(_ne_sf.o)
 .debug_aranges
                0x00000b80       0x20 d:/altera/12.1sp1b243/nios2eds/bin/gnu/h-i686-mingw32/bin/../lib/gcc/nios2-elf/4.1.2\libgcc.a(_gt_sf.o)
 .debug_aranges
                0x00000ba0       0x20 d:/altera/12.1sp1b243/nios2eds/bin/gnu/h-i686-mingw32/bin/../lib/gcc/nios2-elf/4.1.2\libgcc.a(_lt_sf.o)
 .debug_aranges
                0x00000bc0       0x20 d:/altera/12.1sp1b243/nios2eds/bin/gnu/h-i686-mingw32/bin/../lib/gcc/nios2-elf/4.1.2\libgcc.a(_addsub_df.o)
 .debug_aranges
                0x00000be0       0x20 d:/altera/12.1sp1b243/nios2eds/bin/gnu/h-i686-mingw32/bin/../lib/gcc/nios2-elf/4.1.2\libgcc.a(_mul_df.o)
 .debug_aranges
                0x00000c00       0x20 d:/altera/12.1sp1b243/nios2eds/bin/gnu/h-i686-mingw32/bin/../lib/gcc/nios2-elf/4.1.2\libgcc.a(_div_df.o)
 .debug_aranges
                0x00000c20       0x20 d:/altera/12.1sp1b243/nios2eds/bin/gnu/h-i686-mingw32/bin/../lib/gcc/nios2-elf/4.1.2\libgcc.a(_eq_df.o)
 .debug_aranges
                0x00000c40       0x20 d:/altera/12.1sp1b243/nios2eds/bin/gnu/h-i686-mingw32/bin/../lib/gcc/nios2-elf/4.1.2\libgcc.a(_ne_df.o)
 .debug_aranges
                0x00000c60       0x20 d:/altera/12.1sp1b243/nios2eds/bin/gnu/h-i686-mingw32/bin/../lib/gcc/nios2-elf/4.1.2\libgcc.a(_gt_df.o)
 .debug_aranges
                0x00000c80       0x20 d:/altera/12.1sp1b243/nios2eds/bin/gnu/h-i686-mingw32/bin/../lib/gcc/nios2-elf/4.1.2\libgcc.a(_ge_df.o)
 .debug_aranges
                0x00000ca0       0x20 d:/altera/12.1sp1b243/nios2eds/bin/gnu/h-i686-mingw32/bin/../lib/gcc/nios2-elf/4.1.2\libgcc.a(_lt_df.o)
 .debug_aranges
                0x00000cc0       0x20 d:/altera/12.1sp1b243/nios2eds/bin/gnu/h-i686-mingw32/bin/../lib/gcc/nios2-elf/4.1.2\libgcc.a(_le_df.o)
 .debug_aranges
                0x00000ce0       0x20 d:/altera/12.1sp1b243/nios2eds/bin/gnu/h-i686-mingw32/bin/../lib/gcc/nios2-elf/4.1.2\libgcc.a(_si_to_df.o)
 .debug_aranges
                0x00000d00       0x20 d:/altera/12.1sp1b243/nios2eds/bin/gnu/h-i686-mingw32/bin/../lib/gcc/nios2-elf/4.1.2\libgcc.a(_df_to_si.o)
 .debug_aranges
                0x00000d20       0x20 d:/altera/12.1sp1b243/nios2eds/bin/gnu/h-i686-mingw32/bin/../lib/gcc/nios2-elf/4.1.2\libgcc.a(_df_to_sf.o)
 .debug_aranges
                0x00000d40       0x20 d:/altera/12.1sp1b243/nios2eds/bin/gnu/h-i686-mingw32/bin/../lib/gcc/nios2-elf/4.1.2\libgcc.a(_usi_to_df.o)
 .debug_aranges
                0x00000d60       0x20 d:/altera/12.1sp1b243/nios2eds/bin/gnu/h-i686-mingw32/bin/../lib/gcc/nios2-elf/4.1.2\libgcc.a(_clzsi2.o)
 .debug_aranges
                0x00000d80       0x20 d:/altera/12.1sp1b243/nios2eds/bin/gnu/h-i686-mingw32/bin/../lib/gcc/nios2-elf/4.1.2\libgcc.a(_unpack_sf.o)
 .debug_aranges
                0x00000da0       0x20 d:/altera/12.1sp1b243/nios2eds/bin/gnu/h-i686-mingw32/bin/../lib/gcc/nios2-elf/4.1.2\libgcc.a(_fpcmp_parts_sf.o)
 .debug_aranges
                0x00000dc0       0x20 d:/altera/12.1sp1b243/nios2eds/bin/gnu/h-i686-mingw32/bin/../lib/gcc/nios2-elf/4.1.2\libgcc.a(_make_sf.o)
 .debug_aranges
                0x00000de0       0x20 d:/altera/12.1sp1b243/nios2eds/bin/gnu/h-i686-mingw32/bin/../lib/gcc/nios2-elf/4.1.2\libgcc.a(_pack_df.o)
 .debug_aranges
                0x00000e00       0x20 d:/altera/12.1sp1b243/nios2eds/bin/gnu/h-i686-mingw32/bin/../lib/gcc/nios2-elf/4.1.2\libgcc.a(_unpack_df.o)
 .debug_aranges
                0x00000e20       0x20 d:/altera/12.1sp1b243/nios2eds/bin/gnu/h-i686-mingw32/bin/../lib/gcc/nios2-elf/4.1.2\libgcc.a(_fpcmp_parts_df.o)
 .debug_aranges
                0x00000e40       0x20 d:/altera/12.1sp1b243/nios2eds/bin/gnu/h-i686-mingw32/bin/../lib/gcc/nios2-elf/4.1.2\libgcc.a(_pack_sf.o)
 .debug_aranges
                0x00000e60       0x20 ../../bsp/ucosii_net_rozipfs/\libucosii_bsp.a(alt_fstat.o)
 .debug_aranges
                0x00000e80       0x20 ../../bsp/ucosii_net_rozipfs/\libucosii_bsp.a(alt_isatty.o)
 .debug_aranges
                0x00000ea0       0x20 ../../bsp/ucosii_net_rozipfs/\libucosii_bsp.a(alt_lseek.o)
 .debug_aranges
                0x00000ec0       0x20 ../../bsp/ucosii_net_rozipfs/\libucosii_bsp.a(alt_main.o)
 .debug_aranges
                0x00000ee0       0x20 ../../bsp/ucosii_net_rozipfs/\libucosii_bsp.a(alt_open.o)
 .debug_aranges
                0x00000f00       0x20 ../../bsp/ucosii_net_rozipfs/\libucosii_bsp.a(alt_release_fd.o)
 .debug_aranges
                0x00000f20       0x20 ../../bsp/ucosii_net_rozipfs/\libucosii_bsp.a(alt_sbrk.o)
 .debug_aranges
                0x00000f40       0x20 ../../bsp/ucosii_net_rozipfs/\libucosii_bsp.a(alt_tick.o)
 .debug_aranges
                0x00000f60       0x20 ../../bsp/ucosii_net_rozipfs/\libucosii_bsp.a(alt_usleep.o)
 .debug_aranges
                0x00000f80       0x20 ../../bsp/ucosii_net_rozipfs/\libucosii_bsp.a(alt_env_lock.o)
 .debug_aranges
                0x00000fa0       0x20 ../../bsp/ucosii_net_rozipfs/\libucosii_bsp.a(alt_malloc_lock.o)
 .debug_aranges
                0x00000fc0       0x20 ../../bsp/ucosii_net_rozipfs/\libucosii_bsp.a(os_core.o)
 .debug_aranges
                0x00000fe0       0x20 ../../bsp/ucosii_net_rozipfs/\libucosii_bsp.a(os_dbg.o)
 .debug_aranges
                0x00001000       0x20 ../../bsp/ucosii_net_rozipfs/\libucosii_bsp.a(os_flag.o)
 .debug_aranges
                0x00001020       0x20 ../../bsp/ucosii_net_rozipfs/\libucosii_bsp.a(os_mbox.o)
 .debug_aranges
                0x00001040       0x20 ../../bsp/ucosii_net_rozipfs/\libucosii_bsp.a(os_mem.o)
 .debug_aranges
                0x00001060       0x20 ../../bsp/ucosii_net_rozipfs/\libucosii_bsp.a(os_q.o)
 .debug_aranges
                0x00001080       0x20 ../../bsp/ucosii_net_rozipfs/\libucosii_bsp.a(os_sem.o)
 .debug_aranges
                0x000010a0       0x20 ../../bsp/ucosii_net_rozipfs/\libucosii_bsp.a(os_task.o)
 .debug_aranges
                0x000010c0       0x20 ../../bsp/ucosii_net_rozipfs/\libucosii_bsp.a(os_time.o)
 .debug_aranges
                0x000010e0       0x20 ../../bsp/ucosii_net_rozipfs/\libucosii_bsp.a(alt_sys_init.o)
 .debug_aranges
                0x00001100       0x20 ../../bsp/ucosii_net_rozipfs/\libucosii_bsp.a(altera_avalon_cfi_flash.o)
 .debug_aranges
                0x00001120       0x20 ../../bsp/ucosii_net_rozipfs/\libucosii_bsp.a(altera_avalon_cfi_flash_table.o)
 .debug_aranges
                0x00001140       0x20 ../../bsp/ucosii_net_rozipfs/\libucosii_bsp.a(altera_avalon_jtag_uart_fd.o)
 .debug_aranges
                0x00001160       0x20 ../../bsp/ucosii_net_rozipfs/\libucosii_bsp.a(altera_avalon_jtag_uart_init.o)
 .debug_aranges
                0x00001180       0x20 ../../bsp/ucosii_net_rozipfs/\libucosii_bsp.a(altera_avalon_jtag_uart_ioctl.o)
 .debug_aranges
                0x000011a0       0x20 ../../bsp/ucosii_net_rozipfs/\libucosii_bsp.a(altera_avalon_jtag_uart_read.o)
 .debug_aranges
                0x000011c0       0x20 ../../bsp/ucosii_net_rozipfs/\libucosii_bsp.a(altera_avalon_jtag_uart_write.o)
 .debug_aranges
                0x000011e0       0x20 ../../bsp/ucosii_net_rozipfs/\libucosii_bsp.a(altera_avalon_lcd_16207.o)
 .debug_aranges
                0x00001200       0x20 ../../bsp/ucosii_net_rozipfs/\libucosii_bsp.a(altera_avalon_lcd_16207_fd.o)
 .debug_aranges
                0x00001220       0x20 ../../bsp/ucosii_net_rozipfs/\libucosii_bsp.a(altera_avalon_sgdma.o)
 .debug_aranges
                0x00001240       0x20 ../../bsp/ucosii_net_rozipfs/\libucosii_bsp.a(altera_avalon_timer_sc.o)
 .debug_aranges
                0x00001260       0x20 ../../bsp/ucosii_net_rozipfs/\libucosii_bsp.a(altera_avalon_tse.o)
 .debug_aranges
                0x00001280       0x20 ../../bsp/ucosii_net_rozipfs/\libucosii_bsp.a(altera_ro_zipfs.o)
 .debug_aranges
                0x000012a0       0x20 ../../bsp/ucosii_net_rozipfs/\libucosii_bsp.a(ins_tse_mac.o)
 .debug_aranges
                0x000012c0       0x20 ../../bsp/ucosii_net_rozipfs/\libucosii_bsp.a(alt_iniche_close.o)
 .debug_aranges
                0x000012e0       0x20 ../../bsp/ucosii_net_rozipfs/\libucosii_bsp.a(alt_iniche_dev.o)
 .debug_aranges
                0x00001300       0x20 ../../bsp/ucosii_net_rozipfs/\libucosii_bsp.a(alt_iniche_read.o)
 .debug_aranges
                0x00001320       0x20 ../../bsp/ucosii_net_rozipfs/\libucosii_bsp.a(alt_iniche_write.o)
 .debug_aranges
                0x00001340       0x20 ../../bsp/ucosii_net_rozipfs/\libucosii_bsp.a(ipnet.o)
 .debug_aranges
                0x00001360       0x20 ../../bsp/ucosii_net_rozipfs/\libucosii_bsp.a(ipstart.o)
 .debug_aranges
                0x00001380       0x20 ../../bsp/ucosii_net_rozipfs/\libucosii_bsp.a(igmp_cmn.o)
 .debug_aranges
                0x000013a0       0x20 ../../bsp/ucosii_net_rozipfs/\libucosii_bsp.a(bsdsock.o)
 .debug_aranges
                0x000013c0       0x20 ../../bsp/ucosii_net_rozipfs/\libucosii_bsp.a(cksum.o)
 .debug_aranges
                0x000013e0       0x20 ../../bsp/ucosii_net_rozipfs/\libucosii_bsp.a(in_utils.o)
 .debug_aranges
                0x00001400       0x20 ../../bsp/ucosii_net_rozipfs/\libucosii_bsp.a(netmain.o)
 .debug_aranges
                0x00001420       0x20 ../../bsp/ucosii_net_rozipfs/\libucosii_bsp.a(tk_crnos.o)
 .debug_aranges
                0x00001440       0x20 ../../bsp/ucosii_net_rozipfs/\libucosii_bsp.a(dhcpclnt.o)
 .debug_aranges
                0x00001460       0x20 ../../bsp/ucosii_net_rozipfs/\libucosii_bsp.a(dhcputil.o)
 .debug_aranges
                0x00001480       0x20 ../../bsp/ucosii_net_rozipfs/\libucosii_bsp.a(pktalloc.o)
 .debug_aranges
                0x000014a0       0x20 ../../bsp/ucosii_net_rozipfs/\libucosii_bsp.a(q.o)
 .debug_aranges
                0x000014c0       0x20 ../../bsp/ucosii_net_rozipfs/\libucosii_bsp.a(udp_open.o)
 .debug_aranges
                0x000014e0       0x20 ../../bsp/ucosii_net_rozipfs/\libucosii_bsp.a(asm_cksum.o)
 .debug_aranges
                0x00001500       0x20 ../../bsp/ucosii_net_rozipfs/\libucosii_bsp.a(brdutils.o)
 .debug_aranges
                0x00001520       0x20 ../../bsp/ucosii_net_rozipfs/\libucosii_bsp.a(osportco.o)
 .debug_aranges
                0x00001540       0x20 ../../bsp/ucosii_net_rozipfs/\libucosii_bsp.a(targnios.o)
 .debug_aranges
                0x00001560       0x20 ../../bsp/ucosii_net_rozipfs/\libucosii_bsp.a(nptcp.o)
 .debug_aranges
                0x00001580       0x20 ../../bsp/ucosii_net_rozipfs/\libucosii_bsp.a(rawsock.o)
 .debug_aranges
                0x000015a0       0x20 ../../bsp/ucosii_net_rozipfs/\libucosii_bsp.a(sockcall.o)
 .debug_aranges
                0x000015c0       0x20 ../../bsp/ucosii_net_rozipfs/\libucosii_bsp.a(socket.o)
 .debug_aranges
                0x000015e0       0x20 ../../bsp/ucosii_net_rozipfs/\libucosii_bsp.a(socket2.o)
 .debug_aranges
                0x00001600       0x20 ../../bsp/ucosii_net_rozipfs/\libucosii_bsp.a(soselect.o)
 .debug_aranges
                0x00001620       0x20 ../../bsp/ucosii_net_rozipfs/\libucosii_bsp.a(tcp_in.o)
 .debug_aranges
                0x00001640       0x20 ../../bsp/ucosii_net_rozipfs/\libucosii_bsp.a(tcp_out.o)
 .debug_aranges
                0x00001660       0x20 ../../bsp/ucosii_net_rozipfs/\libucosii_bsp.a(tcp_subr.o)
 .debug_aranges
                0x00001680       0x20 ../../bsp/ucosii_net_rozipfs/\libucosii_bsp.a(tcp_timr.o)
 .debug_aranges
                0x000016a0       0x20 ../../bsp/ucosii_net_rozipfs/\libucosii_bsp.a(tcp_usr.o)
 .debug_aranges
                0x000016c0       0x20 ../../bsp/ucosii_net_rozipfs/\libucosii_bsp.a(tcpport.o)
 .debug_aranges
                0x000016e0       0x20 ../../bsp/ucosii_net_rozipfs/\libucosii_bsp.a(udpsock.o)
 .debug_aranges
                0x00001700       0x20 ../../bsp/ucosii_net_rozipfs/\libucosii_bsp.a(alt_alarm_start.o)
 .debug_aranges
                0x00001720       0x20 ../../bsp/ucosii_net_rozipfs/\libucosii_bsp.a(alt_busy_sleep.o)
 .debug_aranges
                0x00001740       0x20 ../../bsp/ucosii_net_rozipfs/\libucosii_bsp.a(alt_close.o)
 .debug_aranges
                0x00001760       0x20 ../../bsp/ucosii_net_rozipfs/\libucosii_bsp.a(alt_dcache_flush.o)
 .debug_aranges
                0x00001780       0x20 ../../bsp/ucosii_net_rozipfs/\libucosii_bsp.a(alt_dev.o)
 .debug_aranges
                0x000017a0       0x20 ../../bsp/ucosii_net_rozipfs/\libucosii_bsp.a(alt_dev_llist_insert.o)
 .debug_aranges
                0x000017c0       0x20 ../../bsp/ucosii_net_rozipfs/\libucosii_bsp.a(alt_do_ctors.o)
 .debug_aranges
                0x000017e0       0x20 ../../bsp/ucosii_net_rozipfs/\libucosii_bsp.a(alt_do_dtors.o)
 .debug_aranges
                0x00001800       0x20 ../../bsp/ucosii_net_rozipfs/\libucosii_bsp.a(alt_find_dev.o)
 .debug_aranges
                0x00001820       0x20 ../../bsp/ucosii_net_rozipfs/\libucosii_bsp.a(alt_find_file.o)
 .debug_aranges
                0x00001840       0x20 ../../bsp/ucosii_net_rozipfs/\libucosii_bsp.a(alt_flash_dev.o)
 .debug_aranges
                0x00001860       0x20 ../../bsp/ucosii_net_rozipfs/\libucosii_bsp.a(alt_fs_reg.o)
 .debug_aranges
                0x00001880       0x20 ../../bsp/ucosii_net_rozipfs/\libucosii_bsp.a(alt_get_fd.o)
 .debug_aranges
                0x000018a0       0x20 ../../bsp/ucosii_net_rozipfs/\libucosii_bsp.a(alt_iic.o)
 .debug_aranges
                0x000018c0       0x20 ../../bsp/ucosii_net_rozipfs/\libucosii_bsp.a(alt_iic_isr_register.o)
 .debug_aranges
                0x000018e0       0x20 ../../bsp/ucosii_net_rozipfs/\libucosii_bsp.a(alt_io_redirect.o)
 .debug_aranges
                0x00001900       0x30 ../../bsp/ucosii_net_rozipfs/\libucosii_bsp.a(alt_irq_entry.o)
 .debug_aranges
                0x00001930       0x28 ../../bsp/ucosii_net_rozipfs/\libucosii_bsp.a(alt_irq_handler.o)
 .debug_aranges
                0x00001958       0x20 ../../bsp/ucosii_net_rozipfs/\libucosii_bsp.a(alt_read.o)
 .debug_aranges
                0x00001978       0x20 ../../bsp/ucosii_net_rozipfs/\libucosii_bsp.a(alt_remap_cached.o)
 .debug_aranges
                0x00001998       0x20 ../../bsp/ucosii_net_rozipfs/\libucosii_bsp.a(alt_remap_uncached.o)
 .debug_aranges
                0x000019b8       0x20 ../../bsp/ucosii_net_rozipfs/\libucosii_bsp.a(alt_uncached_malloc.o)
 .debug_aranges
                0x000019d8       0x20 ../../bsp/ucosii_net_rozipfs/\libucosii_bsp.a(alt_write.o)
 .debug_aranges
                0x000019f8       0x20 ../../bsp/ucosii_net_rozipfs/\libucosii_bsp.a(altera_nios2_qsys_irq.o)
 .debug_aranges
                0x00001a18       0x20 ../../bsp/ucosii_net_rozipfs/\libucosii_bsp.a(os_cpu_a.o)
 .debug_aranges
                0x00001a38       0x20 ../../bsp/ucosii_net_rozipfs/\libucosii_bsp.a(os_cpu_c.o)
 .debug_aranges
                0x00001a58       0x20 ../../bsp/ucosii_net_rozipfs/\libucosii_bsp.a(altera_avalon_cfi_flash_amd.o)
 .debug_aranges
                0x00001a78       0x20 ../../bsp/ucosii_net_rozipfs/\libucosii_bsp.a(altera_avalon_cfi_flash_intel.o)
 .debug_aranges
                0x00001a98       0x20 ../../bsp/ucosii_net_rozipfs/\libucosii_bsp.a(allports.o)
 .debug_aranges
                0x00001ab8       0x20 ../../bsp/ucosii_net_rozipfs/\libucosii_bsp.a(timeouts.o)
 .debug_aranges
                0x00001ad8       0x20 ../../bsp/ucosii_net_rozipfs/\libucosii_bsp.a(tk_misc.o)
 .debug_aranges
                0x00001af8       0x20 ../../bsp/ucosii_net_rozipfs/\libucosii_bsp.a(alt_iniche_fcntl.o)
 .debug_aranges
                0x00001b18       0x20 ../../bsp/ucosii_net_rozipfs/\libucosii_bsp.a(et_arp.o)
 .debug_aranges
                0x00001b38       0x20 ../../bsp/ucosii_net_rozipfs/\libucosii_bsp.a(iface.o)
 .debug_aranges
                0x00001b58       0x20 ../../bsp/ucosii_net_rozipfs/\libucosii_bsp.a(ip.o)
 .debug_aranges
                0x00001b78       0x20 ../../bsp/ucosii_net_rozipfs/\libucosii_bsp.a(ip_reasm.o)
 .debug_aranges
                0x00001b98       0x20 ../../bsp/ucosii_net_rozipfs/\libucosii_bsp.a(ipdemux.o)
 .debug_aranges
                0x00001bb8       0x20 ../../bsp/ucosii_net_rozipfs/\libucosii_bsp.a(ipmc.o)
 .debug_aranges
                0x00001bd8       0x20 ../../bsp/ucosii_net_rozipfs/\libucosii_bsp.a(ipport.o)
 .debug_aranges
                0x00001bf8       0x20 ../../bsp/ucosii_net_rozipfs/\libucosii_bsp.a(ipraw.o)
 .debug_aranges
                0x00001c18       0x20 ../../bsp/ucosii_net_rozipfs/\libucosii_bsp.a(iproute.o)
 .debug_aranges
                0x00001c38       0x20 ../../bsp/ucosii_net_rozipfs/\libucosii_bsp.a(udp.o)
 .debug_aranges
                0x00001c58       0x20 ../../bsp/ucosii_net_rozipfs/\libucosii_bsp.a(igmp.o)
 .debug_aranges
                0x00001c78       0x20 ../../bsp/ucosii_net_rozipfs/\libucosii_bsp.a(igmp2.o)
 .debug_aranges
                0x00001c98       0x20 ../../bsp/ucosii_net_rozipfs/\libucosii_bsp.a(ipopt.o)
 .debug_aranges
                0x00001cb8       0x20 ../../bsp/ucosii_net_rozipfs/\libucosii_bsp.a(u_mctest.o)
 .debug_aranges
                0x00001cd8       0x20 ../../bsp/ucosii_net_rozipfs/\libucosii_bsp.a(dhcsetup.o)
 .debug_aranges
                0x00001cf8       0x20 ../../bsp/ucosii_net_rozipfs/\libucosii_bsp.a(memdev.o)
 .debug_aranges
                0x00001d18       0x20 ../../bsp/ucosii_net_rozipfs/\libucosii_bsp.a(parseip.o)
 .debug_aranges
                0x00001d38       0x20 ../../bsp/ucosii_net_rozipfs/\libucosii_bsp.a(tcpcksum.o)
 .debug_aranges
                0x00001d58       0x20 ../../bsp/ucosii_net_rozipfs/\libucosii_bsp.a(in_pcb.o)
 .debug_aranges
                0x00001d78       0x20 ../../bsp/ucosii_net_rozipfs/\libucosii_bsp.a(vfsfiles.o)
 .debug_aranges
                0x00001d98       0x20 ../../bsp/ucosii_net_rozipfs/\libucosii_bsp.a(vfsport.o)
 .debug_aranges
                0x00001db8       0x38 ../../bsp/ucosii_net_rozipfs/\libucosii_bsp.a(alt_exception_entry.o)
 .debug_aranges
                0x00001df0       0x20 ../../bsp/ucosii_net_rozipfs/\libucosii_bsp.a(alt_fcntl.o)
 .debug_aranges
                0x00001e10       0x20 ../../bsp/ucosii_net_rozipfs/\libucosii_bsp.a(icmp.o)
 .debug_aranges
                0x00001e30       0x20 d:/altera/12.1sp1b243/nios2eds/bin/gnu/h-i686-mingw32/bin/../lib/gcc/nios2-elf/4.1.2/../../../../nios2-elf/lib\libc.a(lib_a-atexit.o)
 .debug_aranges
                0x00001e50       0x20 d:/altera/12.1sp1b243/nios2eds/bin/gnu/h-i686-mingw32/bin/../lib/gcc/nios2-elf/4.1.2/../../../../nios2-elf/lib\libc.a(lib_a-exit.o)
 .debug_aranges
                0x00001e70       0x20 d:/altera/12.1sp1b243/nios2eds/bin/gnu/h-i686-mingw32/bin/../lib/gcc/nios2-elf/4.1.2/../../../../nios2-elf/lib\libc.a(lib_a-vprintf.o)
 .debug_aranges
                0x00001e90       0x20 d:/altera/12.1sp1b243/nios2eds/bin/gnu/h-i686-mingw32/bin/../lib/gcc/nios2-elf/4.1.2/../../../../nios2-elf/lib\libc.a(lib_a-__atexit.o)
 .debug_aranges
                0x00001eb0       0x20 d:/altera/12.1sp1b243/nios2eds/bin/gnu/h-i686-mingw32/bin/../lib/gcc/nios2-elf/4.1.2/../../../../nios2-elf/lib\libc.a(lib_a-__call_atexit.o)
 .debug_aranges
                0x00001ed0       0x20 ../../bsp/ucosii_net_rozipfs/\libucosii_bsp.a(alt_exit.o)

.debug_pubnames
                0x00000000     0x63ca
 *(.debug_pubnames)
 .debug_pubnames
                0x00000000       0x46 obj/default/src/flash_intel_p30/flash_intel_p30.o
 .debug_pubnames
                0x00000046       0x90 obj/default/src/main.o
 .debug_pubnames
                0x000000d6       0x70 obj/default/src/os_utils.o
 .debug_pubnames
                0x00000146       0x3f obj/default/src/reconfig_utils.o
 .debug_pubnames
                0x00000185       0x44 obj/default/src/srec/srec.o
 .debug_pubnames
                0x000001c9      0x45d obj/default/src/webserver.o
 .debug_pubnames
                0x00000626       0x48 d:/altera/12.1sp1b243/nios2eds/bin/gnu/h-i686-mingw32/bin/../lib/gcc/nios2-elf/4.1.2\libgcc.a(lib2-divmod.o)
 .debug_pubnames
                0x0000066e       0x27 d:/altera/12.1sp1b243/nios2eds/bin/gnu/h-i686-mingw32/bin/../lib/gcc/nios2-elf/4.1.2/../../../../nios2-elf/lib\libc.a(lib_a-atoi.o)
 .debug_pubnames
                0x00000695       0x1d d:/altera/12.1sp1b243/nios2eds/bin/gnu/h-i686-mingw32/bin/../lib/gcc/nios2-elf/4.1.2/../../../../nios2-elf/lib\libc.a(lib_a-calloc.o)
 .debug_pubnames
                0x000006b2       0x20 d:/altera/12.1sp1b243/nios2eds/bin/gnu/h-i686-mingw32/bin/../lib/gcc/nios2-elf/4.1.2/../../../../nios2-elf/lib\libc.a(lib_a-callocr.o)
 .debug_pubnames
                0x000006d2       0x2e d:/altera/12.1sp1b243/nios2eds/bin/gnu/h-i686-mingw32/bin/../lib/gcc/nios2-elf/4.1.2/../../../../nios2-elf/lib\libc.a(lib_a-ctype_.o)
 .debug_pubnames
                0x00000700       0x2b d:/altera/12.1sp1b243/nios2eds/bin/gnu/h-i686-mingw32/bin/../lib/gcc/nios2-elf/4.1.2/../../../../nios2-elf/lib\libc.a(lib_a-fclose.o)
 .debug_pubnames
                0x0000072b       0x2b d:/altera/12.1sp1b243/nios2eds/bin/gnu/h-i686-mingw32/bin/../lib/gcc/nios2-elf/4.1.2/../../../../nios2-elf/lib\libc.a(lib_a-fflush.o)
 .debug_pubnames
                0x00000756       0x2d d:/altera/12.1sp1b243/nios2eds/bin/gnu/h-i686-mingw32/bin/../lib/gcc/nios2-elf/4.1.2/../../../../nios2-elf/lib\libc.a(lib_a-fgetpos.o)
 .debug_pubnames
                0x00000783       0xdb d:/altera/12.1sp1b243/nios2eds/bin/gnu/h-i686-mingw32/bin/../lib/gcc/nios2-elf/4.1.2/../../../../nios2-elf/lib\libc.a(lib_a-findfp.o)
 .debug_pubnames
                0x0000085e       0x29 d:/altera/12.1sp1b243/nios2eds/bin/gnu/h-i686-mingw32/bin/../lib/gcc/nios2-elf/4.1.2/../../../../nios2-elf/lib\libc.a(lib_a-fopen.o)
 .debug_pubnames
                0x00000887       0x29 d:/altera/12.1sp1b243/nios2eds/bin/gnu/h-i686-mingw32/bin/../lib/gcc/nios2-elf/4.1.2/../../../../nios2-elf/lib\libc.a(lib_a-fread.o)
 .debug_pubnames
                0x000008b0       0x31 d:/altera/12.1sp1b243/nios2eds/bin/gnu/h-i686-mingw32/bin/../lib/gcc/nios2-elf/4.1.2/../../../../nios2-elf/lib\libc.a(lib_a-freer.o)
 .debug_pubnames
                0x000008e1       0x29 d:/altera/12.1sp1b243/nios2eds/bin/gnu/h-i686-mingw32/bin/../lib/gcc/nios2-elf/4.1.2/../../../../nios2-elf/lib\libc.a(lib_a-fseek.o)
 .debug_pubnames
                0x0000090a       0x1f d:/altera/12.1sp1b243/nios2eds/bin/gnu/h-i686-mingw32/bin/../lib/gcc/nios2-elf/4.1.2/../../../../nios2-elf/lib\libc.a(lib_a-fstatr.o)
 .debug_pubnames
                0x00000929       0x29 d:/altera/12.1sp1b243/nios2eds/bin/gnu/h-i686-mingw32/bin/../lib/gcc/nios2-elf/4.1.2/../../../../nios2-elf/lib\libc.a(lib_a-ftell.o)
 .debug_pubnames
                0x00000952       0x2e d:/altera/12.1sp1b243/nios2eds/bin/gnu/h-i686-mingw32/bin/../lib/gcc/nios2-elf/4.1.2/../../../../nios2-elf/lib\libc.a(lib_a-fwalk.o)
 .debug_pubnames
                0x00000980       0x2b d:/altera/12.1sp1b243/nios2eds/bin/gnu/h-i686-mingw32/bin/../lib/gcc/nios2-elf/4.1.2/../../../../nios2-elf/lib\libc.a(lib_a-fwrite.o)
 .debug_pubnames
                0x000009ab       0x27 d:/altera/12.1sp1b243/nios2eds/bin/gnu/h-i686-mingw32/bin/../lib/gcc/nios2-elf/4.1.2/../../../../nios2-elf/lib\libc.a(lib_a-getc.o)
 .debug_pubnames
                0x000009d2       0x39 d:/altera/12.1sp1b243/nios2eds/bin/gnu/h-i686-mingw32/bin/../lib/gcc/nios2-elf/4.1.2/../../../../nios2-elf/lib\libc.a(lib_a-impure.o)
 .debug_pubnames
                0x00000a0b       0x1c d:/altera/12.1sp1b243/nios2eds/bin/gnu/h-i686-mingw32/bin/../lib/gcc/nios2-elf/4.1.2/../../../../nios2-elf/lib\libc.a(lib_a-int_errno.o)
 .debug_pubnames
                0x00000a27       0x23 d:/altera/12.1sp1b243/nios2eds/bin/gnu/h-i686-mingw32/bin/../lib/gcc/nios2-elf/4.1.2/../../../../nios2-elf/lib\libc.a(lib_a-makebuf.o)
 .debug_pubnames
                0x00000a4a       0x26 d:/altera/12.1sp1b243/nios2eds/bin/gnu/h-i686-mingw32/bin/../lib/gcc/nios2-elf/4.1.2/../../../../nios2-elf/lib\libc.a(lib_a-malloc.o)
 .debug_pubnames
                0x00000a70       0xce d:/altera/12.1sp1b243/nios2eds/bin/gnu/h-i686-mingw32/bin/../lib/gcc/nios2-elf/4.1.2/../../../../nios2-elf/lib\libc.a(lib_a-mallocr.o)
 .debug_pubnames
                0x00000b3e       0x1d d:/altera/12.1sp1b243/nios2eds/bin/gnu/h-i686-mingw32/bin/../lib/gcc/nios2-elf/4.1.2/../../../../nios2-elf/lib\libc.a(lib_a-memchr.o)
 .debug_pubnames
                0x00000b5b       0x1d d:/altera/12.1sp1b243/nios2eds/bin/gnu/h-i686-mingw32/bin/../lib/gcc/nios2-elf/4.1.2/../../../../nios2-elf/lib\libc.a(lib_a-memcmp.o)
 .debug_pubnames
                0x00000b78       0x1d d:/altera/12.1sp1b243/nios2eds/bin/gnu/h-i686-mingw32/bin/../lib/gcc/nios2-elf/4.1.2/../../../../nios2-elf/lib\libc.a(lib_a-memcpy.o)
 .debug_pubnames
                0x00000b95       0x1e d:/altera/12.1sp1b243/nios2eds/bin/gnu/h-i686-mingw32/bin/../lib/gcc/nios2-elf/4.1.2/../../../../nios2-elf/lib\libc.a(lib_a-memmove.o)
 .debug_pubnames
                0x00000bb3       0x1d d:/altera/12.1sp1b243/nios2eds/bin/gnu/h-i686-mingw32/bin/../lib/gcc/nios2-elf/4.1.2/../../../../nios2-elf/lib\libc.a(lib_a-memset.o)
 .debug_pubnames
                0x00000bd0       0x1e d:/altera/12.1sp1b243/nios2eds/bin/gnu/h-i686-mingw32/bin/../lib/gcc/nios2-elf/4.1.2/../../../../nios2-elf/lib\libc.a(lib_a-openr.o)
 .debug_pubnames
                0x00000bee       0x2b d:/altera/12.1sp1b243/nios2eds/bin/gnu/h-i686-mingw32/bin/../lib/gcc/nios2-elf/4.1.2/../../../../nios2-elf/lib\libc.a(lib_a-perror.o)
 .debug_pubnames
                0x00000c19       0x27 d:/altera/12.1sp1b243/nios2eds/bin/gnu/h-i686-mingw32/bin/../lib/gcc/nios2-elf/4.1.2/../../../../nios2-elf/lib\libc.a(lib_a-putc.o)
 .debug_pubnames
                0x00000c40       0x27 d:/altera/12.1sp1b243/nios2eds/bin/gnu/h-i686-mingw32/bin/../lib/gcc/nios2-elf/4.1.2/../../../../nios2-elf/lib\libc.a(lib_a-puts.o)
 .debug_pubnames
                0x00000c67       0x22 d:/altera/12.1sp1b243/nios2eds/bin/gnu/h-i686-mingw32/bin/../lib/gcc/nios2-elf/4.1.2/../../../../nios2-elf/lib\libc.a(lib_a-refill.o)
 .debug_pubnames
                0x00000c89       0x2c d:/altera/12.1sp1b243/nios2eds/bin/gnu/h-i686-mingw32/bin/../lib/gcc/nios2-elf/4.1.2/../../../../nios2-elf/lib\libc.a(lib_a-rget.o)
 .debug_pubnames
                0x00000cb5       0x1e d:/altera/12.1sp1b243/nios2eds/bin/gnu/h-i686-mingw32/bin/../lib/gcc/nios2-elf/4.1.2/../../../../nios2-elf/lib\libc.a(lib_a-sbrkr.o)
 .debug_pubnames
                0x00000cd3       0x2d d:/altera/12.1sp1b243/nios2eds/bin/gnu/h-i686-mingw32/bin/../lib/gcc/nios2-elf/4.1.2/../../../../nios2-elf/lib\libc.a(lib_a-sprintf.o)
 .debug_pubnames
                0x00000d00       0x2b d:/altera/12.1sp1b243/nios2eds/bin/gnu/h-i686-mingw32/bin/../lib/gcc/nios2-elf/4.1.2/../../../../nios2-elf/lib\libc.a(lib_a-sscanf.o)
 .debug_pubnames
                0x00000d2b       0x44 d:/altera/12.1sp1b243/nios2eds/bin/gnu/h-i686-mingw32/bin/../lib/gcc/nios2-elf/4.1.2/../../../../nios2-elf/lib\libc.a(lib_a-stdio.o)
 .debug_pubnames
                0x00000d6f       0x21 d:/altera/12.1sp1b243/nios2eds/bin/gnu/h-i686-mingw32/bin/../lib/gcc/nios2-elf/4.1.2/../../../../nios2-elf/lib\libc.a(lib_a-strcasecmp.o)
 .debug_pubnames
                0x00000d90       0x1d d:/altera/12.1sp1b243/nios2eds/bin/gnu/h-i686-mingw32/bin/../lib/gcc/nios2-elf/4.1.2/../../../../nios2-elf/lib\libc.a(lib_a-strchr.o)
 .debug_pubnames
                0x00000dad       0x1d d:/altera/12.1sp1b243/nios2eds/bin/gnu/h-i686-mingw32/bin/../lib/gcc/nios2-elf/4.1.2/../../../../nios2-elf/lib\libc.a(lib_a-strcmp.o)
 .debug_pubnames
                0x00000dca       0x1d d:/altera/12.1sp1b243/nios2eds/bin/gnu/h-i686-mingw32/bin/../lib/gcc/nios2-elf/4.1.2/../../../../nios2-elf/lib\libc.a(lib_a-strcpy.o)
 .debug_pubnames
                0x00000de7       0x1f d:/altera/12.1sp1b243/nios2eds/bin/gnu/h-i686-mingw32/bin/../lib/gcc/nios2-elf/4.1.2/../../../../nios2-elf/lib\libc.a(lib_a-strerror.o)
 .debug_pubnames
                0x00000e06       0x1d d:/altera/12.1sp1b243/nios2eds/bin/gnu/h-i686-mingw32/bin/../lib/gcc/nios2-elf/4.1.2/../../../../nios2-elf/lib\libc.a(lib_a-strlen.o)
 .debug_pubnames
                0x00000e23       0x1e d:/altera/12.1sp1b243/nios2eds/bin/gnu/h-i686-mingw32/bin/../lib/gcc/nios2-elf/4.1.2/../../../../nios2-elf/lib\libc.a(lib_a-strncmp.o)
 .debug_pubnames
                0x00000e41       0x1e d:/altera/12.1sp1b243/nios2eds/bin/gnu/h-i686-mingw32/bin/../lib/gcc/nios2-elf/4.1.2/../../../../nios2-elf/lib\libc.a(lib_a-strncpy.o)
 .debug_pubnames
                0x00000e5f       0x1d d:/altera/12.1sp1b243/nios2eds/bin/gnu/h-i686-mingw32/bin/../lib/gcc/nios2-elf/4.1.2/../../../../nios2-elf/lib\libc.a(lib_a-strstr.o)
 .debug_pubnames
                0x00000e7c       0x1d d:/altera/12.1sp1b243/nios2eds/bin/gnu/h-i686-mingw32/bin/../lib/gcc/nios2-elf/4.1.2/../../../../nios2-elf/lib\libc.a(lib_a-strtok.o)
 .debug_pubnames
                0x00000e99       0x2e d:/altera/12.1sp1b243/nios2eds/bin/gnu/h-i686-mingw32/bin/../lib/gcc/nios2-elf/4.1.2/../../../../nios2-elf/lib\libc.a(lib_a-strtok_r.o)
 .debug_pubnames
                0x00000ec7       0x2b d:/altera/12.1sp1b243/nios2eds/bin/gnu/h-i686-mingw32/bin/../lib/gcc/nios2-elf/4.1.2/../../../../nios2-elf/lib\libc.a(lib_a-strtol.o)
 .debug_pubnames
                0x00000ef2       0x25 d:/altera/12.1sp1b243/nios2eds/bin/gnu/h-i686-mingw32/bin/../lib/gcc/nios2-elf/4.1.2/../../../../nios2-elf/lib\libc.a(lib_a-u_strerr.o)
 .debug_pubnames
                0x00000f17       0x45 d:/altera/12.1sp1b243/nios2eds/bin/gnu/h-i686-mingw32/bin/../lib/gcc/nios2-elf/4.1.2/../../../../nios2-elf/lib\libc.a(lib_a-vfprintf.o)
 .debug_pubnames
                0x00000f5c       0x4d d:/altera/12.1sp1b243/nios2eds/bin/gnu/h-i686-mingw32/bin/../lib/gcc/nios2-elf/4.1.2/../../../../nios2-elf/lib\libc.a(lib_a-vfscanf.o)
 .debug_pubnames
                0x00000fa9       0x2f d:/altera/12.1sp1b243/nios2eds/bin/gnu/h-i686-mingw32/bin/../lib/gcc/nios2-elf/4.1.2/../../../../nios2-elf/lib\libc.a(lib_a-vsprintf.o)
 .debug_pubnames
                0x00000fd8       0x2c d:/altera/12.1sp1b243/nios2eds/bin/gnu/h-i686-mingw32/bin/../lib/gcc/nios2-elf/4.1.2/../../../../nios2-elf/lib\libc.a(lib_a-wbuf.o)
 .debug_pubnames
                0x00001004       0x1f d:/altera/12.1sp1b243/nios2eds/bin/gnu/h-i686-mingw32/bin/../lib/gcc/nios2-elf/4.1.2/../../../../nios2-elf/lib\libc.a(lib_a-writer.o)
 .debug_pubnames
                0x00001023       0x22 d:/altera/12.1sp1b243/nios2eds/bin/gnu/h-i686-mingw32/bin/../lib/gcc/nios2-elf/4.1.2/../../../../nios2-elf/lib\libc.a(lib_a-wsetup.o)
 .debug_pubnames
                0x00001045       0x1f d:/altera/12.1sp1b243/nios2eds/bin/gnu/h-i686-mingw32/bin/../lib/gcc/nios2-elf/4.1.2/../../../../nios2-elf/lib\libc.a(lib_a-closer.o)
 .debug_pubnames
                0x00001064       0x1e d:/altera/12.1sp1b243/nios2eds/bin/gnu/h-i686-mingw32/bin/../lib/gcc/nios2-elf/4.1.2/../../../../nios2-elf/lib\libc.a(lib_a-dtoa.o)
 .debug_pubnames
                0x00001082       0x1f d:/altera/12.1sp1b243/nios2eds/bin/gnu/h-i686-mingw32/bin/../lib/gcc/nios2-elf/4.1.2/../../../../nios2-elf/lib\libc.a(lib_a-flags.o)
 .debug_pubnames
                0x000010a1       0x29 d:/altera/12.1sp1b243/nios2eds/bin/gnu/h-i686-mingw32/bin/../lib/gcc/nios2-elf/4.1.2/../../../../nios2-elf/lib\libc.a(lib_a-fputc.o)
 .debug_pubnames
                0x000010ca       0x29 d:/altera/12.1sp1b243/nios2eds/bin/gnu/h-i686-mingw32/bin/../lib/gcc/nios2-elf/4.1.2/../../../../nios2-elf/lib\libc.a(lib_a-fputs.o)
 .debug_pubnames
                0x000010f3       0x23 d:/altera/12.1sp1b243/nios2eds/bin/gnu/h-i686-mingw32/bin/../lib/gcc/nios2-elf/4.1.2/../../../../nios2-elf/lib\libc.a(lib_a-fvwrite.o)
 .debug_pubnames
                0x00001116       0x20 d:/altera/12.1sp1b243/nios2eds/bin/gnu/h-i686-mingw32/bin/../lib/gcc/nios2-elf/4.1.2/../../../../nios2-elf/lib\libc.a(lib_a-isattyr.o)
 .debug_pubnames
                0x00001136       0x1f d:/altera/12.1sp1b243/nios2eds/bin/gnu/h-i686-mingw32/bin/../lib/gcc/nios2-elf/4.1.2/../../../../nios2-elf/lib\libc.a(lib_a-iswspace.o)
 .debug_pubnames
                0x00001155       0xc3 d:/altera/12.1sp1b243/nios2eds/bin/gnu/h-i686-mingw32/bin/../lib/gcc/nios2-elf/4.1.2/../../../../nios2-elf/lib\libc.a(lib_a-locale.o)
 .debug_pubnames
                0x00001218       0x1f d:/altera/12.1sp1b243/nios2eds/bin/gnu/h-i686-mingw32/bin/../lib/gcc/nios2-elf/4.1.2/../../../../nios2-elf/lib\libc.a(lib_a-lseekr.o)
 .debug_pubnames
                0x00001237       0x2d d:/altera/12.1sp1b243/nios2eds/bin/gnu/h-i686-mingw32/bin/../lib/gcc/nios2-elf/4.1.2/../../../../nios2-elf/lib\libc.a(lib_a-mbrtowc.o)
 .debug_pubnames
                0x00001264       0x20 d:/altera/12.1sp1b243/nios2eds/bin/gnu/h-i686-mingw32/bin/../lib/gcc/nios2-elf/4.1.2/../../../../nios2-elf/lib\libc.a(lib_a-mbtowc_r.o)
 .debug_pubnames
                0x00001284      0x13a d:/altera/12.1sp1b243/nios2eds/bin/gnu/h-i686-mingw32/bin/../lib/gcc/nios2-elf/4.1.2/../../../../nios2-elf/lib\libc.a(lib_a-mprec.o)
 .debug_pubnames
                0x000013be       0x1e d:/altera/12.1sp1b243/nios2eds/bin/gnu/h-i686-mingw32/bin/../lib/gcc/nios2-elf/4.1.2/../../../../nios2-elf/lib\libc.a(lib_a-readr.o)
 .debug_pubnames
                0x000013dc       0x21 d:/altera/12.1sp1b243/nios2eds/bin/gnu/h-i686-mingw32/bin/../lib/gcc/nios2-elf/4.1.2/../../../../nios2-elf/lib\libc.a(lib_a-reallocr.o)
 .debug_pubnames
                0x000013fd       0x1f d:/altera/12.1sp1b243/nios2eds/bin/gnu/h-i686-mingw32/bin/../lib/gcc/nios2-elf/4.1.2/../../../../nios2-elf/lib\libc.a(lib_a-s_isinfd.o)
 .debug_pubnames
                0x0000141c       0x1f d:/altera/12.1sp1b243/nios2eds/bin/gnu/h-i686-mingw32/bin/../lib/gcc/nios2-elf/4.1.2/../../../../nios2-elf/lib\libc.a(lib_a-s_isnand.o)
 .debug_pubnames
                0x0000143b       0x1d d:/altera/12.1sp1b243/nios2eds/bin/gnu/h-i686-mingw32/bin/../lib/gcc/nios2-elf/4.1.2/../../../../nios2-elf/lib\libc.a(lib_a-sccl.o)
 .debug_pubnames
                0x00001458       0x1b d:/altera/12.1sp1b243/nios2eds/bin/gnu/h-i686-mingw32/bin/../lib/gcc/nios2-elf/4.1.2/../../../../nios2-elf/lib\libc.a(lib_a-sf_nan.o)
 .debug_pubnames
                0x00001473       0x36 d:/altera/12.1sp1b243/nios2eds/bin/gnu/h-i686-mingw32/bin/../lib/gcc/nios2-elf/4.1.2/../../../../nios2-elf/lib\libc.a(lib_a-strtod.o)
 .debug_pubnames
                0x000014a9       0x21 d:/altera/12.1sp1b243/nios2eds/bin/gnu/h-i686-mingw32/bin/../lib/gcc/nios2-elf/4.1.2/../../../../nios2-elf/lib\libc.a(lib_a-strtoll_r.o)
 .debug_pubnames
                0x000014ca       0x2d d:/altera/12.1sp1b243/nios2eds/bin/gnu/h-i686-mingw32/bin/../lib/gcc/nios2-elf/4.1.2/../../../../nios2-elf/lib\libc.a(lib_a-strtoul.o)
 .debug_pubnames
                0x000014f7       0x22 d:/altera/12.1sp1b243/nios2eds/bin/gnu/h-i686-mingw32/bin/../lib/gcc/nios2-elf/4.1.2/../../../../nios2-elf/lib\libc.a(lib_a-strtoull_r.o)
 .debug_pubnames
                0x00001519       0x39 d:/altera/12.1sp1b243/nios2eds/bin/gnu/h-i686-mingw32/bin/../lib/gcc/nios2-elf/4.1.2/../../../../nios2-elf/lib\libc.a(lib_a-ungetc.o)
 .debug_pubnames
                0x00001552       0x3e d:/altera/12.1sp1b243/nios2eds/bin/gnu/h-i686-mingw32/bin/../lib/gcc/nios2-elf/4.1.2/../../../../nios2-elf/lib\libc.a(lib_a-gdtoa-gethex.o)
 .debug_pubnames
                0x00001590       0x1f d:/altera/12.1sp1b243/nios2eds/bin/gnu/h-i686-mingw32/bin/../lib/gcc/nios2-elf/4.1.2/../../../../nios2-elf/lib\libc.a(lib_a-gdtoa-hexnan.o)
 .debug_pubnames
                0x000015af       0x1f d:/altera/12.1sp1b243/nios2eds/bin/gnu/h-i686-mingw32/bin/../lib/gcc/nios2-elf/4.1.2\libgcc.a(_muldi3.o)
 .debug_pubnames
                0x000015ce       0x23 d:/altera/12.1sp1b243/nios2eds/bin/gnu/h-i686-mingw32/bin/../lib/gcc/nios2-elf/4.1.2\libgcc.a(_fixunsdfsi.o)
 .debug_pubnames
                0x000015f1       0x20 d:/altera/12.1sp1b243/nios2eds/bin/gnu/h-i686-mingw32/bin/../lib/gcc/nios2-elf/4.1.2\libgcc.a(_udivdi3.o)
 .debug_pubnames
                0x00001611       0x20 d:/altera/12.1sp1b243/nios2eds/bin/gnu/h-i686-mingw32/bin/../lib/gcc/nios2-elf/4.1.2\libgcc.a(_umoddi3.o)
 .debug_pubnames
                0x00001631       0x1e d:/altera/12.1sp1b243/nios2eds/bin/gnu/h-i686-mingw32/bin/../lib/gcc/nios2-elf/4.1.2\libgcc.a(_ne_sf.o)
 .debug_pubnames
                0x0000164f       0x1e d:/altera/12.1sp1b243/nios2eds/bin/gnu/h-i686-mingw32/bin/../lib/gcc/nios2-elf/4.1.2\libgcc.a(_gt_sf.o)
 .debug_pubnames
                0x0000166d       0x1e d:/altera/12.1sp1b243/nios2eds/bin/gnu/h-i686-mingw32/bin/../lib/gcc/nios2-elf/4.1.2\libgcc.a(_lt_sf.o)
 .debug_pubnames
                0x0000168b       0x2c d:/altera/12.1sp1b243/nios2eds/bin/gnu/h-i686-mingw32/bin/../lib/gcc/nios2-elf/4.1.2\libgcc.a(_addsub_df.o)
 .debug_pubnames
                0x000016b7       0x1f d:/altera/12.1sp1b243/nios2eds/bin/gnu/h-i686-mingw32/bin/../lib/gcc/nios2-elf/4.1.2\libgcc.a(_mul_df.o)
 .debug_pubnames
                0x000016d6       0x1f d:/altera/12.1sp1b243/nios2eds/bin/gnu/h-i686-mingw32/bin/../lib/gcc/nios2-elf/4.1.2\libgcc.a(_div_df.o)
 .debug_pubnames
                0x000016f5       0x1e d:/altera/12.1sp1b243/nios2eds/bin/gnu/h-i686-mingw32/bin/../lib/gcc/nios2-elf/4.1.2\libgcc.a(_eq_df.o)
 .debug_pubnames
                0x00001713       0x1e d:/altera/12.1sp1b243/nios2eds/bin/gnu/h-i686-mingw32/bin/../lib/gcc/nios2-elf/4.1.2\libgcc.a(_ne_df.o)
 .debug_pubnames
                0x00001731       0x1e d:/altera/12.1sp1b243/nios2eds/bin/gnu/h-i686-mingw32/bin/../lib/gcc/nios2-elf/4.1.2\libgcc.a(_gt_df.o)
 .debug_pubnames
                0x0000174f       0x1e d:/altera/12.1sp1b243/nios2eds/bin/gnu/h-i686-mingw32/bin/../lib/gcc/nios2-elf/4.1.2\libgcc.a(_ge_df.o)
 .debug_pubnames
                0x0000176d       0x1e d:/altera/12.1sp1b243/nios2eds/bin/gnu/h-i686-mingw32/bin/../lib/gcc/nios2-elf/4.1.2\libgcc.a(_lt_df.o)
 .debug_pubnames
                0x0000178b       0x1e d:/altera/12.1sp1b243/nios2eds/bin/gnu/h-i686-mingw32/bin/../lib/gcc/nios2-elf/4.1.2\libgcc.a(_le_df.o)
 .debug_pubnames
                0x000017a9       0x22 d:/altera/12.1sp1b243/nios2eds/bin/gnu/h-i686-mingw32/bin/../lib/gcc/nios2-elf/4.1.2\libgcc.a(_si_to_df.o)
 .debug_pubnames
                0x000017cb       0x20 d:/altera/12.1sp1b243/nios2eds/bin/gnu/h-i686-mingw32/bin/../lib/gcc/nios2-elf/4.1.2\libgcc.a(_df_to_si.o)
 .debug_pubnames
                0x000017eb       0x23 d:/altera/12.1sp1b243/nios2eds/bin/gnu/h-i686-mingw32/bin/../lib/gcc/nios2-elf/4.1.2\libgcc.a(_df_to_sf.o)
 .debug_pubnames
                0x0000180e       0x22 d:/altera/12.1sp1b243/nios2eds/bin/gnu/h-i686-mingw32/bin/../lib/gcc/nios2-elf/4.1.2\libgcc.a(_thenan_df.o)
 .debug_pubnames
                0x00001830       0x24 d:/altera/12.1sp1b243/nios2eds/bin/gnu/h-i686-mingw32/bin/../lib/gcc/nios2-elf/4.1.2\libgcc.a(_usi_to_df.o)
 .debug_pubnames
                0x00001854       0x20 d:/altera/12.1sp1b243/nios2eds/bin/gnu/h-i686-mingw32/bin/../lib/gcc/nios2-elf/4.1.2\libgcc.a(_clz.o)
 .debug_pubnames
                0x00001874       0x1f d:/altera/12.1sp1b243/nios2eds/bin/gnu/h-i686-mingw32/bin/../lib/gcc/nios2-elf/4.1.2\libgcc.a(_clzsi2.o)
 .debug_pubnames
                0x00001893       0x21 d:/altera/12.1sp1b243/nios2eds/bin/gnu/h-i686-mingw32/bin/../lib/gcc/nios2-elf/4.1.2\libgcc.a(_unpack_sf.o)
 .debug_pubnames
                0x000018b4       0x26 d:/altera/12.1sp1b243/nios2eds/bin/gnu/h-i686-mingw32/bin/../lib/gcc/nios2-elf/4.1.2\libgcc.a(_fpcmp_parts_sf.o)
 .debug_pubnames
                0x000018da       0x20 d:/altera/12.1sp1b243/nios2eds/bin/gnu/h-i686-mingw32/bin/../lib/gcc/nios2-elf/4.1.2\libgcc.a(_make_sf.o)
 .debug_pubnames
                0x000018fa       0x1f d:/altera/12.1sp1b243/nios2eds/bin/gnu/h-i686-mingw32/bin/../lib/gcc/nios2-elf/4.1.2\libgcc.a(_pack_df.o)
 .debug_pubnames
                0x00001919       0x21 d:/altera/12.1sp1b243/nios2eds/bin/gnu/h-i686-mingw32/bin/../lib/gcc/nios2-elf/4.1.2\libgcc.a(_unpack_df.o)
 .debug_pubnames
                0x0000193a       0x26 d:/altera/12.1sp1b243/nios2eds/bin/gnu/h-i686-mingw32/bin/../lib/gcc/nios2-elf/4.1.2\libgcc.a(_fpcmp_parts_df.o)
 .debug_pubnames
                0x00001960       0x1f d:/altera/12.1sp1b243/nios2eds/bin/gnu/h-i686-mingw32/bin/../lib/gcc/nios2-elf/4.1.2\libgcc.a(_pack_sf.o)
 .debug_pubnames
                0x0000197f       0x1c ../../bsp/ucosii_net_rozipfs/\libucosii_bsp.a(alt_fstat.o)
 .debug_pubnames
                0x0000199b       0x1d ../../bsp/ucosii_net_rozipfs/\libucosii_bsp.a(alt_isatty.o)
 .debug_pubnames
                0x000019b8       0x1c ../../bsp/ucosii_net_rozipfs/\libucosii_bsp.a(alt_lseek.o)
 .debug_pubnames
                0x000019d4       0x46 ../../bsp/ucosii_net_rozipfs/\libucosii_bsp.a(alt_main.o)
 .debug_pubnames
                0x00001a1a       0x1b ../../bsp/ucosii_net_rozipfs/\libucosii_bsp.a(alt_open.o)
 .debug_pubnames
                0x00001a35       0x25 ../../bsp/ucosii_net_rozipfs/\libucosii_bsp.a(alt_release_fd.o)
 .debug_pubnames
                0x00001a5a       0x1b ../../bsp/ucosii_net_rozipfs/\libucosii_bsp.a(alt_sbrk.o)
 .debug_pubnames
                0x00001a75       0x68 ../../bsp/ucosii_net_rozipfs/\libucosii_bsp.a(alt_tick.o)
 .debug_pubnames
                0x00001add       0x1d ../../bsp/ucosii_net_rozipfs/\libucosii_bsp.a(alt_usleep.o)
 .debug_pubnames
                0x00001afa       0x41 ../../bsp/ucosii_net_rozipfs/\libucosii_bsp.a(alt_env_lock.o)
 .debug_pubnames
                0x00001b3b       0x48 ../../bsp/ucosii_net_rozipfs/\libucosii_bsp.a(alt_malloc_lock.o)
 .debug_pubnames
                0x00001b83      0x3f8 ../../bsp/ucosii_net_rozipfs/\libucosii_bsp.a(os_core.o)
 .debug_pubnames
                0x00001f7b      0x3c5 ../../bsp/ucosii_net_rozipfs/\libucosii_bsp.a(os_dbg.o)
 .debug_pubnames
                0x00002340       0xd0 ../../bsp/ucosii_net_rozipfs/\libucosii_bsp.a(os_flag.o)
 .debug_pubnames
                0x00002410       0x96 ../../bsp/ucosii_net_rozipfs/\libucosii_bsp.a(os_mbox.o)
 .debug_pubnames
                0x000024a6       0x7c ../../bsp/ucosii_net_rozipfs/\libucosii_bsp.a(os_mem.o)
 .debug_pubnames
                0x00002522       0xa9 ../../bsp/ucosii_net_rozipfs/\libucosii_bsp.a(os_q.o)
 .debug_pubnames
                0x000025cb       0x8a ../../bsp/ucosii_net_rozipfs/\libucosii_bsp.a(os_sem.o)
 .debug_pubnames
                0x00002655       0xe5 ../../bsp/ucosii_net_rozipfs/\libucosii_bsp.a(os_task.o)
 .debug_pubnames
                0x0000273a       0x62 ../../bsp/ucosii_net_rozipfs/\libucosii_bsp.a(os_time.o)
 .debug_pubnames
                0x0000279c       0x54 ../../bsp/ucosii_net_rozipfs/\libucosii_bsp.a(alt_sys_init.o)
 .debug_pubnames
                0x000027f0       0xac ../../bsp/ucosii_net_rozipfs/\libucosii_bsp.a(altera_avalon_cfi_flash.o)
 .debug_pubnames
                0x0000289c      0x27a ../../bsp/ucosii_net_rozipfs/\libucosii_bsp.a(altera_avalon_cfi_flash_table.o)
 .debug_pubnames
                0x00002b16       0xa5 ../../bsp/ucosii_net_rozipfs/\libucosii_bsp.a(altera_avalon_jtag_uart_fd.o)
 .debug_pubnames
                0x00002bbb       0x55 ../../bsp/ucosii_net_rozipfs/\libucosii_bsp.a(altera_avalon_jtag_uart_init.o)
 .debug_pubnames
                0x00002c10       0x34 ../../bsp/ucosii_net_rozipfs/\libucosii_bsp.a(altera_avalon_jtag_uart_ioctl.o)
 .debug_pubnames
                0x00002c44       0x33 ../../bsp/ucosii_net_rozipfs/\libucosii_bsp.a(altera_avalon_jtag_uart_read.o)
 .debug_pubnames
                0x00002c77       0x34 ../../bsp/ucosii_net_rozipfs/\libucosii_bsp.a(altera_avalon_jtag_uart_write.o)
 .debug_pubnames
                0x00002cab       0x55 ../../bsp/ucosii_net_rozipfs/\libucosii_bsp.a(altera_avalon_lcd_16207.o)
 .debug_pubnames
                0x00002d00       0x37 ../../bsp/ucosii_net_rozipfs/\libucosii_bsp.a(altera_avalon_lcd_16207_fd.o)
 .debug_pubnames
                0x00002d37      0x30e ../../bsp/ucosii_net_rozipfs/\libucosii_bsp.a(altera_avalon_sgdma.o)
 .debug_pubnames
                0x00003045       0x2f ../../bsp/ucosii_net_rozipfs/\libucosii_bsp.a(altera_avalon_timer_sc.o)
 .debug_pubnames
                0x00003074      0x4e6 ../../bsp/ucosii_net_rozipfs/\libucosii_bsp.a(altera_avalon_tse.o)
 .debug_pubnames
                0x0000355a       0xa3 ../../bsp/ucosii_net_rozipfs/\libucosii_bsp.a(altera_ro_zipfs.o)
 .debug_pubnames
                0x000035fd      0x105 ../../bsp/ucosii_net_rozipfs/\libucosii_bsp.a(ins_tse_mac.o)
 .debug_pubnames
                0x00003702       0x1c ../../bsp/ucosii_net_rozipfs/\libucosii_bsp.a(alt_iniche_close.o)
 .debug_pubnames
                0x0000371e       0x42 ../../bsp/ucosii_net_rozipfs/\libucosii_bsp.a(alt_iniche_dev.o)
 .debug_pubnames
                0x00003760       0x1b ../../bsp/ucosii_net_rozipfs/\libucosii_bsp.a(alt_iniche_read.o)
 .debug_pubnames
                0x0000377b       0x1c ../../bsp/ucosii_net_rozipfs/\libucosii_bsp.a(alt_iniche_write.o)
 .debug_pubnames
                0x00003797       0x90 ../../bsp/ucosii_net_rozipfs/\libucosii_bsp.a(ipnet.o)
 .debug_pubnames
                0x00003827       0x81 ../../bsp/ucosii_net_rozipfs/\libucosii_bsp.a(ipstart.o)
 .debug_pubnames
                0x000038a8      0x108 ../../bsp/ucosii_net_rozipfs/\libucosii_bsp.a(igmp_cmn.o)
 .debug_pubnames
                0x000039b0       0xc4 ../../bsp/ucosii_net_rozipfs/\libucosii_bsp.a(bsdsock.o)
 .debug_pubnames
                0x00003a74       0x27 ../../bsp/ucosii_net_rozipfs/\libucosii_bsp.a(cksum.o)
 .debug_pubnames
                0x00003a9b       0xcc ../../bsp/ucosii_net_rozipfs/\libucosii_bsp.a(in_utils.o)
 .debug_pubnames
                0x00003b67       0xb2 ../../bsp/ucosii_net_rozipfs/\libucosii_bsp.a(netmain.o)
 .debug_pubnames
                0x00003c19       0x97 ../../bsp/ucosii_net_rozipfs/\libucosii_bsp.a(tk_crnos.o)
 .debug_pubnames
                0x00003cb0      0x260 ../../bsp/ucosii_net_rozipfs/\libucosii_bsp.a(dhcpclnt.o)
 .debug_pubnames
                0x00003f10       0x1f ../../bsp/ucosii_net_rozipfs/\libucosii_bsp.a(dhcputil.o)
 .debug_pubnames
                0x00003f2f       0xe2 ../../bsp/ucosii_net_rozipfs/\libucosii_bsp.a(pktalloc.o)
 .debug_pubnames
                0x00004011       0x2d ../../bsp/ucosii_net_rozipfs/\libucosii_bsp.a(q.o)
 .debug_pubnames
                0x0000403e       0x3a ../../bsp/ucosii_net_rozipfs/\libucosii_bsp.a(udp_open.o)
 .debug_pubnames
                0x00004078       0xc5 ../../bsp/ucosii_net_rozipfs/\libucosii_bsp.a(brdutils.o)
 .debug_pubnames
                0x0000413d      0x10c ../../bsp/ucosii_net_rozipfs/\libucosii_bsp.a(osportco.o)
 .debug_pubnames
                0x00004249       0xf5 ../../bsp/ucosii_net_rozipfs/\libucosii_bsp.a(targnios.o)
 .debug_pubnames
                0x0000433e      0x23c ../../bsp/ucosii_net_rozipfs/\libucosii_bsp.a(nptcp.o)
 .debug_pubnames
                0x0000457a       0x46 ../../bsp/ucosii_net_rozipfs/\libucosii_bsp.a(rawsock.o)
 .debug_pubnames
                0x000045c0      0x108 ../../bsp/ucosii_net_rozipfs/\libucosii_bsp.a(sockcall.o)
 .debug_pubnames
                0x000046c8       0xfc ../../bsp/ucosii_net_rozipfs/\libucosii_bsp.a(socket.o)
 .debug_pubnames
                0x000047c4      0x178 ../../bsp/ucosii_net_rozipfs/\libucosii_bsp.a(socket2.o)
 .debug_pubnames
                0x0000493c       0x92 ../../bsp/ucosii_net_rozipfs/\libucosii_bsp.a(soselect.o)
 .debug_pubnames
                0x000049ce       0xc2 ../../bsp/ucosii_net_rozipfs/\libucosii_bsp.a(tcp_in.o)
 .debug_pubnames
                0x00004a90       0x57 ../../bsp/ucosii_net_rozipfs/\libucosii_bsp.a(tcp_out.o)
 .debug_pubnames
                0x00004ae7       0xb9 ../../bsp/ucosii_net_rozipfs/\libucosii_bsp.a(tcp_subr.o)
 .debug_pubnames
                0x00004ba0       0x96 ../../bsp/ucosii_net_rozipfs/\libucosii_bsp.a(tcp_timr.o)
 .debug_pubnames
                0x00004c36       0x79 ../../bsp/ucosii_net_rozipfs/\libucosii_bsp.a(tcp_usr.o)
 .debug_pubnames
                0x00004caf       0x1e ../../bsp/ucosii_net_rozipfs/\libucosii_bsp.a(tcpport.o)
 .debug_pubnames
                0x00004ccd       0x76 ../../bsp/ucosii_net_rozipfs/\libucosii_bsp.a(udpsock.o)
 .debug_pubnames
                0x00004d43       0x26 ../../bsp/ucosii_net_rozipfs/\libucosii_bsp.a(alt_alarm_start.o)
 .debug_pubnames
                0x00004d69       0x25 ../../bsp/ucosii_net_rozipfs/\libucosii_bsp.a(alt_busy_sleep.o)
 .debug_pubnames
                0x00004d8e       0x20 ../../bsp/ucosii_net_rozipfs/\libucosii_bsp.a(alt_close.o)
 .debug_pubnames
                0x00004dae       0x27 ../../bsp/ucosii_net_rozipfs/\libucosii_bsp.a(alt_dcache_flush.o)
 .debug_pubnames
                0x00004dd5       0x78 ../../bsp/ucosii_net_rozipfs/\libucosii_bsp.a(alt_dev.o)
 .debug_pubnames
                0x00004e4d       0x2b ../../bsp/ucosii_net_rozipfs/\libucosii_bsp.a(alt_dev_llist_insert.o)
 .debug_pubnames
                0x00004e78       0x20 ../../bsp/ucosii_net_rozipfs/\libucosii_bsp.a(alt_do_ctors.o)
 .debug_pubnames
                0x00004e98       0x20 ../../bsp/ucosii_net_rozipfs/\libucosii_bsp.a(alt_do_dtors.o)
 .debug_pubnames
                0x00004eb8       0x20 ../../bsp/ucosii_net_rozipfs/\libucosii_bsp.a(alt_errno.o)
 .debug_pubnames
                0x00004ed8       0x23 ../../bsp/ucosii_net_rozipfs/\libucosii_bsp.a(alt_find_dev.o)
 .debug_pubnames
                0x00004efb       0x24 ../../bsp/ucosii_net_rozipfs/\libucosii_bsp.a(alt_find_file.o)
 .debug_pubnames
                0x00004f1f       0x58 ../../bsp/ucosii_net_rozipfs/\libucosii_bsp.a(alt_flash_dev.o)
 .debug_pubnames
                0x00004f77       0x21 ../../bsp/ucosii_net_rozipfs/\libucosii_bsp.a(alt_fs_reg.o)
 .debug_pubnames
                0x00004f98       0x21 ../../bsp/ucosii_net_rozipfs/\libucosii_bsp.a(alt_get_fd.o)
 .debug_pubnames
                0x00004fb9       0x6e ../../bsp/ucosii_net_rozipfs/\libucosii_bsp.a(alt_iic.o)
 .debug_pubnames
                0x00005027       0x2b ../../bsp/ucosii_net_rozipfs/\libucosii_bsp.a(alt_iic_isr_register.o)
 .debug_pubnames
                0x00005052       0x26 ../../bsp/ucosii_net_rozipfs/\libucosii_bsp.a(alt_io_redirect.o)
 .debug_pubnames
                0x00005078       0x32 ../../bsp/ucosii_net_rozipfs/\libucosii_bsp.a(alt_irq_handler.o)
 .debug_pubnames
                0x000050aa       0x3b ../../bsp/ucosii_net_rozipfs/\libucosii_bsp.a(alt_irq_vars.o)
 .debug_pubnames
                0x000050e5       0x1f ../../bsp/ucosii_net_rozipfs/\libucosii_bsp.a(alt_read.o)
 .debug_pubnames
                0x00005104       0x27 ../../bsp/ucosii_net_rozipfs/\libucosii_bsp.a(alt_remap_cached.o)
 .debug_pubnames
                0x0000512b       0x29 ../../bsp/ucosii_net_rozipfs/\libucosii_bsp.a(alt_remap_uncached.o)
 .debug_pubnames
                0x00005154       0x2a ../../bsp/ucosii_net_rozipfs/\libucosii_bsp.a(alt_uncached_malloc.o)
 .debug_pubnames
                0x0000517e       0x20 ../../bsp/ucosii_net_rozipfs/\libucosii_bsp.a(alt_write.o)
 .debug_pubnames
                0x0000519e       0x31 ../../bsp/ucosii_net_rozipfs/\libucosii_bsp.a(altera_nios2_qsys_irq.o)
 .debug_pubnames
                0x000051cf       0xcd ../../bsp/ucosii_net_rozipfs/\libucosii_bsp.a(os_cpu_c.o)
 .debug_pubnames
                0x0000529c       0x3e ../../bsp/ucosii_net_rozipfs/\libucosii_bsp.a(altera_avalon_cfi_flash_amd.o)
 .debug_pubnames
                0x000052da       0x42 ../../bsp/ucosii_net_rozipfs/\libucosii_bsp.a(altera_avalon_cfi_flash_intel.o)
 .debug_pubnames
                0x0000531c       0xd4 ../../bsp/ucosii_net_rozipfs/\libucosii_bsp.a(allports.o)
 .debug_pubnames
                0x000053f0       0x6f ../../bsp/ucosii_net_rozipfs/\libucosii_bsp.a(timeouts.o)
 .debug_pubnames
                0x0000545f       0x35 ../../bsp/ucosii_net_rozipfs/\libucosii_bsp.a(tk_misc.o)
 .debug_pubnames
                0x00005494       0x1c ../../bsp/ucosii_net_rozipfs/\libucosii_bsp.a(alt_iniche_fcntl.o)
 .debug_pubnames
                0x000054b0      0x142 ../../bsp/ucosii_net_rozipfs/\libucosii_bsp.a(et_arp.o)
 .debug_pubnames
                0x000055f2       0x58 ../../bsp/ucosii_net_rozipfs/\libucosii_bsp.a(iface.o)
 .debug_pubnames
                0x0000564a       0xea ../../bsp/ucosii_net_rozipfs/\libucosii_bsp.a(ip.o)
 .debug_pubnames
                0x00005734      0x22e ../../bsp/ucosii_net_rozipfs/\libucosii_bsp.a(ip_reasm.o)
 .debug_pubnames
                0x00005962       0x49 ../../bsp/ucosii_net_rozipfs/\libucosii_bsp.a(ipdemux.o)
 .debug_pubnames
                0x000059ab       0x43 ../../bsp/ucosii_net_rozipfs/\libucosii_bsp.a(ipmc.o)
 .debug_pubnames
                0x000059ee       0x99 ../../bsp/ucosii_net_rozipfs/\libucosii_bsp.a(ipport.o)
 .debug_pubnames
                0x00005a87       0x87 ../../bsp/ucosii_net_rozipfs/\libucosii_bsp.a(ipraw.o)
 .debug_pubnames
                0x00005b0e       0x5d ../../bsp/ucosii_net_rozipfs/\libucosii_bsp.a(iproute.o)
 .debug_pubnames
                0x00005b6b       0x9e ../../bsp/ucosii_net_rozipfs/\libucosii_bsp.a(udp.o)
 .debug_pubnames
                0x00005c09       0x23 ../../bsp/ucosii_net_rozipfs/\libucosii_bsp.a(igmp.o)
 .debug_pubnames
                0x00005c2c       0x8d ../../bsp/ucosii_net_rozipfs/\libucosii_bsp.a(igmp2.o)
 .debug_pubnames
                0x00005cb9       0x5f ../../bsp/ucosii_net_rozipfs/\libucosii_bsp.a(ipopt.o)
 .debug_pubnames
                0x00005d18       0x35 ../../bsp/ucosii_net_rozipfs/\libucosii_bsp.a(u_mctest.o)
 .debug_pubnames
                0x00005d4d       0x33 ../../bsp/ucosii_net_rozipfs/\libucosii_bsp.a(dhcsetup.o)
 .debug_pubnames
                0x00005d80       0xb1 ../../bsp/ucosii_net_rozipfs/\libucosii_bsp.a(memdev.o)
 .debug_pubnames
                0x00005e31       0xa6 ../../bsp/ucosii_net_rozipfs/\libucosii_bsp.a(parseip.o)
 .debug_pubnames
                0x00005ed7       0x20 ../../bsp/ucosii_net_rozipfs/\libucosii_bsp.a(tcpcksum.o)
 .debug_pubnames
                0x00005ef7       0xc8 ../../bsp/ucosii_net_rozipfs/\libucosii_bsp.a(in_pcb.o)
 .debug_pubnames
                0x00005fbf      0x278 ../../bsp/ucosii_net_rozipfs/\libucosii_bsp.a(vfsfiles.o)
 .debug_pubnames
                0x00006237       0x1f ../../bsp/ucosii_net_rozipfs/\libucosii_bsp.a(vfsport.o)
 .debug_pubnames
                0x00006256       0x20 ../../bsp/ucosii_net_rozipfs/\libucosii_bsp.a(alt_fcntl.o)
 .debug_pubnames
                0x00006276       0x75 ../../bsp/ucosii_net_rozipfs/\libucosii_bsp.a(icmp.o)
 .debug_pubnames
                0x000062eb       0x2a d:/altera/12.1sp1b243/nios2eds/bin/gnu/h-i686-mingw32/bin/../lib/gcc/nios2-elf/4.1.2/../../../../nios2-elf/lib\libc.a(lib_a-atexit.o)
 .debug_pubnames
                0x00006315       0x1b d:/altera/12.1sp1b243/nios2eds/bin/gnu/h-i686-mingw32/bin/../lib/gcc/nios2-elf/4.1.2/../../../../nios2-elf/lib\libc.a(lib_a-exit.o)
 .debug_pubnames
                0x00006330       0x2d d:/altera/12.1sp1b243/nios2eds/bin/gnu/h-i686-mingw32/bin/../lib/gcc/nios2-elf/4.1.2/../../../../nios2-elf/lib\libc.a(lib_a-vprintf.o)
 .debug_pubnames
                0x0000635d       0x2a d:/altera/12.1sp1b243/nios2eds/bin/gnu/h-i686-mingw32/bin/../lib/gcc/nios2-elf/4.1.2/../../../../nios2-elf/lib\libc.a(lib_a-__atexit.o)
 .debug_pubnames
                0x00006387       0x27 d:/altera/12.1sp1b243/nios2eds/bin/gnu/h-i686-mingw32/bin/../lib/gcc/nios2-elf/4.1.2/../../../../nios2-elf/lib\libc.a(lib_a-__call_atexit.o)
 .debug_pubnames
                0x000063ae       0x1c ../../bsp/ucosii_net_rozipfs/\libucosii_bsp.a(alt_exit.o)

.debug_info     0x00000000    0x94cee
 *(.debug_info .gnu.linkonce.wi.*)
 .debug_info    0x00000000       0xc1 ../../bsp/ucosii_net_rozipfs//obj/HAL/src/crt0.o
 .debug_info    0x000000c1      0xd7c obj/default/src/flash_intel_p30/flash_intel_p30.o
 .debug_info    0x00000e3d     0x1e01 obj/default/src/main.o
 .debug_info    0x00002c3e      0xfc1 obj/default/src/os_utils.o
 .debug_info    0x00003bff      0x327 obj/default/src/reconfig_utils.o
 .debug_info    0x00003f26      0x3bb obj/default/src/srec/srec.o
 .debug_info    0x000042e1        0x0 obj/default/src/tse_my_system.o
 .debug_info    0x000042e1     0x4918 obj/default/src/webserver.o
 .debug_info    0x00008bf9      0x21c d:/altera/12.1sp1b243/nios2eds/bin/gnu/h-i686-mingw32/bin/../lib/gcc/nios2-elf/4.1.2\libgcc.a(lib2-divmod.o)
 .debug_info    0x00008e15      0x960 d:/altera/12.1sp1b243/nios2eds/bin/gnu/h-i686-mingw32/bin/../lib/gcc/nios2-elf/4.1.2/../../../../nios2-elf/lib\libc.a(lib_a-atoi.o)
 .debug_info    0x00009775      0x954 d:/altera/12.1sp1b243/nios2eds/bin/gnu/h-i686-mingw32/bin/../lib/gcc/nios2-elf/4.1.2/../../../../nios2-elf/lib\libc.a(lib_a-calloc.o)
 .debug_info    0x0000a0c9      0xa1b d:/altera/12.1sp1b243/nios2eds/bin/gnu/h-i686-mingw32/bin/../lib/gcc/nios2-elf/4.1.2/../../../../nios2-elf/lib\libc.a(lib_a-callocr.o)
 .debug_info    0x0000aae4       0xa0 d:/altera/12.1sp1b243/nios2eds/bin/gnu/h-i686-mingw32/bin/../lib/gcc/nios2-elf/4.1.2/../../../../nios2-elf/lib\libc.a(lib_a-ctype_.o)
 .debug_info    0x0000ab84      0x994 d:/altera/12.1sp1b243/nios2eds/bin/gnu/h-i686-mingw32/bin/../lib/gcc/nios2-elf/4.1.2/../../../../nios2-elf/lib\libc.a(lib_a-fclose.o)
 .debug_info    0x0000b518      0x9fe d:/altera/12.1sp1b243/nios2eds/bin/gnu/h-i686-mingw32/bin/../lib/gcc/nios2-elf/4.1.2/../../../../nios2-elf/lib\libc.a(lib_a-fflush.o)
 .debug_info    0x0000bf16      0x9ab d:/altera/12.1sp1b243/nios2eds/bin/gnu/h-i686-mingw32/bin/../lib/gcc/nios2-elf/4.1.2/../../../../nios2-elf/lib\libc.a(lib_a-fgetpos.o)
 .debug_info    0x0000c8c1      0xb72 d:/altera/12.1sp1b243/nios2eds/bin/gnu/h-i686-mingw32/bin/../lib/gcc/nios2-elf/4.1.2/../../../../nios2-elf/lib\libc.a(lib_a-findfp.o)
 .debug_info    0x0000d433      0x9e0 d:/altera/12.1sp1b243/nios2eds/bin/gnu/h-i686-mingw32/bin/../lib/gcc/nios2-elf/4.1.2/../../../../nios2-elf/lib\libc.a(lib_a-fopen.o)
 .debug_info    0x0000de13      0xa77 d:/altera/12.1sp1b243/nios2eds/bin/gnu/h-i686-mingw32/bin/../lib/gcc/nios2-elf/4.1.2/../../../../nios2-elf/lib\libc.a(lib_a-fread.o)
 .debug_info    0x0000e88a      0xbc9 d:/altera/12.1sp1b243/nios2eds/bin/gnu/h-i686-mingw32/bin/../lib/gcc/nios2-elf/4.1.2/../../../../nios2-elf/lib\libc.a(lib_a-freer.o)
 .debug_info    0x0000f453      0xbdc d:/altera/12.1sp1b243/nios2eds/bin/gnu/h-i686-mingw32/bin/../lib/gcc/nios2-elf/4.1.2/../../../../nios2-elf/lib\libc.a(lib_a-fseek.o)
 .debug_info    0x0001002f      0xafc d:/altera/12.1sp1b243/nios2eds/bin/gnu/h-i686-mingw32/bin/../lib/gcc/nios2-elf/4.1.2/../../../../nios2-elf/lib\libc.a(lib_a-fstatr.o)
 .debug_info    0x00010b2b      0x996 d:/altera/12.1sp1b243/nios2eds/bin/gnu/h-i686-mingw32/bin/../lib/gcc/nios2-elf/4.1.2/../../../../nios2-elf/lib\libc.a(lib_a-ftell.o)
 .debug_info    0x000114c1      0xaed d:/altera/12.1sp1b243/nios2eds/bin/gnu/h-i686-mingw32/bin/../lib/gcc/nios2-elf/4.1.2/../../../../nios2-elf/lib\libc.a(lib_a-fwalk.o)
 .debug_info    0x00011fae      0xa83 d:/altera/12.1sp1b243/nios2eds/bin/gnu/h-i686-mingw32/bin/../lib/gcc/nios2-elf/4.1.2/../../../../nios2-elf/lib\libc.a(lib_a-fwrite.o)
 .debug_info    0x00012a31      0x9a7 d:/altera/12.1sp1b243/nios2eds/bin/gnu/h-i686-mingw32/bin/../lib/gcc/nios2-elf/4.1.2/../../../../nios2-elf/lib\libc.a(lib_a-getc.o)
 .debug_info    0x000133d8      0x93d d:/altera/12.1sp1b243/nios2eds/bin/gnu/h-i686-mingw32/bin/../lib/gcc/nios2-elf/4.1.2/../../../../nios2-elf/lib\libc.a(lib_a-impure.o)
 .debug_info    0x00013d15       0x8c d:/altera/12.1sp1b243/nios2eds/bin/gnu/h-i686-mingw32/bin/../lib/gcc/nios2-elf/4.1.2/../../../../nios2-elf/lib\libc.a(lib_a-int_errno.o)
 .debug_info    0x00013da1      0xb1a d:/altera/12.1sp1b243/nios2eds/bin/gnu/h-i686-mingw32/bin/../lib/gcc/nios2-elf/4.1.2/../../../../nios2-elf/lib\libc.a(lib_a-makebuf.o)
 .debug_info    0x000148bb      0x96e d:/altera/12.1sp1b243/nios2eds/bin/gnu/h-i686-mingw32/bin/../lib/gcc/nios2-elf/4.1.2/../../../../nios2-elf/lib\libc.a(lib_a-malloc.o)
 .debug_info    0x00015229      0xcd0 d:/altera/12.1sp1b243/nios2eds/bin/gnu/h-i686-mingw32/bin/../lib/gcc/nios2-elf/4.1.2/../../../../nios2-elf/lib\libc.a(lib_a-mallocr.o)
 .debug_info    0x00015ef9      0x138 d:/altera/12.1sp1b243/nios2eds/bin/gnu/h-i686-mingw32/bin/../lib/gcc/nios2-elf/4.1.2/../../../../nios2-elf/lib\libc.a(lib_a-memchr.o)
 .debug_info    0x00016031      0x115 d:/altera/12.1sp1b243/nios2eds/bin/gnu/h-i686-mingw32/bin/../lib/gcc/nios2-elf/4.1.2/../../../../nios2-elf/lib\libc.a(lib_a-memcmp.o)
 .debug_info    0x00016146      0x106 d:/altera/12.1sp1b243/nios2eds/bin/gnu/h-i686-mingw32/bin/../lib/gcc/nios2-elf/4.1.2/../../../../nios2-elf/lib\libc.a(lib_a-memcpy.o)
 .debug_info    0x0001624c      0x13e d:/altera/12.1sp1b243/nios2eds/bin/gnu/h-i686-mingw32/bin/../lib/gcc/nios2-elf/4.1.2/../../../../nios2-elf/lib\libc.a(lib_a-memmove.o)
 .debug_info    0x0001638a      0x113 d:/altera/12.1sp1b243/nios2eds/bin/gnu/h-i686-mingw32/bin/../lib/gcc/nios2-elf/4.1.2/../../../../nios2-elf/lib\libc.a(lib_a-memset.o)
 .debug_info    0x0001649d      0x977 d:/altera/12.1sp1b243/nios2eds/bin/gnu/h-i686-mingw32/bin/../lib/gcc/nios2-elf/4.1.2/../../../../nios2-elf/lib\libc.a(lib_a-openr.o)
 .debug_info    0x00016e14      0x97b d:/altera/12.1sp1b243/nios2eds/bin/gnu/h-i686-mingw32/bin/../lib/gcc/nios2-elf/4.1.2/../../../../nios2-elf/lib\libc.a(lib_a-perror.o)
 .debug_info    0x0001778f      0x9c1 d:/altera/12.1sp1b243/nios2eds/bin/gnu/h-i686-mingw32/bin/../lib/gcc/nios2-elf/4.1.2/../../../../nios2-elf/lib\libc.a(lib_a-putc.o)
 .debug_info    0x00018150      0xa25 d:/altera/12.1sp1b243/nios2eds/bin/gnu/h-i686-mingw32/bin/../lib/gcc/nios2-elf/4.1.2/../../../../nios2-elf/lib\libc.a(lib_a-puts.o)
 .debug_info    0x00018b75      0x98b d:/altera/12.1sp1b243/nios2eds/bin/gnu/h-i686-mingw32/bin/../lib/gcc/nios2-elf/4.1.2/../../../../nios2-elf/lib\libc.a(lib_a-refill.o)
 .debug_info    0x00019500      0x987 d:/altera/12.1sp1b243/nios2eds/bin/gnu/h-i686-mingw32/bin/../lib/gcc/nios2-elf/4.1.2/../../../../nios2-elf/lib\libc.a(lib_a-rget.o)
 .debug_info    0x00019e87      0x962 d:/altera/12.1sp1b243/nios2eds/bin/gnu/h-i686-mingw32/bin/../lib/gcc/nios2-elf/4.1.2/../../../../nios2-elf/lib\libc.a(lib_a-sbrkr.o)
 .debug_info    0x0001a7e9      0xa16 d:/altera/12.1sp1b243/nios2eds/bin/gnu/h-i686-mingw32/bin/../lib/gcc/nios2-elf/4.1.2/../../../../nios2-elf/lib\libc.a(lib_a-sprintf.o)
 .debug_info    0x0001b1ff      0xa6a d:/altera/12.1sp1b243/nios2eds/bin/gnu/h-i686-mingw32/bin/../lib/gcc/nios2-elf/4.1.2/../../../../nios2-elf/lib\libc.a(lib_a-sscanf.o)
 .debug_info    0x0001bc69      0xaac d:/altera/12.1sp1b243/nios2eds/bin/gnu/h-i686-mingw32/bin/../lib/gcc/nios2-elf/4.1.2/../../../../nios2-elf/lib\libc.a(lib_a-stdio.o)
 .debug_info    0x0001c715      0x13a d:/altera/12.1sp1b243/nios2eds/bin/gnu/h-i686-mingw32/bin/../lib/gcc/nios2-elf/4.1.2/../../../../nios2-elf/lib\libc.a(lib_a-strcasecmp.o)
 .debug_info    0x0001c84f      0x118 d:/altera/12.1sp1b243/nios2eds/bin/gnu/h-i686-mingw32/bin/../lib/gcc/nios2-elf/4.1.2/../../../../nios2-elf/lib\libc.a(lib_a-strchr.o)
 .debug_info    0x0001c967       0xdd d:/altera/12.1sp1b243/nios2eds/bin/gnu/h-i686-mingw32/bin/../lib/gcc/nios2-elf/4.1.2/../../../../nios2-elf/lib\libc.a(lib_a-strcmp.o)
 .debug_info    0x0001ca44      0x110 d:/altera/12.1sp1b243/nios2eds/bin/gnu/h-i686-mingw32/bin/../lib/gcc/nios2-elf/4.1.2/../../../../nios2-elf/lib\libc.a(lib_a-strcpy.o)
 .debug_info    0x0001cb54       0xbb d:/altera/12.1sp1b243/nios2eds/bin/gnu/h-i686-mingw32/bin/../lib/gcc/nios2-elf/4.1.2/../../../../nios2-elf/lib\libc.a(lib_a-strerror.o)
 .debug_info    0x0001cc0f       0xdb d:/altera/12.1sp1b243/nios2eds/bin/gnu/h-i686-mingw32/bin/../lib/gcc/nios2-elf/4.1.2/../../../../nios2-elf/lib\libc.a(lib_a-strlen.o)
 .debug_info    0x0001ccea       0xf5 d:/altera/12.1sp1b243/nios2eds/bin/gnu/h-i686-mingw32/bin/../lib/gcc/nios2-elf/4.1.2/../../../../nios2-elf/lib\libc.a(lib_a-strncmp.o)
 .debug_info    0x0001cddf      0x12a d:/altera/12.1sp1b243/nios2eds/bin/gnu/h-i686-mingw32/bin/../lib/gcc/nios2-elf/4.1.2/../../../../nios2-elf/lib\libc.a(lib_a-strncpy.o)
 .debug_info    0x0001cf09      0x3d1 d:/altera/12.1sp1b243/nios2eds/bin/gnu/h-i686-mingw32/bin/../lib/gcc/nios2-elf/4.1.2/../../../../nios2-elf/lib\libc.a(lib_a-strstr.o)
 .debug_info    0x0001d2da      0x949 d:/altera/12.1sp1b243/nios2eds/bin/gnu/h-i686-mingw32/bin/../lib/gcc/nios2-elf/4.1.2/../../../../nios2-elf/lib\libc.a(lib_a-strtok.o)
 .debug_info    0x0001dc23      0x15e d:/altera/12.1sp1b243/nios2eds/bin/gnu/h-i686-mingw32/bin/../lib/gcc/nios2-elf/4.1.2/../../../../nios2-elf/lib\libc.a(lib_a-strtok_r.o)
 .debug_info    0x0001dd81      0xa2a d:/altera/12.1sp1b243/nios2eds/bin/gnu/h-i686-mingw32/bin/../lib/gcc/nios2-elf/4.1.2/../../../../nios2-elf/lib\libc.a(lib_a-strtol.o)
 .debug_info    0x0001e7ab       0x63 d:/altera/12.1sp1b243/nios2eds/bin/gnu/h-i686-mingw32/bin/../lib/gcc/nios2-elf/4.1.2/../../../../nios2-elf/lib\libc.a(lib_a-u_strerr.o)
 .debug_info    0x0001e80e     0x10d5 d:/altera/12.1sp1b243/nios2eds/bin/gnu/h-i686-mingw32/bin/../lib/gcc/nios2-elf/4.1.2/../../../../nios2-elf/lib\libc.a(lib_a-vfprintf.o)
 .debug_info    0x0001f8e3      0xe8c d:/altera/12.1sp1b243/nios2eds/bin/gnu/h-i686-mingw32/bin/../lib/gcc/nios2-elf/4.1.2/../../../../nios2-elf/lib\libc.a(lib_a-vfscanf.o)
 .debug_info    0x0002076f      0x9ed d:/altera/12.1sp1b243/nios2eds/bin/gnu/h-i686-mingw32/bin/../lib/gcc/nios2-elf/4.1.2/../../../../nios2-elf/lib\libc.a(lib_a-vsprintf.o)
 .debug_info    0x0002115c      0x9ae d:/altera/12.1sp1b243/nios2eds/bin/gnu/h-i686-mingw32/bin/../lib/gcc/nios2-elf/4.1.2/../../../../nios2-elf/lib\libc.a(lib_a-wbuf.o)
 .debug_info    0x00021b0a      0x993 d:/altera/12.1sp1b243/nios2eds/bin/gnu/h-i686-mingw32/bin/../lib/gcc/nios2-elf/4.1.2/../../../../nios2-elf/lib\libc.a(lib_a-writer.o)
 .debug_info    0x0002249d      0x95d d:/altera/12.1sp1b243/nios2eds/bin/gnu/h-i686-mingw32/bin/../lib/gcc/nios2-elf/4.1.2/../../../../nios2-elf/lib\libc.a(lib_a-wsetup.o)
 .debug_info    0x00022dfa      0x958 d:/altera/12.1sp1b243/nios2eds/bin/gnu/h-i686-mingw32/bin/../lib/gcc/nios2-elf/4.1.2/../../../../nios2-elf/lib\libc.a(lib_a-closer.o)
 .debug_info    0x00023752      0xd6f d:/altera/12.1sp1b243/nios2eds/bin/gnu/h-i686-mingw32/bin/../lib/gcc/nios2-elf/4.1.2/../../../../nios2-elf/lib\libc.a(lib_a-dtoa.o)
 .debug_info    0x000244c1      0x977 d:/altera/12.1sp1b243/nios2eds/bin/gnu/h-i686-mingw32/bin/../lib/gcc/nios2-elf/4.1.2/../../../../nios2-elf/lib\libc.a(lib_a-flags.o)
 .debug_info    0x00024e38      0x9bd d:/altera/12.1sp1b243/nios2eds/bin/gnu/h-i686-mingw32/bin/../lib/gcc/nios2-elf/4.1.2/../../../../nios2-elf/lib\libc.a(lib_a-fputc.o)
 .debug_info    0x000257f5      0xa40 d:/altera/12.1sp1b243/nios2eds/bin/gnu/h-i686-mingw32/bin/../lib/gcc/nios2-elf/4.1.2/../../../../nios2-elf/lib\libc.a(lib_a-fputs.o)
 .debug_info    0x00026235      0xa88 d:/altera/12.1sp1b243/nios2eds/bin/gnu/h-i686-mingw32/bin/../lib/gcc/nios2-elf/4.1.2/../../../../nios2-elf/lib\libc.a(lib_a-fvwrite.o)
 .debug_info    0x00026cbd      0x958 d:/altera/12.1sp1b243/nios2eds/bin/gnu/h-i686-mingw32/bin/../lib/gcc/nios2-elf/4.1.2/../../../../nios2-elf/lib\libc.a(lib_a-isattyr.o)
 .debug_info    0x00027615       0xed d:/altera/12.1sp1b243/nios2eds/bin/gnu/h-i686-mingw32/bin/../lib/gcc/nios2-elf/4.1.2/../../../../nios2-elf/lib\libc.a(lib_a-iswspace.o)
 .debug_info    0x00027702      0xb97 d:/altera/12.1sp1b243/nios2eds/bin/gnu/h-i686-mingw32/bin/../lib/gcc/nios2-elf/4.1.2/../../../../nios2-elf/lib\libc.a(lib_a-locale.o)
 .debug_info    0x00028299      0x981 d:/altera/12.1sp1b243/nios2eds/bin/gnu/h-i686-mingw32/bin/../lib/gcc/nios2-elf/4.1.2/../../../../nios2-elf/lib\libc.a(lib_a-lseekr.o)
 .debug_info    0x00028c1a      0xa07 d:/altera/12.1sp1b243/nios2eds/bin/gnu/h-i686-mingw32/bin/../lib/gcc/nios2-elf/4.1.2/../../../../nios2-elf/lib\libc.a(lib_a-mbrtowc.o)
 .debug_info    0x00029621      0x9a2 d:/altera/12.1sp1b243/nios2eds/bin/gnu/h-i686-mingw32/bin/../lib/gcc/nios2-elf/4.1.2/../../../../nios2-elf/lib\libc.a(lib_a-mbtowc_r.o)
 .debug_info    0x00029fc3     0x1437 d:/altera/12.1sp1b243/nios2eds/bin/gnu/h-i686-mingw32/bin/../lib/gcc/nios2-elf/4.1.2/../../../../nios2-elf/lib\libc.a(lib_a-mprec.o)
 .debug_info    0x0002b3fa      0x98c d:/altera/12.1sp1b243/nios2eds/bin/gnu/h-i686-mingw32/bin/../lib/gcc/nios2-elf/4.1.2/../../../../nios2-elf/lib\libc.a(lib_a-readr.o)
 .debug_info    0x0002bd86      0xbd7 d:/altera/12.1sp1b243/nios2eds/bin/gnu/h-i686-mingw32/bin/../lib/gcc/nios2-elf/4.1.2/../../../../nios2-elf/lib\libc.a(lib_a-reallocr.o)
 .debug_info    0x0002c95d       0xd7 d:/altera/12.1sp1b243/nios2eds/bin/gnu/h-i686-mingw32/bin/../lib/gcc/nios2-elf/4.1.2/../../../../nios2-elf/lib\libc.a(lib_a-s_isinfd.o)
 .debug_info    0x0002ca34       0xd5 d:/altera/12.1sp1b243/nios2eds/bin/gnu/h-i686-mingw32/bin/../lib/gcc/nios2-elf/4.1.2/../../../../nios2-elf/lib\libc.a(lib_a-s_isnand.o)
 .debug_info    0x0002cb09       0xfb d:/altera/12.1sp1b243/nios2eds/bin/gnu/h-i686-mingw32/bin/../lib/gcc/nios2-elf/4.1.2/../../../../nios2-elf/lib\libc.a(lib_a-sccl.o)
 .debug_info    0x0002cc04       0xc8 d:/altera/12.1sp1b243/nios2eds/bin/gnu/h-i686-mingw32/bin/../lib/gcc/nios2-elf/4.1.2/../../../../nios2-elf/lib\libc.a(lib_a-sf_nan.o)
 .debug_info    0x0002cccc      0xecc d:/altera/12.1sp1b243/nios2eds/bin/gnu/h-i686-mingw32/bin/../lib/gcc/nios2-elf/4.1.2/../../../../nios2-elf/lib\libc.a(lib_a-strtod.o)
 .debug_info    0x0002db98      0x9d5 d:/altera/12.1sp1b243/nios2eds/bin/gnu/h-i686-mingw32/bin/../lib/gcc/nios2-elf/4.1.2/../../../../nios2-elf/lib\libc.a(lib_a-strtoll_r.o)
 .debug_info    0x0002e56d      0xa22 d:/altera/12.1sp1b243/nios2eds/bin/gnu/h-i686-mingw32/bin/../lib/gcc/nios2-elf/4.1.2/../../../../nios2-elf/lib\libc.a(lib_a-strtoul.o)
 .debug_info    0x0002ef8f      0x9cd d:/altera/12.1sp1b243/nios2eds/bin/gnu/h-i686-mingw32/bin/../lib/gcc/nios2-elf/4.1.2/../../../../nios2-elf/lib\libc.a(lib_a-strtoull_r.o)
 .debug_info    0x0002f95c      0x9f6 d:/altera/12.1sp1b243/nios2eds/bin/gnu/h-i686-mingw32/bin/../lib/gcc/nios2-elf/4.1.2/../../../../nios2-elf/lib\libc.a(lib_a-ungetc.o)
 .debug_info    0x00030352      0xccb d:/altera/12.1sp1b243/nios2eds/bin/gnu/h-i686-mingw32/bin/../lib/gcc/nios2-elf/4.1.2/../../../../nios2-elf/lib\libc.a(lib_a-gdtoa-gethex.o)
 .debug_info    0x0003101d      0x23e d:/altera/12.1sp1b243/nios2eds/bin/gnu/h-i686-mingw32/bin/../lib/gcc/nios2-elf/4.1.2/../../../../nios2-elf/lib\libc.a(lib_a-gdtoa-hexnan.o)
 .debug_info    0x0003125b      0x215 d:/altera/12.1sp1b243/nios2eds/bin/gnu/h-i686-mingw32/bin/../lib/gcc/nios2-elf/4.1.2\libgcc.a(_muldi3.o)
 .debug_info    0x00031470       0xce d:/altera/12.1sp1b243/nios2eds/bin/gnu/h-i686-mingw32/bin/../lib/gcc/nios2-elf/4.1.2\libgcc.a(_fixunsdfsi.o)
 .debug_info    0x0003153e      0x724 d:/altera/12.1sp1b243/nios2eds/bin/gnu/h-i686-mingw32/bin/../lib/gcc/nios2-elf/4.1.2\libgcc.a(_udivdi3.o)
 .debug_info    0x00031c62      0x751 d:/altera/12.1sp1b243/nios2eds/bin/gnu/h-i686-mingw32/bin/../lib/gcc/nios2-elf/4.1.2\libgcc.a(_umoddi3.o)
 .debug_info    0x000323b3      0x290 d:/altera/12.1sp1b243/nios2eds/bin/gnu/h-i686-mingw32/bin/../lib/gcc/nios2-elf/4.1.2\libgcc.a(_ne_sf.o)
 .debug_info    0x00032643      0x290 d:/altera/12.1sp1b243/nios2eds/bin/gnu/h-i686-mingw32/bin/../lib/gcc/nios2-elf/4.1.2\libgcc.a(_gt_sf.o)
 .debug_info    0x000328d3      0x290 d:/altera/12.1sp1b243/nios2eds/bin/gnu/h-i686-mingw32/bin/../lib/gcc/nios2-elf/4.1.2\libgcc.a(_lt_sf.o)
 .debug_info    0x00032b63      0x493 d:/altera/12.1sp1b243/nios2eds/bin/gnu/h-i686-mingw32/bin/../lib/gcc/nios2-elf/4.1.2\libgcc.a(_addsub_df.o)
 .debug_info    0x00032ff6      0x488 d:/altera/12.1sp1b243/nios2eds/bin/gnu/h-i686-mingw32/bin/../lib/gcc/nios2-elf/4.1.2\libgcc.a(_mul_df.o)
 .debug_info    0x0003347e      0x39b d:/altera/12.1sp1b243/nios2eds/bin/gnu/h-i686-mingw32/bin/../lib/gcc/nios2-elf/4.1.2\libgcc.a(_div_df.o)
 .debug_info    0x00033819      0x29d d:/altera/12.1sp1b243/nios2eds/bin/gnu/h-i686-mingw32/bin/../lib/gcc/nios2-elf/4.1.2\libgcc.a(_eq_df.o)
 .debug_info    0x00033ab6      0x29d d:/altera/12.1sp1b243/nios2eds/bin/gnu/h-i686-mingw32/bin/../lib/gcc/nios2-elf/4.1.2\libgcc.a(_ne_df.o)
 .debug_info    0x00033d53      0x29d d:/altera/12.1sp1b243/nios2eds/bin/gnu/h-i686-mingw32/bin/../lib/gcc/nios2-elf/4.1.2\libgcc.a(_gt_df.o)
 .debug_info    0x00033ff0      0x29d d:/altera/12.1sp1b243/nios2eds/bin/gnu/h-i686-mingw32/bin/../lib/gcc/nios2-elf/4.1.2\libgcc.a(_ge_df.o)
 .debug_info    0x0003428d      0x29d d:/altera/12.1sp1b243/nios2eds/bin/gnu/h-i686-mingw32/bin/../lib/gcc/nios2-elf/4.1.2\libgcc.a(_lt_df.o)
 .debug_info    0x0003452a      0x29d d:/altera/12.1sp1b243/nios2eds/bin/gnu/h-i686-mingw32/bin/../lib/gcc/nios2-elf/4.1.2\libgcc.a(_le_df.o)
 .debug_info    0x000347c7      0x218 d:/altera/12.1sp1b243/nios2eds/bin/gnu/h-i686-mingw32/bin/../lib/gcc/nios2-elf/4.1.2\libgcc.a(_si_to_df.o)
 .debug_info    0x000349df      0x2cd d:/altera/12.1sp1b243/nios2eds/bin/gnu/h-i686-mingw32/bin/../lib/gcc/nios2-elf/4.1.2\libgcc.a(_df_to_si.o)
 .debug_info    0x00034cac      0x261 d:/altera/12.1sp1b243/nios2eds/bin/gnu/h-i686-mingw32/bin/../lib/gcc/nios2-elf/4.1.2\libgcc.a(_df_to_sf.o)
 .debug_info    0x00034f0d      0x164 d:/altera/12.1sp1b243/nios2eds/bin/gnu/h-i686-mingw32/bin/../lib/gcc/nios2-elf/4.1.2\libgcc.a(_thenan_df.o)
 .debug_info    0x00035071      0x213 d:/altera/12.1sp1b243/nios2eds/bin/gnu/h-i686-mingw32/bin/../lib/gcc/nios2-elf/4.1.2\libgcc.a(_usi_to_df.o)
 .debug_info    0x00035284       0xc9 d:/altera/12.1sp1b243/nios2eds/bin/gnu/h-i686-mingw32/bin/../lib/gcc/nios2-elf/4.1.2\libgcc.a(_clz.o)
 .debug_info    0x0003534d      0x130 d:/altera/12.1sp1b243/nios2eds/bin/gnu/h-i686-mingw32/bin/../lib/gcc/nios2-elf/4.1.2\libgcc.a(_clzsi2.o)
 .debug_info    0x0003547d      0x25a d:/altera/12.1sp1b243/nios2eds/bin/gnu/h-i686-mingw32/bin/../lib/gcc/nios2-elf/4.1.2\libgcc.a(_unpack_sf.o)
 .debug_info    0x000356d7      0x21f d:/altera/12.1sp1b243/nios2eds/bin/gnu/h-i686-mingw32/bin/../lib/gcc/nios2-elf/4.1.2\libgcc.a(_fpcmp_parts_sf.o)
 .debug_info    0x000358f6      0x1d7 d:/altera/12.1sp1b243/nios2eds/bin/gnu/h-i686-mingw32/bin/../lib/gcc/nios2-elf/4.1.2\libgcc.a(_make_sf.o)
 .debug_info    0x00035acd      0x2fc d:/altera/12.1sp1b243/nios2eds/bin/gnu/h-i686-mingw32/bin/../lib/gcc/nios2-elf/4.1.2\libgcc.a(_pack_df.o)
 .debug_info    0x00035dc9      0x268 d:/altera/12.1sp1b243/nios2eds/bin/gnu/h-i686-mingw32/bin/../lib/gcc/nios2-elf/4.1.2\libgcc.a(_unpack_df.o)
 .debug_info    0x00036031      0x21b d:/altera/12.1sp1b243/nios2eds/bin/gnu/h-i686-mingw32/bin/../lib/gcc/nios2-elf/4.1.2\libgcc.a(_fpcmp_parts_df.o)
 .debug_info    0x0003624c      0x2f2 d:/altera/12.1sp1b243/nios2eds/bin/gnu/h-i686-mingw32/bin/../lib/gcc/nios2-elf/4.1.2\libgcc.a(_pack_sf.o)
 .debug_info    0x0003653e      0x6f6 ../../bsp/ucosii_net_rozipfs/\libucosii_bsp.a(alt_fstat.o)
 .debug_info    0x00036c34      0x6fc ../../bsp/ucosii_net_rozipfs/\libucosii_bsp.a(alt_isatty.o)
 .debug_info    0x00037330      0x530 ../../bsp/ucosii_net_rozipfs/\libucosii_bsp.a(alt_lseek.o)
 .debug_info    0x00037860      0x41f ../../bsp/ucosii_net_rozipfs/\libucosii_bsp.a(alt_main.o)
 .debug_info    0x00037c7f      0x5ac ../../bsp/ucosii_net_rozipfs/\libucosii_bsp.a(alt_open.o)
 .debug_info    0x0003822b      0x491 ../../bsp/ucosii_net_rozipfs/\libucosii_bsp.a(alt_release_fd.o)
 .debug_info    0x000386bc      0x2f9 ../../bsp/ucosii_net_rozipfs/\libucosii_bsp.a(alt_sbrk.o)
 .debug_info    0x000389b5      0x453 ../../bsp/ucosii_net_rozipfs/\libucosii_bsp.a(alt_tick.o)
 .debug_info    0x00038e08      0x276 ../../bsp/ucosii_net_rozipfs/\libucosii_bsp.a(alt_usleep.o)
 .debug_info    0x0003907e     0x1215 ../../bsp/ucosii_net_rozipfs/\libucosii_bsp.a(alt_env_lock.o)
 .debug_info    0x0003a293     0x1371 ../../bsp/ucosii_net_rozipfs/\libucosii_bsp.a(alt_malloc_lock.o)
 .debug_info    0x0003b604     0x1c2b ../../bsp/ucosii_net_rozipfs/\libucosii_bsp.a(os_core.o)
 .debug_info    0x0003d22f     0x1170 ../../bsp/ucosii_net_rozipfs/\libucosii_bsp.a(os_dbg.o)
 .debug_info    0x0003e39f     0x1286 ../../bsp/ucosii_net_rozipfs/\libucosii_bsp.a(os_flag.o)
 .debug_info    0x0003f625      0xd82 ../../bsp/ucosii_net_rozipfs/\libucosii_bsp.a(os_mbox.o)
 .debug_info    0x000403a7      0x850 ../../bsp/ucosii_net_rozipfs/\libucosii_bsp.a(os_mem.o)
 .debug_info    0x00040bf7     0x10c0 ../../bsp/ucosii_net_rozipfs/\libucosii_bsp.a(os_q.o)
 .debug_info    0x00041cb7      0xd28 ../../bsp/ucosii_net_rozipfs/\libucosii_bsp.a(os_sem.o)
 .debug_info    0x000429df     0x139e ../../bsp/ucosii_net_rozipfs/\libucosii_bsp.a(os_task.o)
 .debug_info    0x00043d7d      0xa22 ../../bsp/ucosii_net_rozipfs/\libucosii_bsp.a(os_time.o)
 .debug_info    0x0004479f     0x1e29 ../../bsp/ucosii_net_rozipfs/\libucosii_bsp.a(alt_sys_init.o)
 .debug_info    0x000465c8      0xb8b ../../bsp/ucosii_net_rozipfs/\libucosii_bsp.a(altera_avalon_cfi_flash.o)
 .debug_info    0x00047153      0xe77 ../../bsp/ucosii_net_rozipfs/\libucosii_bsp.a(altera_avalon_cfi_flash_table.o)
 .debug_info    0x00047fca      0xa14 ../../bsp/ucosii_net_rozipfs/\libucosii_bsp.a(altera_avalon_jtag_uart_fd.o)
 .debug_info    0x000489de      0x992 ../../bsp/ucosii_net_rozipfs/\libucosii_bsp.a(altera_avalon_jtag_uart_init.o)
 .debug_info    0x00049370      0x67e ../../bsp/ucosii_net_rozipfs/\libucosii_bsp.a(altera_avalon_jtag_uart_ioctl.o)
 .debug_info    0x000499ee      0x83a ../../bsp/ucosii_net_rozipfs/\libucosii_bsp.a(altera_avalon_jtag_uart_read.o)
 .debug_info    0x0004a228      0x831 ../../bsp/ucosii_net_rozipfs/\libucosii_bsp.a(altera_avalon_jtag_uart_write.o)
 .debug_info    0x0004aa59      0xae0 ../../bsp/ucosii_net_rozipfs/\libucosii_bsp.a(altera_avalon_lcd_16207.o)
 .debug_info    0x0004b539      0x878 ../../bsp/ucosii_net_rozipfs/\libucosii_bsp.a(altera_avalon_lcd_16207_fd.o)
 .debug_info    0x0004bdb1      0xf61 ../../bsp/ucosii_net_rozipfs/\libucosii_bsp.a(altera_avalon_sgdma.o)
 .debug_info    0x0004cd12      0x3cd ../../bsp/ucosii_net_rozipfs/\libucosii_bsp.a(altera_avalon_timer_sc.o)
 .debug_info    0x0004d0df     0x3150 ../../bsp/ucosii_net_rozipfs/\libucosii_bsp.a(altera_avalon_tse.o)
 .debug_info    0x0005022f      0xf60 ../../bsp/ucosii_net_rozipfs/\libucosii_bsp.a(altera_ro_zipfs.o)
 .debug_info    0x0005118f     0x2b7e ../../bsp/ucosii_net_rozipfs/\libucosii_bsp.a(ins_tse_mac.o)
 .debug_info    0x00053d0d      0x1f8 ../../bsp/ucosii_net_rozipfs/\libucosii_bsp.a(alt_iniche_close.o)
 .debug_info    0x00053f05      0xb9f ../../bsp/ucosii_net_rozipfs/\libucosii_bsp.a(alt_iniche_dev.o)
 .debug_info    0x00054aa4      0x222 ../../bsp/ucosii_net_rozipfs/\libucosii_bsp.a(alt_iniche_read.o)
 .debug_info    0x00054cc6      0x229 ../../bsp/ucosii_net_rozipfs/\libucosii_bsp.a(alt_iniche_write.o)
 .debug_info    0x00054eef      0xc8b ../../bsp/ucosii_net_rozipfs/\libucosii_bsp.a(ipnet.o)
 .debug_info    0x00055b7a      0xbde ../../bsp/ucosii_net_rozipfs/\libucosii_bsp.a(ipstart.o)
 .debug_info    0x00056758     0x1572 ../../bsp/ucosii_net_rozipfs/\libucosii_bsp.a(igmp_cmn.o)
 .debug_info    0x00057cca     0x14a2 ../../bsp/ucosii_net_rozipfs/\libucosii_bsp.a(bsdsock.o)
 .debug_info    0x0005916c      0x294 ../../bsp/ucosii_net_rozipfs/\libucosii_bsp.a(cksum.o)
 .debug_info    0x00059400      0x786 ../../bsp/ucosii_net_rozipfs/\libucosii_bsp.a(in_utils.o)
 .debug_info    0x00059b86      0x5a0 ../../bsp/ucosii_net_rozipfs/\libucosii_bsp.a(netmain.o)
 .debug_info    0x0005a126      0x9ad ../../bsp/ucosii_net_rozipfs/\libucosii_bsp.a(tk_crnos.o)
 .debug_info    0x0005aad3     0x16a7 ../../bsp/ucosii_net_rozipfs/\libucosii_bsp.a(dhcpclnt.o)
 .debug_info    0x0005c17a      0x21e ../../bsp/ucosii_net_rozipfs/\libucosii_bsp.a(dhcputil.o)
 .debug_info    0x0005c398      0xcea ../../bsp/ucosii_net_rozipfs/\libucosii_bsp.a(pktalloc.o)
 .debug_info    0x0005d082      0x32e ../../bsp/ucosii_net_rozipfs/\libucosii_bsp.a(q.o)
 .debug_info    0x0005d3b0      0xb69 ../../bsp/ucosii_net_rozipfs/\libucosii_bsp.a(udp_open.o)
 .debug_info    0x0005df19       0xcf ../../bsp/ucosii_net_rozipfs/\libucosii_bsp.a(asm_cksum.o)
 .debug_info    0x0005dfe8      0xeef ../../bsp/ucosii_net_rozipfs/\libucosii_bsp.a(brdutils.o)
 .debug_info    0x0005eed7      0x721 ../../bsp/ucosii_net_rozipfs/\libucosii_bsp.a(osportco.o)
 .debug_info    0x0005f5f8      0x69e ../../bsp/ucosii_net_rozipfs/\libucosii_bsp.a(targnios.o)
 .debug_info    0x0005fc96     0x27e7 ../../bsp/ucosii_net_rozipfs/\libucosii_bsp.a(nptcp.o)
 .debug_info    0x0006247d     0x121d ../../bsp/ucosii_net_rozipfs/\libucosii_bsp.a(rawsock.o)
 .debug_info    0x0006369a     0x1cdb ../../bsp/ucosii_net_rozipfs/\libucosii_bsp.a(sockcall.o)
 .debug_info    0x00065375     0x1ae1 ../../bsp/ucosii_net_rozipfs/\libucosii_bsp.a(socket.o)
 .debug_info    0x00066e56     0x15a7 ../../bsp/ucosii_net_rozipfs/\libucosii_bsp.a(socket2.o)
 .debug_info    0x000683fd     0x12c0 ../../bsp/ucosii_net_rozipfs/\libucosii_bsp.a(soselect.o)
 .debug_info    0x000696bd     0x2172 ../../bsp/ucosii_net_rozipfs/\libucosii_bsp.a(tcp_in.o)
 .debug_info    0x0006b82f     0x1e61 ../../bsp/ucosii_net_rozipfs/\libucosii_bsp.a(tcp_out.o)
 .debug_info    0x0006d690     0x1ec9 ../../bsp/ucosii_net_rozipfs/\libucosii_bsp.a(tcp_subr.o)
 .debug_info    0x0006f559     0x1ce4 ../../bsp/ucosii_net_rozipfs/\libucosii_bsp.a(tcp_timr.o)
 .debug_info    0x0007123d     0x1ca1 ../../bsp/ucosii_net_rozipfs/\libucosii_bsp.a(tcp_usr.o)
 .debug_info    0x00072ede      0x1f4 ../../bsp/ucosii_net_rozipfs/\libucosii_bsp.a(tcpport.o)
 .debug_info    0x000730d2     0x1377 ../../bsp/ucosii_net_rozipfs/\libucosii_bsp.a(udpsock.o)
 .debug_info    0x00074449      0x484 ../../bsp/ucosii_net_rozipfs/\libucosii_bsp.a(alt_alarm_start.o)
 .debug_info    0x000748cd      0x1ed ../../bsp/ucosii_net_rozipfs/\libucosii_bsp.a(alt_busy_sleep.o)
 .debug_info    0x00074aba      0x501 ../../bsp/ucosii_net_rozipfs/\libucosii_bsp.a(alt_close.o)
 .debug_info    0x00074fbb      0x1e6 ../../bsp/ucosii_net_rozipfs/\libucosii_bsp.a(alt_dcache_flush.o)
 .debug_info    0x000751a1      0x81f ../../bsp/ucosii_net_rozipfs/\libucosii_bsp.a(alt_dev.o)
 .debug_info    0x000759c0      0x2f9 ../../bsp/ucosii_net_rozipfs/\libucosii_bsp.a(alt_dev_llist_insert.o)
 .debug_info    0x00075cb9      0x151 ../../bsp/ucosii_net_rozipfs/\libucosii_bsp.a(alt_do_ctors.o)
 .debug_info    0x00075e0a      0x150 ../../bsp/ucosii_net_rozipfs/\libucosii_bsp.a(alt_do_dtors.o)
 .debug_info    0x00075f5a      0x1a6 ../../bsp/ucosii_net_rozipfs/\libucosii_bsp.a(alt_errno.o)
 .debug_info    0x00076100      0x4ae ../../bsp/ucosii_net_rozipfs/\libucosii_bsp.a(alt_find_dev.o)
 .debug_info    0x000765ae      0x4b5 ../../bsp/ucosii_net_rozipfs/\libucosii_bsp.a(alt_find_file.o)
 .debug_info    0x00076a63      0x62f ../../bsp/ucosii_net_rozipfs/\libucosii_bsp.a(alt_flash_dev.o)
 .debug_info    0x00077092      0x4c6 ../../bsp/ucosii_net_rozipfs/\libucosii_bsp.a(alt_fs_reg.o)
 .debug_info    0x00077558      0x647 ../../bsp/ucosii_net_rozipfs/\libucosii_bsp.a(alt_get_fd.o)
 .debug_info    0x00077b9f      0x4d5 ../../bsp/ucosii_net_rozipfs/\libucosii_bsp.a(alt_iic.o)
 .debug_info    0x00078074      0x356 ../../bsp/ucosii_net_rozipfs/\libucosii_bsp.a(alt_iic_isr_register.o)
 .debug_info    0x000783ca      0x72b ../../bsp/ucosii_net_rozipfs/\libucosii_bsp.a(alt_io_redirect.o)
 .debug_info    0x00078af5       0xc6 ../../bsp/ucosii_net_rozipfs/\libucosii_bsp.a(alt_irq_entry.o)
 .debug_info    0x00078bbb      0x2fc ../../bsp/ucosii_net_rozipfs/\libucosii_bsp.a(alt_irq_handler.o)
 .debug_info    0x00078eb7      0x1a9 ../../bsp/ucosii_net_rozipfs/\libucosii_bsp.a(alt_irq_vars.o)
 .debug_info    0x00079060      0x724 ../../bsp/ucosii_net_rozipfs/\libucosii_bsp.a(alt_read.o)
 .debug_info    0x00079784      0x1d3 ../../bsp/ucosii_net_rozipfs/\libucosii_bsp.a(alt_remap_cached.o)
 .debug_info    0x00079957      0x1d7 ../../bsp/ucosii_net_rozipfs/\libucosii_bsp.a(alt_remap_uncached.o)
 .debug_info    0x00079b2e      0x1d9 ../../bsp/ucosii_net_rozipfs/\libucosii_bsp.a(alt_uncached_malloc.o)
 .debug_info    0x00079d07      0x72d ../../bsp/ucosii_net_rozipfs/\libucosii_bsp.a(alt_write.o)
 .debug_info    0x0007a434      0x1a5 ../../bsp/ucosii_net_rozipfs/\libucosii_bsp.a(altera_nios2_qsys_irq.o)
 .debug_info    0x0007a5d9       0xc5 ../../bsp/ucosii_net_rozipfs/\libucosii_bsp.a(os_cpu_a.o)
 .debug_info    0x0007a69e     0x1315 ../../bsp/ucosii_net_rozipfs/\libucosii_bsp.a(os_cpu_c.o)
 .debug_info    0x0007b9b3      0x92b ../../bsp/ucosii_net_rozipfs/\libucosii_bsp.a(altera_avalon_cfi_flash_amd.o)
 .debug_info    0x0007c2de      0x921 ../../bsp/ucosii_net_rozipfs/\libucosii_bsp.a(altera_avalon_cfi_flash_intel.o)
 .debug_info    0x0007cbff      0xde1 ../../bsp/ucosii_net_rozipfs/\libucosii_bsp.a(allports.o)
 .debug_info    0x0007d9e0      0x403 ../../bsp/ucosii_net_rozipfs/\libucosii_bsp.a(timeouts.o)
 .debug_info    0x0007dde3      0x262 ../../bsp/ucosii_net_rozipfs/\libucosii_bsp.a(tk_misc.o)
 .debug_info    0x0007e045      0x24f ../../bsp/ucosii_net_rozipfs/\libucosii_bsp.a(alt_iniche_fcntl.o)
 .debug_info    0x0007e294     0x1321 ../../bsp/ucosii_net_rozipfs/\libucosii_bsp.a(et_arp.o)
 .debug_info    0x0007f5b5      0xfd9 ../../bsp/ucosii_net_rozipfs/\libucosii_bsp.a(iface.o)
 .debug_info    0x0008058e     0x1746 ../../bsp/ucosii_net_rozipfs/\libucosii_bsp.a(ip.o)
 .debug_info    0x00081cd4     0x18aa ../../bsp/ucosii_net_rozipfs/\libucosii_bsp.a(ip_reasm.o)
 .debug_info    0x0008357e      0xe5e ../../bsp/ucosii_net_rozipfs/\libucosii_bsp.a(ipdemux.o)
 .debug_info    0x000843dc      0xa87 ../../bsp/ucosii_net_rozipfs/\libucosii_bsp.a(ipmc.o)
 .debug_info    0x00084e63      0x325 ../../bsp/ucosii_net_rozipfs/\libucosii_bsp.a(ipport.o)
 .debug_info    0x00085188      0xf98 ../../bsp/ucosii_net_rozipfs/\libucosii_bsp.a(ipraw.o)
 .debug_info    0x00086120      0xf43 ../../bsp/ucosii_net_rozipfs/\libucosii_bsp.a(iproute.o)
 .debug_info    0x00087063     0x1398 ../../bsp/ucosii_net_rozipfs/\libucosii_bsp.a(udp.o)
 .debug_info    0x000883fb     0x1174 ../../bsp/ucosii_net_rozipfs/\libucosii_bsp.a(igmp.o)
 .debug_info    0x0008956f     0x13a8 ../../bsp/ucosii_net_rozipfs/\libucosii_bsp.a(igmp2.o)
 .debug_info    0x0008a917     0x1123 ../../bsp/ucosii_net_rozipfs/\libucosii_bsp.a(ipopt.o)
 .debug_info    0x0008ba3a      0xbfb ../../bsp/ucosii_net_rozipfs/\libucosii_bsp.a(u_mctest.o)
 .debug_info    0x0008c635      0xa99 ../../bsp/ucosii_net_rozipfs/\libucosii_bsp.a(dhcsetup.o)
 .debug_info    0x0008d0ce      0x781 ../../bsp/ucosii_net_rozipfs/\libucosii_bsp.a(memdev.o)
 .debug_info    0x0008d84f      0x72c ../../bsp/ucosii_net_rozipfs/\libucosii_bsp.a(parseip.o)
 .debug_info    0x0008df7b      0x426 ../../bsp/ucosii_net_rozipfs/\libucosii_bsp.a(tcpcksum.o)
 .debug_info    0x0008e3a1     0x12f5 ../../bsp/ucosii_net_rozipfs/\libucosii_bsp.a(in_pcb.o)
 .debug_info    0x0008f696     0x1026 ../../bsp/ucosii_net_rozipfs/\libucosii_bsp.a(vfsfiles.o)
 .debug_info    0x000906bc      0x1f5 ../../bsp/ucosii_net_rozipfs/\libucosii_bsp.a(vfsport.o)
 .debug_info    0x000908b1       0xcc ../../bsp/ucosii_net_rozipfs/\libucosii_bsp.a(alt_exception_entry.o)
 .debug_info    0x0009097d      0x742 ../../bsp/ucosii_net_rozipfs/\libucosii_bsp.a(alt_fcntl.o)
 .debug_info    0x000910bf     0x11fd ../../bsp/ucosii_net_rozipfs/\libucosii_bsp.a(icmp.o)
 .debug_info    0x000922bc      0x181 d:/altera/12.1sp1b243/nios2eds/bin/gnu/h-i686-mingw32/bin/../lib/gcc/nios2-elf/4.1.2/../../../../nios2-elf/lib\libc.a(lib_a-atexit.o)
 .debug_info    0x0009243d      0x93f d:/altera/12.1sp1b243/nios2eds/bin/gnu/h-i686-mingw32/bin/../lib/gcc/nios2-elf/4.1.2/../../../../nios2-elf/lib\libc.a(lib_a-exit.o)
 .debug_info    0x00092d7c      0x9aa d:/altera/12.1sp1b243/nios2eds/bin/gnu/h-i686-mingw32/bin/../lib/gcc/nios2-elf/4.1.2/../../../../nios2-elf/lib\libc.a(lib_a-vprintf.o)
 .debug_info    0x00093726      0x99c d:/altera/12.1sp1b243/nios2eds/bin/gnu/h-i686-mingw32/bin/../lib/gcc/nios2-elf/4.1.2/../../../../nios2-elf/lib\libc.a(lib_a-__atexit.o)
 .debug_info    0x000940c2      0x9e2 d:/altera/12.1sp1b243/nios2eds/bin/gnu/h-i686-mingw32/bin/../lib/gcc/nios2-elf/4.1.2/../../../../nios2-elf/lib\libc.a(lib_a-__call_atexit.o)
 .debug_info    0x00094aa4      0x24a ../../bsp/ucosii_net_rozipfs/\libucosii_bsp.a(alt_exit.o)

.debug_abbrev   0x00000000    0x1519f
 *(.debug_abbrev)
 .debug_abbrev  0x00000000       0x14 ../../bsp/ucosii_net_rozipfs//obj/HAL/src/crt0.o
 .debug_abbrev  0x00000014      0x179 obj/default/src/flash_intel_p30/flash_intel_p30.o
 .debug_abbrev  0x0000018d      0x1f1 obj/default/src/main.o
 .debug_abbrev  0x0000037e      0x212 obj/default/src/os_utils.o
 .debug_abbrev  0x00000590       0xc4 obj/default/src/reconfig_utils.o
 .debug_abbrev  0x00000654       0xb9 obj/default/src/srec/srec.o
 .debug_abbrev  0x0000070d        0x1 obj/default/src/tse_my_system.o
 .debug_abbrev  0x0000070e      0x36f obj/default/src/webserver.o
 .debug_abbrev  0x00000a7d       0xe0 d:/altera/12.1sp1b243/nios2eds/bin/gnu/h-i686-mingw32/bin/../lib/gcc/nios2-elf/4.1.2\libgcc.a(lib2-divmod.o)
 .debug_abbrev  0x00000b5d      0x176 d:/altera/12.1sp1b243/nios2eds/bin/gnu/h-i686-mingw32/bin/../lib/gcc/nios2-elf/4.1.2/../../../../nios2-elf/lib\libc.a(lib_a-atoi.o)
 .debug_abbrev  0x00000cd3      0x17f d:/altera/12.1sp1b243/nios2eds/bin/gnu/h-i686-mingw32/bin/../lib/gcc/nios2-elf/4.1.2/../../../../nios2-elf/lib\libc.a(lib_a-calloc.o)
 .debug_abbrev  0x00000e52      0x1b8 d:/altera/12.1sp1b243/nios2eds/bin/gnu/h-i686-mingw32/bin/../lib/gcc/nios2-elf/4.1.2/../../../../nios2-elf/lib\libc.a(lib_a-callocr.o)
 .debug_abbrev  0x0000100a       0x61 d:/altera/12.1sp1b243/nios2eds/bin/gnu/h-i686-mingw32/bin/../lib/gcc/nios2-elf/4.1.2/../../../../nios2-elf/lib\libc.a(lib_a-ctype_.o)
 .debug_abbrev  0x0000106b      0x1a7 d:/altera/12.1sp1b243/nios2eds/bin/gnu/h-i686-mingw32/bin/../lib/gcc/nios2-elf/4.1.2/../../../../nios2-elf/lib\libc.a(lib_a-fclose.o)
 .debug_abbrev  0x00001212      0x1c6 d:/altera/12.1sp1b243/nios2eds/bin/gnu/h-i686-mingw32/bin/../lib/gcc/nios2-elf/4.1.2/../../../../nios2-elf/lib\libc.a(lib_a-fflush.o)
 .debug_abbrev  0x000013d8      0x189 d:/altera/12.1sp1b243/nios2eds/bin/gnu/h-i686-mingw32/bin/../lib/gcc/nios2-elf/4.1.2/../../../../nios2-elf/lib\libc.a(lib_a-fgetpos.o)
 .debug_abbrev  0x00001561      0x24c d:/altera/12.1sp1b243/nios2eds/bin/gnu/h-i686-mingw32/bin/../lib/gcc/nios2-elf/4.1.2/../../../../nios2-elf/lib\libc.a(lib_a-findfp.o)
 .debug_abbrev  0x000017ad      0x1b6 d:/altera/12.1sp1b243/nios2eds/bin/gnu/h-i686-mingw32/bin/../lib/gcc/nios2-elf/4.1.2/../../../../nios2-elf/lib\libc.a(lib_a-fopen.o)
 .debug_abbrev  0x00001963      0x20d d:/altera/12.1sp1b243/nios2eds/bin/gnu/h-i686-mingw32/bin/../lib/gcc/nios2-elf/4.1.2/../../../../nios2-elf/lib\libc.a(lib_a-fread.o)
 .debug_abbrev  0x00001b70      0x1d9 d:/altera/12.1sp1b243/nios2eds/bin/gnu/h-i686-mingw32/bin/../lib/gcc/nios2-elf/4.1.2/../../../../nios2-elf/lib\libc.a(lib_a-freer.o)
 .debug_abbrev  0x00001d49      0x208 d:/altera/12.1sp1b243/nios2eds/bin/gnu/h-i686-mingw32/bin/../lib/gcc/nios2-elf/4.1.2/../../../../nios2-elf/lib\libc.a(lib_a-fseek.o)
 .debug_abbrev  0x00001f51      0x18e d:/altera/12.1sp1b243/nios2eds/bin/gnu/h-i686-mingw32/bin/../lib/gcc/nios2-elf/4.1.2/../../../../nios2-elf/lib\libc.a(lib_a-fstatr.o)
 .debug_abbrev  0x000020df      0x198 d:/altera/12.1sp1b243/nios2eds/bin/gnu/h-i686-mingw32/bin/../lib/gcc/nios2-elf/4.1.2/../../../../nios2-elf/lib\libc.a(lib_a-ftell.o)
 .debug_abbrev  0x00002277      0x1e3 d:/altera/12.1sp1b243/nios2eds/bin/gnu/h-i686-mingw32/bin/../lib/gcc/nios2-elf/4.1.2/../../../../nios2-elf/lib\libc.a(lib_a-fwalk.o)
 .debug_abbrev  0x0000245a      0x1b1 d:/altera/12.1sp1b243/nios2eds/bin/gnu/h-i686-mingw32/bin/../lib/gcc/nios2-elf/4.1.2/../../../../nios2-elf/lib\libc.a(lib_a-fwrite.o)
 .debug_abbrev  0x0000260b      0x17f d:/altera/12.1sp1b243/nios2eds/bin/gnu/h-i686-mingw32/bin/../lib/gcc/nios2-elf/4.1.2/../../../../nios2-elf/lib\libc.a(lib_a-getc.o)
 .debug_abbrev  0x0000278a      0x157 d:/altera/12.1sp1b243/nios2eds/bin/gnu/h-i686-mingw32/bin/../lib/gcc/nios2-elf/4.1.2/../../../../nios2-elf/lib\libc.a(lib_a-impure.o)
 .debug_abbrev  0x000028e1       0x3b d:/altera/12.1sp1b243/nios2eds/bin/gnu/h-i686-mingw32/bin/../lib/gcc/nios2-elf/4.1.2/../../../../nios2-elf/lib\libc.a(lib_a-int_errno.o)
 .debug_abbrev  0x0000291c      0x197 d:/altera/12.1sp1b243/nios2eds/bin/gnu/h-i686-mingw32/bin/../lib/gcc/nios2-elf/4.1.2/../../../../nios2-elf/lib\libc.a(lib_a-makebuf.o)
 .debug_abbrev  0x00002ab3      0x187 d:/altera/12.1sp1b243/nios2eds/bin/gnu/h-i686-mingw32/bin/../lib/gcc/nios2-elf/4.1.2/../../../../nios2-elf/lib\libc.a(lib_a-malloc.o)
 .debug_abbrev  0x00002c3a      0x216 d:/altera/12.1sp1b243/nios2eds/bin/gnu/h-i686-mingw32/bin/../lib/gcc/nios2-elf/4.1.2/../../../../nios2-elf/lib\libc.a(lib_a-mallocr.o)
 .debug_abbrev  0x00002e50       0xb5 d:/altera/12.1sp1b243/nios2eds/bin/gnu/h-i686-mingw32/bin/../lib/gcc/nios2-elf/4.1.2/../../../../nios2-elf/lib\libc.a(lib_a-memchr.o)
 .debug_abbrev  0x00002f05       0x7c d:/altera/12.1sp1b243/nios2eds/bin/gnu/h-i686-mingw32/bin/../lib/gcc/nios2-elf/4.1.2/../../../../nios2-elf/lib\libc.a(lib_a-memcmp.o)
 .debug_abbrev  0x00002f81       0xb5 d:/altera/12.1sp1b243/nios2eds/bin/gnu/h-i686-mingw32/bin/../lib/gcc/nios2-elf/4.1.2/../../../../nios2-elf/lib\libc.a(lib_a-memcpy.o)
 .debug_abbrev  0x00003036       0xb5 d:/altera/12.1sp1b243/nios2eds/bin/gnu/h-i686-mingw32/bin/../lib/gcc/nios2-elf/4.1.2/../../../../nios2-elf/lib\libc.a(lib_a-memmove.o)
 .debug_abbrev  0x000030eb       0xb8 d:/altera/12.1sp1b243/nios2eds/bin/gnu/h-i686-mingw32/bin/../lib/gcc/nios2-elf/4.1.2/../../../../nios2-elf/lib\libc.a(lib_a-memset.o)
 .debug_abbrev  0x000031a3      0x18e d:/altera/12.1sp1b243/nios2eds/bin/gnu/h-i686-mingw32/bin/../lib/gcc/nios2-elf/4.1.2/../../../../nios2-elf/lib\libc.a(lib_a-openr.o)
 .debug_abbrev  0x00003331      0x194 d:/altera/12.1sp1b243/nios2eds/bin/gnu/h-i686-mingw32/bin/../lib/gcc/nios2-elf/4.1.2/../../../../nios2-elf/lib\libc.a(lib_a-perror.o)
 .debug_abbrev  0x000034c5      0x17f d:/altera/12.1sp1b243/nios2eds/bin/gnu/h-i686-mingw32/bin/../lib/gcc/nios2-elf/4.1.2/../../../../nios2-elf/lib\libc.a(lib_a-putc.o)
 .debug_abbrev  0x00003644      0x1ac d:/altera/12.1sp1b243/nios2eds/bin/gnu/h-i686-mingw32/bin/../lib/gcc/nios2-elf/4.1.2/../../../../nios2-elf/lib\libc.a(lib_a-puts.o)
 .debug_abbrev  0x000037f0      0x187 d:/altera/12.1sp1b243/nios2eds/bin/gnu/h-i686-mingw32/bin/../lib/gcc/nios2-elf/4.1.2/../../../../nios2-elf/lib\libc.a(lib_a-refill.o)
 .debug_abbrev  0x00003977      0x189 d:/altera/12.1sp1b243/nios2eds/bin/gnu/h-i686-mingw32/bin/../lib/gcc/nios2-elf/4.1.2/../../../../nios2-elf/lib\libc.a(lib_a-rget.o)
 .debug_abbrev  0x00003b00      0x18c d:/altera/12.1sp1b243/nios2eds/bin/gnu/h-i686-mingw32/bin/../lib/gcc/nios2-elf/4.1.2/../../../../nios2-elf/lib\libc.a(lib_a-sbrkr.o)
 .debug_abbrev  0x00003c8c      0x191 d:/altera/12.1sp1b243/nios2eds/bin/gnu/h-i686-mingw32/bin/../lib/gcc/nios2-elf/4.1.2/../../../../nios2-elf/lib\libc.a(lib_a-sprintf.o)
 .debug_abbrev  0x00003e1d      0x1c6 d:/altera/12.1sp1b243/nios2eds/bin/gnu/h-i686-mingw32/bin/../lib/gcc/nios2-elf/4.1.2/../../../../nios2-elf/lib\libc.a(lib_a-sscanf.o)
 .debug_abbrev  0x00003fe3      0x1c9 d:/altera/12.1sp1b243/nios2eds/bin/gnu/h-i686-mingw32/bin/../lib/gcc/nios2-elf/4.1.2/../../../../nios2-elf/lib\libc.a(lib_a-stdio.o)
 .debug_abbrev  0x000041ac       0x96 d:/altera/12.1sp1b243/nios2eds/bin/gnu/h-i686-mingw32/bin/../lib/gcc/nios2-elf/4.1.2/../../../../nios2-elf/lib\libc.a(lib_a-strcasecmp.o)
 .debug_abbrev  0x00004242       0x80 d:/altera/12.1sp1b243/nios2eds/bin/gnu/h-i686-mingw32/bin/../lib/gcc/nios2-elf/4.1.2/../../../../nios2-elf/lib\libc.a(lib_a-strchr.o)
 .debug_abbrev  0x000042c2       0x80 d:/altera/12.1sp1b243/nios2eds/bin/gnu/h-i686-mingw32/bin/../lib/gcc/nios2-elf/4.1.2/../../../../nios2-elf/lib\libc.a(lib_a-strcmp.o)
 .debug_abbrev  0x00004342       0x8f d:/altera/12.1sp1b243/nios2eds/bin/gnu/h-i686-mingw32/bin/../lib/gcc/nios2-elf/4.1.2/../../../../nios2-elf/lib\libc.a(lib_a-strcpy.o)
 .debug_abbrev  0x000043d1       0x68 d:/altera/12.1sp1b243/nios2eds/bin/gnu/h-i686-mingw32/bin/../lib/gcc/nios2-elf/4.1.2/../../../../nios2-elf/lib\libc.a(lib_a-strerror.o)
 .debug_abbrev  0x00004439       0x8b d:/altera/12.1sp1b243/nios2eds/bin/gnu/h-i686-mingw32/bin/../lib/gcc/nios2-elf/4.1.2/../../../../nios2-elf/lib\libc.a(lib_a-strlen.o)
 .debug_abbrev  0x000044c4       0x8d d:/altera/12.1sp1b243/nios2eds/bin/gnu/h-i686-mingw32/bin/../lib/gcc/nios2-elf/4.1.2/../../../../nios2-elf/lib\libc.a(lib_a-strncmp.o)
 .debug_abbrev  0x00004551       0x9c d:/altera/12.1sp1b243/nios2eds/bin/gnu/h-i686-mingw32/bin/../lib/gcc/nios2-elf/4.1.2/../../../../nios2-elf/lib\libc.a(lib_a-strncpy.o)
 .debug_abbrev  0x000045ed      0x19a d:/altera/12.1sp1b243/nios2eds/bin/gnu/h-i686-mingw32/bin/../lib/gcc/nios2-elf/4.1.2/../../../../nios2-elf/lib\libc.a(lib_a-strstr.o)
 .debug_abbrev  0x00004787      0x17f d:/altera/12.1sp1b243/nios2eds/bin/gnu/h-i686-mingw32/bin/../lib/gcc/nios2-elf/4.1.2/../../../../nios2-elf/lib\libc.a(lib_a-strtok.o)
 .debug_abbrev  0x00004906       0xcd d:/altera/12.1sp1b243/nios2eds/bin/gnu/h-i686-mingw32/bin/../lib/gcc/nios2-elf/4.1.2/../../../../nios2-elf/lib\libc.a(lib_a-strtok_r.o)
 .debug_abbrev  0x000049d3      0x1c7 d:/altera/12.1sp1b243/nios2eds/bin/gnu/h-i686-mingw32/bin/../lib/gcc/nios2-elf/4.1.2/../../../../nios2-elf/lib\libc.a(lib_a-strtol.o)
 .debug_abbrev  0x00004b9a       0x5b d:/altera/12.1sp1b243/nios2eds/bin/gnu/h-i686-mingw32/bin/../lib/gcc/nios2-elf/4.1.2/../../../../nios2-elf/lib\libc.a(lib_a-u_strerr.o)
 .debug_abbrev  0x00004bf5      0x30a d:/altera/12.1sp1b243/nios2eds/bin/gnu/h-i686-mingw32/bin/../lib/gcc/nios2-elf/4.1.2/../../../../nios2-elf/lib\libc.a(lib_a-vfprintf.o)
 .debug_abbrev  0x00004eff      0x286 d:/altera/12.1sp1b243/nios2eds/bin/gnu/h-i686-mingw32/bin/../lib/gcc/nios2-elf/4.1.2/../../../../nios2-elf/lib\libc.a(lib_a-vfscanf.o)
 .debug_abbrev  0x00005185      0x1a5 d:/altera/12.1sp1b243/nios2eds/bin/gnu/h-i686-mingw32/bin/../lib/gcc/nios2-elf/4.1.2/../../../../nios2-elf/lib\libc.a(lib_a-vsprintf.o)
 .debug_abbrev  0x0000532a      0x198 d:/altera/12.1sp1b243/nios2eds/bin/gnu/h-i686-mingw32/bin/../lib/gcc/nios2-elf/4.1.2/../../../../nios2-elf/lib\libc.a(lib_a-wbuf.o)
 .debug_abbrev  0x000054c2      0x184 d:/altera/12.1sp1b243/nios2eds/bin/gnu/h-i686-mingw32/bin/../lib/gcc/nios2-elf/4.1.2/../../../../nios2-elf/lib\libc.a(lib_a-writer.o)
 .debug_abbrev  0x00005646      0x170 d:/altera/12.1sp1b243/nios2eds/bin/gnu/h-i686-mingw32/bin/../lib/gcc/nios2-elf/4.1.2/../../../../nios2-elf/lib\libc.a(lib_a-wsetup.o)
 .debug_abbrev  0x000057b6      0x17f d:/altera/12.1sp1b243/nios2eds/bin/gnu/h-i686-mingw32/bin/../lib/gcc/nios2-elf/4.1.2/../../../../nios2-elf/lib\libc.a(lib_a-closer.o)
 .debug_abbrev  0x00005935      0x232 d:/altera/12.1sp1b243/nios2eds/bin/gnu/h-i686-mingw32/bin/../lib/gcc/nios2-elf/4.1.2/../../../../nios2-elf/lib\libc.a(lib_a-dtoa.o)
 .debug_abbrev  0x00005b67      0x17d d:/altera/12.1sp1b243/nios2eds/bin/gnu/h-i686-mingw32/bin/../lib/gcc/nios2-elf/4.1.2/../../../../nios2-elf/lib\libc.a(lib_a-flags.o)
 .debug_abbrev  0x00005ce4      0x18c d:/altera/12.1sp1b243/nios2eds/bin/gnu/h-i686-mingw32/bin/../lib/gcc/nios2-elf/4.1.2/../../../../nios2-elf/lib\libc.a(lib_a-fputc.o)
 .debug_abbrev  0x00005e70      0x1aa d:/altera/12.1sp1b243/nios2eds/bin/gnu/h-i686-mingw32/bin/../lib/gcc/nios2-elf/4.1.2/../../../../nios2-elf/lib\libc.a(lib_a-fputs.o)
 .debug_abbrev  0x0000601a      0x1a3 d:/altera/12.1sp1b243/nios2eds/bin/gnu/h-i686-mingw32/bin/../lib/gcc/nios2-elf/4.1.2/../../../../nios2-elf/lib\libc.a(lib_a-fvwrite.o)
 .debug_abbrev  0x000061bd      0x17f d:/altera/12.1sp1b243/nios2eds/bin/gnu/h-i686-mingw32/bin/../lib/gcc/nios2-elf/4.1.2/../../../../nios2-elf/lib\libc.a(lib_a-isattyr.o)
 .debug_abbrev  0x0000633c       0x9f d:/altera/12.1sp1b243/nios2eds/bin/gnu/h-i686-mingw32/bin/../lib/gcc/nios2-elf/4.1.2/../../../../nios2-elf/lib\libc.a(lib_a-iswspace.o)
 .debug_abbrev  0x000063db      0x1ed d:/altera/12.1sp1b243/nios2eds/bin/gnu/h-i686-mingw32/bin/../lib/gcc/nios2-elf/4.1.2/../../../../nios2-elf/lib\libc.a(lib_a-locale.o)
 .debug_abbrev  0x000065c8      0x18e d:/altera/12.1sp1b243/nios2eds/bin/gnu/h-i686-mingw32/bin/../lib/gcc/nios2-elf/4.1.2/../../../../nios2-elf/lib\libc.a(lib_a-lseekr.o)
 .debug_abbrev  0x00006756      0x17f d:/altera/12.1sp1b243/nios2eds/bin/gnu/h-i686-mingw32/bin/../lib/gcc/nios2-elf/4.1.2/../../../../nios2-elf/lib\libc.a(lib_a-mbrtowc.o)
 .debug_abbrev  0x000068d5      0x18a d:/altera/12.1sp1b243/nios2eds/bin/gnu/h-i686-mingw32/bin/../lib/gcc/nios2-elf/4.1.2/../../../../nios2-elf/lib\libc.a(lib_a-mbtowc_r.o)
 .debug_abbrev  0x00006a5f      0x297 d:/altera/12.1sp1b243/nios2eds/bin/gnu/h-i686-mingw32/bin/../lib/gcc/nios2-elf/4.1.2/../../../../nios2-elf/lib\libc.a(lib_a-mprec.o)
 .debug_abbrev  0x00006cf6      0x17f d:/altera/12.1sp1b243/nios2eds/bin/gnu/h-i686-mingw32/bin/../lib/gcc/nios2-elf/4.1.2/../../../../nios2-elf/lib\libc.a(lib_a-readr.o)
 .debug_abbrev  0x00006e75      0x1c3 d:/altera/12.1sp1b243/nios2eds/bin/gnu/h-i686-mingw32/bin/../lib/gcc/nios2-elf/4.1.2/../../../../nios2-elf/lib\libc.a(lib_a-reallocr.o)
 .debug_abbrev  0x00007038       0x79 d:/altera/12.1sp1b243/nios2eds/bin/gnu/h-i686-mingw32/bin/../lib/gcc/nios2-elf/4.1.2/../../../../nios2-elf/lib\libc.a(lib_a-s_isinfd.o)
 .debug_abbrev  0x000070b1       0x79 d:/altera/12.1sp1b243/nios2eds/bin/gnu/h-i686-mingw32/bin/../lib/gcc/nios2-elf/4.1.2/../../../../nios2-elf/lib\libc.a(lib_a-s_isnand.o)
 .debug_abbrev  0x0000712a       0x93 d:/altera/12.1sp1b243/nios2eds/bin/gnu/h-i686-mingw32/bin/../lib/gcc/nios2-elf/4.1.2/../../../../nios2-elf/lib\libc.a(lib_a-sccl.o)
 .debug_abbrev  0x000071bd       0x6d d:/altera/12.1sp1b243/nios2eds/bin/gnu/h-i686-mingw32/bin/../lib/gcc/nios2-elf/4.1.2/../../../../nios2-elf/lib\libc.a(lib_a-sf_nan.o)
 .debug_abbrev  0x0000722a      0x2e8 d:/altera/12.1sp1b243/nios2eds/bin/gnu/h-i686-mingw32/bin/../lib/gcc/nios2-elf/4.1.2/../../../../nios2-elf/lib\libc.a(lib_a-strtod.o)
 .debug_abbrev  0x00007512      0x18e d:/altera/12.1sp1b243/nios2eds/bin/gnu/h-i686-mingw32/bin/../lib/gcc/nios2-elf/4.1.2/../../../../nios2-elf/lib\libc.a(lib_a-strtoll_r.o)
 .debug_abbrev  0x000076a0      0x1c5 d:/altera/12.1sp1b243/nios2eds/bin/gnu/h-i686-mingw32/bin/../lib/gcc/nios2-elf/4.1.2/../../../../nios2-elf/lib\libc.a(lib_a-strtoul.o)
 .debug_abbrev  0x00007865      0x18c d:/altera/12.1sp1b243/nios2eds/bin/gnu/h-i686-mingw32/bin/../lib/gcc/nios2-elf/4.1.2/../../../../nios2-elf/lib\libc.a(lib_a-strtoull_r.o)
 .debug_abbrev  0x000079f1      0x1a7 d:/altera/12.1sp1b243/nios2eds/bin/gnu/h-i686-mingw32/bin/../lib/gcc/nios2-elf/4.1.2/../../../../nios2-elf/lib\libc.a(lib_a-ungetc.o)
 .debug_abbrev  0x00007b98      0x273 d:/altera/12.1sp1b243/nios2eds/bin/gnu/h-i686-mingw32/bin/../lib/gcc/nios2-elf/4.1.2/../../../../nios2-elf/lib\libc.a(lib_a-gdtoa-gethex.o)
 .debug_abbrev  0x00007e0b      0x117 d:/altera/12.1sp1b243/nios2eds/bin/gnu/h-i686-mingw32/bin/../lib/gcc/nios2-elf/4.1.2/../../../../nios2-elf/lib\libc.a(lib_a-gdtoa-hexnan.o)
 .debug_abbrev  0x00007f22       0xee d:/altera/12.1sp1b243/nios2eds/bin/gnu/h-i686-mingw32/bin/../lib/gcc/nios2-elf/4.1.2\libgcc.a(_muldi3.o)
 .debug_abbrev  0x00008010       0x5d d:/altera/12.1sp1b243/nios2eds/bin/gnu/h-i686-mingw32/bin/../lib/gcc/nios2-elf/4.1.2\libgcc.a(_fixunsdfsi.o)
 .debug_abbrev  0x0000806d      0x16b d:/altera/12.1sp1b243/nios2eds/bin/gnu/h-i686-mingw32/bin/../lib/gcc/nios2-elf/4.1.2\libgcc.a(_udivdi3.o)
 .debug_abbrev  0x000081d8      0x18e d:/altera/12.1sp1b243/nios2eds/bin/gnu/h-i686-mingw32/bin/../lib/gcc/nios2-elf/4.1.2\libgcc.a(_umoddi3.o)
 .debug_abbrev  0x00008366      0x151 d:/altera/12.1sp1b243/nios2eds/bin/gnu/h-i686-mingw32/bin/../lib/gcc/nios2-elf/4.1.2\libgcc.a(_ne_sf.o)
 .debug_abbrev  0x000084b7      0x151 d:/altera/12.1sp1b243/nios2eds/bin/gnu/h-i686-mingw32/bin/../lib/gcc/nios2-elf/4.1.2\libgcc.a(_gt_sf.o)
 .debug_abbrev  0x00008608      0x151 d:/altera/12.1sp1b243/nios2eds/bin/gnu/h-i686-mingw32/bin/../lib/gcc/nios2-elf/4.1.2\libgcc.a(_lt_sf.o)
 .debug_abbrev  0x00008759      0x1d2 d:/altera/12.1sp1b243/nios2eds/bin/gnu/h-i686-mingw32/bin/../lib/gcc/nios2-elf/4.1.2\libgcc.a(_addsub_df.o)
 .debug_abbrev  0x0000892b      0x204 d:/altera/12.1sp1b243/nios2eds/bin/gnu/h-i686-mingw32/bin/../lib/gcc/nios2-elf/4.1.2\libgcc.a(_mul_df.o)
 .debug_abbrev  0x00008b2f      0x1e3 d:/altera/12.1sp1b243/nios2eds/bin/gnu/h-i686-mingw32/bin/../lib/gcc/nios2-elf/4.1.2\libgcc.a(_div_df.o)
 .debug_abbrev  0x00008d12      0x151 d:/altera/12.1sp1b243/nios2eds/bin/gnu/h-i686-mingw32/bin/../lib/gcc/nios2-elf/4.1.2\libgcc.a(_eq_df.o)
 .debug_abbrev  0x00008e63      0x151 d:/altera/12.1sp1b243/nios2eds/bin/gnu/h-i686-mingw32/bin/../lib/gcc/nios2-elf/4.1.2\libgcc.a(_ne_df.o)
 .debug_abbrev  0x00008fb4      0x151 d:/altera/12.1sp1b243/nios2eds/bin/gnu/h-i686-mingw32/bin/../lib/gcc/nios2-elf/4.1.2\libgcc.a(_gt_df.o)
 .debug_abbrev  0x00009105      0x151 d:/altera/12.1sp1b243/nios2eds/bin/gnu/h-i686-mingw32/bin/../lib/gcc/nios2-elf/4.1.2\libgcc.a(_ge_df.o)
 .debug_abbrev  0x00009256      0x151 d:/altera/12.1sp1b243/nios2eds/bin/gnu/h-i686-mingw32/bin/../lib/gcc/nios2-elf/4.1.2\libgcc.a(_lt_df.o)
 .debug_abbrev  0x000093a7      0x151 d:/altera/12.1sp1b243/nios2eds/bin/gnu/h-i686-mingw32/bin/../lib/gcc/nios2-elf/4.1.2\libgcc.a(_le_df.o)
 .debug_abbrev  0x000094f8      0x13f d:/altera/12.1sp1b243/nios2eds/bin/gnu/h-i686-mingw32/bin/../lib/gcc/nios2-elf/4.1.2\libgcc.a(_si_to_df.o)
 .debug_abbrev  0x00009637      0x176 d:/altera/12.1sp1b243/nios2eds/bin/gnu/h-i686-mingw32/bin/../lib/gcc/nios2-elf/4.1.2\libgcc.a(_df_to_si.o)
 .debug_abbrev  0x000097ad      0x137 d:/altera/12.1sp1b243/nios2eds/bin/gnu/h-i686-mingw32/bin/../lib/gcc/nios2-elf/4.1.2\libgcc.a(_df_to_sf.o)
 .debug_abbrev  0x000098e4       0xba d:/altera/12.1sp1b243/nios2eds/bin/gnu/h-i686-mingw32/bin/../lib/gcc/nios2-elf/4.1.2\libgcc.a(_thenan_df.o)
 .debug_abbrev  0x0000999e      0x155 d:/altera/12.1sp1b243/nios2eds/bin/gnu/h-i686-mingw32/bin/../lib/gcc/nios2-elf/4.1.2\libgcc.a(_usi_to_df.o)
 .debug_abbrev  0x00009af3       0x61 d:/altera/12.1sp1b243/nios2eds/bin/gnu/h-i686-mingw32/bin/../lib/gcc/nios2-elf/4.1.2\libgcc.a(_clz.o)
 .debug_abbrev  0x00009b54       0xb9 d:/altera/12.1sp1b243/nios2eds/bin/gnu/h-i686-mingw32/bin/../lib/gcc/nios2-elf/4.1.2\libgcc.a(_clzsi2.o)
 .debug_abbrev  0x00009c0d      0x158 d:/altera/12.1sp1b243/nios2eds/bin/gnu/h-i686-mingw32/bin/../lib/gcc/nios2-elf/4.1.2\libgcc.a(_unpack_sf.o)
 .debug_abbrev  0x00009d65      0x132 d:/altera/12.1sp1b243/nios2eds/bin/gnu/h-i686-mingw32/bin/../lib/gcc/nios2-elf/4.1.2\libgcc.a(_fpcmp_parts_sf.o)
 .debug_abbrev  0x00009e97      0x100 d:/altera/12.1sp1b243/nios2eds/bin/gnu/h-i686-mingw32/bin/../lib/gcc/nios2-elf/4.1.2\libgcc.a(_make_sf.o)
 .debug_abbrev  0x00009f97      0x1b1 d:/altera/12.1sp1b243/nios2eds/bin/gnu/h-i686-mingw32/bin/../lib/gcc/nios2-elf/4.1.2\libgcc.a(_pack_df.o)
 .debug_abbrev  0x0000a148      0x149 d:/altera/12.1sp1b243/nios2eds/bin/gnu/h-i686-mingw32/bin/../lib/gcc/nios2-elf/4.1.2\libgcc.a(_unpack_df.o)
 .debug_abbrev  0x0000a291      0x132 d:/altera/12.1sp1b243/nios2eds/bin/gnu/h-i686-mingw32/bin/../lib/gcc/nios2-elf/4.1.2\libgcc.a(_fpcmp_parts_df.o)
 .debug_abbrev  0x0000a3c3      0x1aa d:/altera/12.1sp1b243/nios2eds/bin/gnu/h-i686-mingw32/bin/../lib/gcc/nios2-elf/4.1.2\libgcc.a(_pack_sf.o)
 .debug_abbrev  0x0000a56d      0x102 ../../bsp/ucosii_net_rozipfs/\libucosii_bsp.a(alt_fstat.o)
 .debug_abbrev  0x0000a66f      0x102 ../../bsp/ucosii_net_rozipfs/\libucosii_bsp.a(alt_isatty.o)
 .debug_abbrev  0x0000a771      0x102 ../../bsp/ucosii_net_rozipfs/\libucosii_bsp.a(alt_lseek.o)
 .debug_abbrev  0x0000a873      0x120 ../../bsp/ucosii_net_rozipfs/\libucosii_bsp.a(alt_main.o)
 .debug_abbrev  0x0000a993      0x119 ../../bsp/ucosii_net_rozipfs/\libucosii_bsp.a(alt_open.o)
 .debug_abbrev  0x0000aaac       0xd3 ../../bsp/ucosii_net_rozipfs/\libucosii_bsp.a(alt_release_fd.o)
 .debug_abbrev  0x0000ab7f      0x115 ../../bsp/ucosii_net_rozipfs/\libucosii_bsp.a(alt_sbrk.o)
 .debug_abbrev  0x0000ac94      0x150 ../../bsp/ucosii_net_rozipfs/\libucosii_bsp.a(alt_tick.o)
 .debug_abbrev  0x0000ade4       0xb7 ../../bsp/ucosii_net_rozipfs/\libucosii_bsp.a(alt_usleep.o)
 .debug_abbrev  0x0000ae9b      0x1b3 ../../bsp/ucosii_net_rozipfs/\libucosii_bsp.a(alt_env_lock.o)
 .debug_abbrev  0x0000b04e      0x234 ../../bsp/ucosii_net_rozipfs/\libucosii_bsp.a(alt_malloc_lock.o)
 .debug_abbrev  0x0000b282      0x2aa ../../bsp/ucosii_net_rozipfs/\libucosii_bsp.a(os_core.o)
 .debug_abbrev  0x0000b52c      0x114 ../../bsp/ucosii_net_rozipfs/\libucosii_bsp.a(os_dbg.o)
 .debug_abbrev  0x0000b640      0x21b ../../bsp/ucosii_net_rozipfs/\libucosii_bsp.a(os_flag.o)
 .debug_abbrev  0x0000b85b      0x1f6 ../../bsp/ucosii_net_rozipfs/\libucosii_bsp.a(os_mbox.o)
 .debug_abbrev  0x0000ba51      0x235 ../../bsp/ucosii_net_rozipfs/\libucosii_bsp.a(os_mem.o)
 .debug_abbrev  0x0000bc86      0x20d ../../bsp/ucosii_net_rozipfs/\libucosii_bsp.a(os_q.o)
 .debug_abbrev  0x0000be93      0x20d ../../bsp/ucosii_net_rozipfs/\libucosii_bsp.a(os_sem.o)
 .debug_abbrev  0x0000c0a0      0x20e ../../bsp/ucosii_net_rozipfs/\libucosii_bsp.a(os_task.o)
 .debug_abbrev  0x0000c2ae      0x1de ../../bsp/ucosii_net_rozipfs/\libucosii_bsp.a(os_time.o)
 .debug_abbrev  0x0000c48c      0x1eb ../../bsp/ucosii_net_rozipfs/\libucosii_bsp.a(alt_sys_init.o)
 .debug_abbrev  0x0000c677      0x1bf ../../bsp/ucosii_net_rozipfs/\libucosii_bsp.a(altera_avalon_cfi_flash.o)
 .debug_abbrev  0x0000c836      0x185 ../../bsp/ucosii_net_rozipfs/\libucosii_bsp.a(altera_avalon_cfi_flash_table.o)
 .debug_abbrev  0x0000c9bb      0x13c ../../bsp/ucosii_net_rozipfs/\libucosii_bsp.a(altera_avalon_jtag_uart_fd.o)
 .debug_abbrev  0x0000caf7      0x21e ../../bsp/ucosii_net_rozipfs/\libucosii_bsp.a(altera_avalon_jtag_uart_init.o)
 .debug_abbrev  0x0000cd15      0x135 ../../bsp/ucosii_net_rozipfs/\libucosii_bsp.a(altera_avalon_jtag_uart_ioctl.o)
 .debug_abbrev  0x0000ce4a      0x1ee ../../bsp/ucosii_net_rozipfs/\libucosii_bsp.a(altera_avalon_jtag_uart_read.o)
 .debug_abbrev  0x0000d038      0x1ea ../../bsp/ucosii_net_rozipfs/\libucosii_bsp.a(altera_avalon_jtag_uart_write.o)
 .debug_abbrev  0x0000d222      0x235 ../../bsp/ucosii_net_rozipfs/\libucosii_bsp.a(altera_avalon_lcd_16207.o)
 .debug_abbrev  0x0000d457      0x12f ../../bsp/ucosii_net_rozipfs/\libucosii_bsp.a(altera_avalon_lcd_16207_fd.o)
 .debug_abbrev  0x0000d586      0x23a ../../bsp/ucosii_net_rozipfs/\libucosii_bsp.a(altera_avalon_sgdma.o)
 .debug_abbrev  0x0000d7c0      0x137 ../../bsp/ucosii_net_rozipfs/\libucosii_bsp.a(altera_avalon_timer_sc.o)
 .debug_abbrev  0x0000d8f7      0x229 ../../bsp/ucosii_net_rozipfs/\libucosii_bsp.a(altera_avalon_tse.o)
 .debug_abbrev  0x0000db20      0x20a ../../bsp/ucosii_net_rozipfs/\libucosii_bsp.a(altera_ro_zipfs.o)
 .debug_abbrev  0x0000dd2a      0x299 ../../bsp/ucosii_net_rozipfs/\libucosii_bsp.a(ins_tse_mac.o)
 .debug_abbrev  0x0000dfc3       0x77 ../../bsp/ucosii_net_rozipfs/\libucosii_bsp.a(alt_iniche_close.o)
 .debug_abbrev  0x0000e03a      0x11f ../../bsp/ucosii_net_rozipfs/\libucosii_bsp.a(alt_iniche_dev.o)
 .debug_abbrev  0x0000e159       0x7e ../../bsp/ucosii_net_rozipfs/\libucosii_bsp.a(alt_iniche_read.o)
 .debug_abbrev  0x0000e1d7       0x85 ../../bsp/ucosii_net_rozipfs/\libucosii_bsp.a(alt_iniche_write.o)
 .debug_abbrev  0x0000e25c      0x184 ../../bsp/ucosii_net_rozipfs/\libucosii_bsp.a(ipnet.o)
 .debug_abbrev  0x0000e3e0      0x18b ../../bsp/ucosii_net_rozipfs/\libucosii_bsp.a(ipstart.o)
 .debug_abbrev  0x0000e56b      0x191 ../../bsp/ucosii_net_rozipfs/\libucosii_bsp.a(igmp_cmn.o)
 .debug_abbrev  0x0000e6fc      0x1a3 ../../bsp/ucosii_net_rozipfs/\libucosii_bsp.a(bsdsock.o)
 .debug_abbrev  0x0000e89f       0x96 ../../bsp/ucosii_net_rozipfs/\libucosii_bsp.a(cksum.o)
 .debug_abbrev  0x0000e935      0x18b ../../bsp/ucosii_net_rozipfs/\libucosii_bsp.a(in_utils.o)
 .debug_abbrev  0x0000eac0      0x152 ../../bsp/ucosii_net_rozipfs/\libucosii_bsp.a(netmain.o)
 .debug_abbrev  0x0000ec12      0x144 ../../bsp/ucosii_net_rozipfs/\libucosii_bsp.a(tk_crnos.o)
 .debug_abbrev  0x0000ed56      0x217 ../../bsp/ucosii_net_rozipfs/\libucosii_bsp.a(dhcpclnt.o)
 .debug_abbrev  0x0000ef6d       0x8f ../../bsp/ucosii_net_rozipfs/\libucosii_bsp.a(dhcputil.o)
 .debug_abbrev  0x0000effc      0x196 ../../bsp/ucosii_net_rozipfs/\libucosii_bsp.a(pktalloc.o)
 .debug_abbrev  0x0000f192       0xcb ../../bsp/ucosii_net_rozipfs/\libucosii_bsp.a(q.o)
 .debug_abbrev  0x0000f25d      0x144 ../../bsp/ucosii_net_rozipfs/\libucosii_bsp.a(udp_open.o)
 .debug_abbrev  0x0000f3a1       0x14 ../../bsp/ucosii_net_rozipfs/\libucosii_bsp.a(asm_cksum.o)
 .debug_abbrev  0x0000f3b5      0x242 ../../bsp/ucosii_net_rozipfs/\libucosii_bsp.a(brdutils.o)
 .debug_abbrev  0x0000f5f7      0x194 ../../bsp/ucosii_net_rozipfs/\libucosii_bsp.a(osportco.o)
 .debug_abbrev  0x0000f78b      0x199 ../../bsp/ucosii_net_rozipfs/\libucosii_bsp.a(targnios.o)
 .debug_abbrev  0x0000f924      0x1dc ../../bsp/ucosii_net_rozipfs/\libucosii_bsp.a(nptcp.o)
 .debug_abbrev  0x0000fb00      0x136 ../../bsp/ucosii_net_rozipfs/\libucosii_bsp.a(rawsock.o)
 .debug_abbrev  0x0000fc36      0x1de ../../bsp/ucosii_net_rozipfs/\libucosii_bsp.a(sockcall.o)
 .debug_abbrev  0x0000fe14      0x1ef ../../bsp/ucosii_net_rozipfs/\libucosii_bsp.a(socket.o)
 .debug_abbrev  0x00010003      0x1ac ../../bsp/ucosii_net_rozipfs/\libucosii_bsp.a(socket2.o)
 .debug_abbrev  0x000101af      0x17f ../../bsp/ucosii_net_rozipfs/\libucosii_bsp.a(soselect.o)
 .debug_abbrev  0x0001032e      0x1ca ../../bsp/ucosii_net_rozipfs/\libucosii_bsp.a(tcp_in.o)
 .debug_abbrev  0x000104f8      0x1a4 ../../bsp/ucosii_net_rozipfs/\libucosii_bsp.a(tcp_out.o)
 .debug_abbrev  0x0001069c      0x1c3 ../../bsp/ucosii_net_rozipfs/\libucosii_bsp.a(tcp_subr.o)
 .debug_abbrev  0x0001085f      0x19e ../../bsp/ucosii_net_rozipfs/\libucosii_bsp.a(tcp_timr.o)
 .debug_abbrev  0x000109fd      0x175 ../../bsp/ucosii_net_rozipfs/\libucosii_bsp.a(tcp_usr.o)
 .debug_abbrev  0x00010b72       0x77 ../../bsp/ucosii_net_rozipfs/\libucosii_bsp.a(tcpport.o)
 .debug_abbrev  0x00010be9      0x190 ../../bsp/ucosii_net_rozipfs/\libucosii_bsp.a(udpsock.o)
 .debug_abbrev  0x00010d79      0x172 ../../bsp/ucosii_net_rozipfs/\libucosii_bsp.a(alt_alarm_start.o)
 .debug_abbrev  0x00010eeb       0x6c ../../bsp/ucosii_net_rozipfs/\libucosii_bsp.a(alt_busy_sleep.o)
 .debug_abbrev  0x00010f57      0x102 ../../bsp/ucosii_net_rozipfs/\libucosii_bsp.a(alt_close.o)
 .debug_abbrev  0x00011059       0x7a ../../bsp/ucosii_net_rozipfs/\libucosii_bsp.a(alt_dcache_flush.o)
 .debug_abbrev  0x000110d3      0x10a ../../bsp/ucosii_net_rozipfs/\libucosii_bsp.a(alt_dev.o)
 .debug_abbrev  0x000111dd       0xf6 ../../bsp/ucosii_net_rozipfs/\libucosii_bsp.a(alt_dev_llist_insert.o)
 .debug_abbrev  0x000112d3       0x76 ../../bsp/ucosii_net_rozipfs/\libucosii_bsp.a(alt_do_ctors.o)
 .debug_abbrev  0x00011349       0x76 ../../bsp/ucosii_net_rozipfs/\libucosii_bsp.a(alt_do_dtors.o)
 .debug_abbrev  0x000113bf       0x5e ../../bsp/ucosii_net_rozipfs/\libucosii_bsp.a(alt_errno.o)
 .debug_abbrev  0x0001141d       0xd6 ../../bsp/ucosii_net_rozipfs/\libucosii_bsp.a(alt_find_dev.o)
 .debug_abbrev  0x000114f3       0xd6 ../../bsp/ucosii_net_rozipfs/\libucosii_bsp.a(alt_find_file.o)
 .debug_abbrev  0x000115c9      0x128 ../../bsp/ucosii_net_rozipfs/\libucosii_bsp.a(alt_flash_dev.o)
 .debug_abbrev  0x000116f1       0xf4 ../../bsp/ucosii_net_rozipfs/\libucosii_bsp.a(alt_fs_reg.o)
 .debug_abbrev  0x000117e5      0x173 ../../bsp/ucosii_net_rozipfs/\libucosii_bsp.a(alt_get_fd.o)
 .debug_abbrev  0x00011958      0x134 ../../bsp/ucosii_net_rozipfs/\libucosii_bsp.a(alt_iic.o)
 .debug_abbrev  0x00011a8c      0x14e ../../bsp/ucosii_net_rozipfs/\libucosii_bsp.a(alt_iic_isr_register.o)
 .debug_abbrev  0x00011bda       0xf7 ../../bsp/ucosii_net_rozipfs/\libucosii_bsp.a(alt_io_redirect.o)
 .debug_abbrev  0x00011cd1       0x12 ../../bsp/ucosii_net_rozipfs/\libucosii_bsp.a(alt_irq_entry.o)
 .debug_abbrev  0x00011ce3      0x124 ../../bsp/ucosii_net_rozipfs/\libucosii_bsp.a(alt_irq_handler.o)
 .debug_abbrev  0x00011e07       0x44 ../../bsp/ucosii_net_rozipfs/\libucosii_bsp.a(alt_irq_vars.o)
 .debug_abbrev  0x00011e4b      0x102 ../../bsp/ucosii_net_rozipfs/\libucosii_bsp.a(alt_read.o)
 .debug_abbrev  0x00011f4d       0x74 ../../bsp/ucosii_net_rozipfs/\libucosii_bsp.a(alt_remap_cached.o)
 .debug_abbrev  0x00011fc1       0x74 ../../bsp/ucosii_net_rozipfs/\libucosii_bsp.a(alt_remap_uncached.o)
 .debug_abbrev  0x00012035       0x83 ../../bsp/ucosii_net_rozipfs/\libucosii_bsp.a(alt_uncached_malloc.o)
 .debug_abbrev  0x000120b8      0x107 ../../bsp/ucosii_net_rozipfs/\libucosii_bsp.a(alt_write.o)
 .debug_abbrev  0x000121bf       0x3f ../../bsp/ucosii_net_rozipfs/\libucosii_bsp.a(altera_nios2_qsys_irq.o)
 .debug_abbrev  0x000121fe       0x14 ../../bsp/ucosii_net_rozipfs/\libucosii_bsp.a(os_cpu_a.o)
 .debug_abbrev  0x00012212      0x1d0 ../../bsp/ucosii_net_rozipfs/\libucosii_bsp.a(os_cpu_c.o)
 .debug_abbrev  0x000123e2      0x14d ../../bsp/ucosii_net_rozipfs/\libucosii_bsp.a(altera_avalon_cfi_flash_amd.o)
 .debug_abbrev  0x0001252f      0x14d ../../bsp/ucosii_net_rozipfs/\libucosii_bsp.a(altera_avalon_cfi_flash_intel.o)
 .debug_abbrev  0x0001267c      0x173 ../../bsp/ucosii_net_rozipfs/\libucosii_bsp.a(allports.o)
 .debug_abbrev  0x000127ef      0x151 ../../bsp/ucosii_net_rozipfs/\libucosii_bsp.a(timeouts.o)
 .debug_abbrev  0x00012940       0xa4 ../../bsp/ucosii_net_rozipfs/\libucosii_bsp.a(tk_misc.o)
 .debug_abbrev  0x000129e4       0x92 ../../bsp/ucosii_net_rozipfs/\libucosii_bsp.a(alt_iniche_fcntl.o)
 .debug_abbrev  0x00012a76      0x1eb ../../bsp/ucosii_net_rozipfs/\libucosii_bsp.a(et_arp.o)
 .debug_abbrev  0x00012c61      0x13d ../../bsp/ucosii_net_rozipfs/\libucosii_bsp.a(iface.o)
 .debug_abbrev  0x00012d9e      0x1ed ../../bsp/ucosii_net_rozipfs/\libucosii_bsp.a(ip.o)
 .debug_abbrev  0x00012f8b      0x1ca ../../bsp/ucosii_net_rozipfs/\libucosii_bsp.a(ip_reasm.o)
 .debug_abbrev  0x00013155      0x166 ../../bsp/ucosii_net_rozipfs/\libucosii_bsp.a(ipdemux.o)
 .debug_abbrev  0x000132bb      0x114 ../../bsp/ucosii_net_rozipfs/\libucosii_bsp.a(ipmc.o)
 .debug_abbrev  0x000133cf       0xe9 ../../bsp/ucosii_net_rozipfs/\libucosii_bsp.a(ipport.o)
 .debug_abbrev  0x000134b8      0x19c ../../bsp/ucosii_net_rozipfs/\libucosii_bsp.a(ipraw.o)
 .debug_abbrev  0x00013654      0x156 ../../bsp/ucosii_net_rozipfs/\libucosii_bsp.a(iproute.o)
 .debug_abbrev  0x000137aa      0x1c0 ../../bsp/ucosii_net_rozipfs/\libucosii_bsp.a(udp.o)
 .debug_abbrev  0x0001396a      0x10e ../../bsp/ucosii_net_rozipfs/\libucosii_bsp.a(igmp.o)
 .debug_abbrev  0x00013a78      0x17a ../../bsp/ucosii_net_rozipfs/\libucosii_bsp.a(igmp2.o)
 .debug_abbrev  0x00013bf2      0x189 ../../bsp/ucosii_net_rozipfs/\libucosii_bsp.a(ipopt.o)
 .debug_abbrev  0x00013d7b      0x15a ../../bsp/ucosii_net_rozipfs/\libucosii_bsp.a(u_mctest.o)
 .debug_abbrev  0x00013ed5      0x12e ../../bsp/ucosii_net_rozipfs/\libucosii_bsp.a(dhcsetup.o)
 .debug_abbrev  0x00014003      0x175 ../../bsp/ucosii_net_rozipfs/\libucosii_bsp.a(memdev.o)
 .debug_abbrev  0x00014178      0x154 ../../bsp/ucosii_net_rozipfs/\libucosii_bsp.a(parseip.o)
 .debug_abbrev  0x000142cc       0xad ../../bsp/ucosii_net_rozipfs/\libucosii_bsp.a(tcpcksum.o)
 .debug_abbrev  0x00014379      0x19f ../../bsp/ucosii_net_rozipfs/\libucosii_bsp.a(in_pcb.o)
 .debug_abbrev  0x00014518      0x1b6 ../../bsp/ucosii_net_rozipfs/\libucosii_bsp.a(vfsfiles.o)
 .debug_abbrev  0x000146ce       0x77 ../../bsp/ucosii_net_rozipfs/\libucosii_bsp.a(vfsport.o)
 .debug_abbrev  0x00014745       0x12 ../../bsp/ucosii_net_rozipfs/\libucosii_bsp.a(alt_exception_entry.o)
 .debug_abbrev  0x00014757      0x107 ../../bsp/ucosii_net_rozipfs/\libucosii_bsp.a(alt_fcntl.o)
 .debug_abbrev  0x0001485e      0x176 ../../bsp/ucosii_net_rozipfs/\libucosii_bsp.a(icmp.o)
 .debug_abbrev  0x000149d4       0xb7 d:/altera/12.1sp1b243/nios2eds/bin/gnu/h-i686-mingw32/bin/../lib/gcc/nios2-elf/4.1.2/../../../../nios2-elf/lib\libc.a(lib_a-atexit.o)
 .debug_abbrev  0x00014a8b      0x16e d:/altera/12.1sp1b243/nios2eds/bin/gnu/h-i686-mingw32/bin/../lib/gcc/nios2-elf/4.1.2/../../../../nios2-elf/lib\libc.a(lib_a-exit.o)
 .debug_abbrev  0x00014bf9      0x170 d:/altera/12.1sp1b243/nios2eds/bin/gnu/h-i686-mingw32/bin/../lib/gcc/nios2-elf/4.1.2/../../../../nios2-elf/lib\libc.a(lib_a-vprintf.o)
 .debug_abbrev  0x00014d69      0x1ae d:/altera/12.1sp1b243/nios2eds/bin/gnu/h-i686-mingw32/bin/../lib/gcc/nios2-elf/4.1.2/../../../../nios2-elf/lib\libc.a(lib_a-__atexit.o)
 .debug_abbrev  0x00014f17      0x1de d:/altera/12.1sp1b243/nios2eds/bin/gnu/h-i686-mingw32/bin/../lib/gcc/nios2-elf/4.1.2/../../../../nios2-elf/lib\libc.a(lib_a-__call_atexit.o)
 .debug_abbrev  0x000150f5       0xaa ../../bsp/ucosii_net_rozipfs/\libucosii_bsp.a(alt_exit.o)

.debug_line     0x00000000    0x4d2da
 *(.debug_line)
 .debug_line    0x00000000       0x57 ../../bsp/ucosii_net_rozipfs//obj/HAL/src/crt0.o
 .debug_line    0x00000057      0x6ff obj/default/src/flash_intel_p30/flash_intel_p30.o
 .debug_line    0x00000756      0x602 obj/default/src/main.o
 .debug_line    0x00000d58      0x5b0 obj/default/src/os_utils.o
 .debug_line    0x00001308      0x3cc obj/default/src/reconfig_utils.o
 .debug_line    0x000016d4      0x486 obj/default/src/srec/srec.o
 .debug_line    0x00001b5a       0x24 obj/default/src/tse_my_system.o
 .debug_line    0x00001b7e     0x21cb obj/default/src/webserver.o
 .debug_line    0x00003d49      0x24f d:/altera/12.1sp1b243/nios2eds/bin/gnu/h-i686-mingw32/bin/../lib/gcc/nios2-elf/4.1.2\libgcc.a(lib2-divmod.o)
 .debug_line    0x00003f98      0x20a d:/altera/12.1sp1b243/nios2eds/bin/gnu/h-i686-mingw32/bin/../lib/gcc/nios2-elf/4.1.2/../../../../nios2-elf/lib\libc.a(lib_a-atoi.o)
 .debug_line    0x000041a2      0x20c d:/altera/12.1sp1b243/nios2eds/bin/gnu/h-i686-mingw32/bin/../lib/gcc/nios2-elf/4.1.2/../../../../nios2-elf/lib\libc.a(lib_a-calloc.o)
 .debug_line    0x000043ae      0x25c d:/altera/12.1sp1b243/nios2eds/bin/gnu/h-i686-mingw32/bin/../lib/gcc/nios2-elf/4.1.2/../../../../nios2-elf/lib\libc.a(lib_a-callocr.o)
 .debug_line    0x0000460a       0x7e d:/altera/12.1sp1b243/nios2eds/bin/gnu/h-i686-mingw32/bin/../lib/gcc/nios2-elf/4.1.2/../../../../nios2-elf/lib\libc.a(lib_a-ctype_.o)
 .debug_line    0x00004688      0x2e8 d:/altera/12.1sp1b243/nios2eds/bin/gnu/h-i686-mingw32/bin/../lib/gcc/nios2-elf/4.1.2/../../../../nios2-elf/lib\libc.a(lib_a-fclose.o)
 .debug_line    0x00004970      0x40d d:/altera/12.1sp1b243/nios2eds/bin/gnu/h-i686-mingw32/bin/../lib/gcc/nios2-elf/4.1.2/../../../../nios2-elf/lib\libc.a(lib_a-fflush.o)
 .debug_line    0x00004d7d      0x259 d:/altera/12.1sp1b243/nios2eds/bin/gnu/h-i686-mingw32/bin/../lib/gcc/nios2-elf/4.1.2/../../../../nios2-elf/lib\libc.a(lib_a-fgetpos.o)
 .debug_line    0x00004fd6      0x601 d:/altera/12.1sp1b243/nios2eds/bin/gnu/h-i686-mingw32/bin/../lib/gcc/nios2-elf/4.1.2/../../../../nios2-elf/lib\libc.a(lib_a-findfp.o)
 .debug_line    0x000055d7      0x342 d:/altera/12.1sp1b243/nios2eds/bin/gnu/h-i686-mingw32/bin/../lib/gcc/nios2-elf/4.1.2/../../../../nios2-elf/lib\libc.a(lib_a-fopen.o)
 .debug_line    0x00005919      0x456 d:/altera/12.1sp1b243/nios2eds/bin/gnu/h-i686-mingw32/bin/../lib/gcc/nios2-elf/4.1.2/../../../../nios2-elf/lib\libc.a(lib_a-fread.o)
 .debug_line    0x00005d6f      0x5eb d:/altera/12.1sp1b243/nios2eds/bin/gnu/h-i686-mingw32/bin/../lib/gcc/nios2-elf/4.1.2/../../../../nios2-elf/lib\libc.a(lib_a-freer.o)
 .debug_line    0x0000635a      0x5ab d:/altera/12.1sp1b243/nios2eds/bin/gnu/h-i686-mingw32/bin/../lib/gcc/nios2-elf/4.1.2/../../../../nios2-elf/lib\libc.a(lib_a-fseek.o)
 .debug_line    0x00006905      0x264 d:/altera/12.1sp1b243/nios2eds/bin/gnu/h-i686-mingw32/bin/../lib/gcc/nios2-elf/4.1.2/../../../../nios2-elf/lib\libc.a(lib_a-fstatr.o)
 .debug_line    0x00006b69      0x2ea d:/altera/12.1sp1b243/nios2eds/bin/gnu/h-i686-mingw32/bin/../lib/gcc/nios2-elf/4.1.2/../../../../nios2-elf/lib\libc.a(lib_a-ftell.o)
 .debug_line    0x00006e53      0x34a d:/altera/12.1sp1b243/nios2eds/bin/gnu/h-i686-mingw32/bin/../lib/gcc/nios2-elf/4.1.2/../../../../nios2-elf/lib\libc.a(lib_a-fwalk.o)
 .debug_line    0x0000719d      0x2d9 d:/altera/12.1sp1b243/nios2eds/bin/gnu/h-i686-mingw32/bin/../lib/gcc/nios2-elf/4.1.2/../../../../nios2-elf/lib\libc.a(lib_a-fwrite.o)
 .debug_line    0x00007476      0x2a4 d:/altera/12.1sp1b243/nios2eds/bin/gnu/h-i686-mingw32/bin/../lib/gcc/nios2-elf/4.1.2/../../../../nios2-elf/lib\libc.a(lib_a-getc.o)
 .debug_line    0x0000771a      0x22d d:/altera/12.1sp1b243/nios2eds/bin/gnu/h-i686-mingw32/bin/../lib/gcc/nios2-elf/4.1.2/../../../../nios2-elf/lib\libc.a(lib_a-impure.o)
 .debug_line    0x00007947      0x1df d:/altera/12.1sp1b243/nios2eds/bin/gnu/h-i686-mingw32/bin/../lib/gcc/nios2-elf/4.1.2/../../../../nios2-elf/lib\libc.a(lib_a-int_errno.o)
 .debug_line    0x00007b26      0x3c3 d:/altera/12.1sp1b243/nios2eds/bin/gnu/h-i686-mingw32/bin/../lib/gcc/nios2-elf/4.1.2/../../../../nios2-elf/lib\libc.a(lib_a-makebuf.o)
 .debug_line    0x00007ee9      0x24b d:/altera/12.1sp1b243/nios2eds/bin/gnu/h-i686-mingw32/bin/../lib/gcc/nios2-elf/4.1.2/../../../../nios2-elf/lib\libc.a(lib_a-malloc.o)
 .debug_line    0x00008134      0x80a d:/altera/12.1sp1b243/nios2eds/bin/gnu/h-i686-mingw32/bin/../lib/gcc/nios2-elf/4.1.2/../../../../nios2-elf/lib\libc.a(lib_a-mallocr.o)
 .debug_line    0x0000893e      0x303 d:/altera/12.1sp1b243/nios2eds/bin/gnu/h-i686-mingw32/bin/../lib/gcc/nios2-elf/4.1.2/../../../../nios2-elf/lib\libc.a(lib_a-memchr.o)
 .debug_line    0x00008c41      0x29f d:/altera/12.1sp1b243/nios2eds/bin/gnu/h-i686-mingw32/bin/../lib/gcc/nios2-elf/4.1.2/../../../../nios2-elf/lib\libc.a(lib_a-memcmp.o)
 .debug_line    0x00008ee0      0x1ac d:/altera/12.1sp1b243/nios2eds/bin/gnu/h-i686-mingw32/bin/../lib/gcc/nios2-elf/4.1.2/../../../../nios2-elf/lib\libc.a(lib_a-memcpy.o)
 .debug_line    0x0000908c      0x30a d:/altera/12.1sp1b243/nios2eds/bin/gnu/h-i686-mingw32/bin/../lib/gcc/nios2-elf/4.1.2/../../../../nios2-elf/lib\libc.a(lib_a-memmove.o)
 .debug_line    0x00009396      0x301 d:/altera/12.1sp1b243/nios2eds/bin/gnu/h-i686-mingw32/bin/../lib/gcc/nios2-elf/4.1.2/../../../../nios2-elf/lib\libc.a(lib_a-memset.o)
 .debug_line    0x00009697      0x27b d:/altera/12.1sp1b243/nios2eds/bin/gnu/h-i686-mingw32/bin/../lib/gcc/nios2-elf/4.1.2/../../../../nios2-elf/lib\libc.a(lib_a-openr.o)
 .debug_line    0x00009912      0x2a4 d:/altera/12.1sp1b243/nios2eds/bin/gnu/h-i686-mingw32/bin/../lib/gcc/nios2-elf/4.1.2/../../../../nios2-elf/lib\libc.a(lib_a-perror.o)
 .debug_line    0x00009bb6      0x2c4 d:/altera/12.1sp1b243/nios2eds/bin/gnu/h-i686-mingw32/bin/../lib/gcc/nios2-elf/4.1.2/../../../../nios2-elf/lib\libc.a(lib_a-putc.o)
 .debug_line    0x00009e7a      0x2f7 d:/altera/12.1sp1b243/nios2eds/bin/gnu/h-i686-mingw32/bin/../lib/gcc/nios2-elf/4.1.2/../../../../nios2-elf/lib\libc.a(lib_a-puts.o)
 .debug_line    0x0000a171      0x3c4 d:/altera/12.1sp1b243/nios2eds/bin/gnu/h-i686-mingw32/bin/../lib/gcc/nios2-elf/4.1.2/../../../../nios2-elf/lib\libc.a(lib_a-refill.o)
 .debug_line    0x0000a535      0x28d d:/altera/12.1sp1b243/nios2eds/bin/gnu/h-i686-mingw32/bin/../lib/gcc/nios2-elf/4.1.2/../../../../nios2-elf/lib\libc.a(lib_a-rget.o)
 .debug_line    0x0000a7c2      0x299 d:/altera/12.1sp1b243/nios2eds/bin/gnu/h-i686-mingw32/bin/../lib/gcc/nios2-elf/4.1.2/../../../../nios2-elf/lib\libc.a(lib_a-sbrkr.o)
 .debug_line    0x0000aa5b      0x322 d:/altera/12.1sp1b243/nios2eds/bin/gnu/h-i686-mingw32/bin/../lib/gcc/nios2-elf/4.1.2/../../../../nios2-elf/lib\libc.a(lib_a-sprintf.o)
 .debug_line    0x0000ad7d      0x361 d:/altera/12.1sp1b243/nios2eds/bin/gnu/h-i686-mingw32/bin/../lib/gcc/nios2-elf/4.1.2/../../../../nios2-elf/lib\libc.a(lib_a-sscanf.o)
 .debug_line    0x0000b0de      0x38c d:/altera/12.1sp1b243/nios2eds/bin/gnu/h-i686-mingw32/bin/../lib/gcc/nios2-elf/4.1.2/../../../../nios2-elf/lib\libc.a(lib_a-stdio.o)
 .debug_line    0x0000b46a      0x20f d:/altera/12.1sp1b243/nios2eds/bin/gnu/h-i686-mingw32/bin/../lib/gcc/nios2-elf/4.1.2/../../../../nios2-elf/lib\libc.a(lib_a-strcasecmp.o)
 .debug_line    0x0000b679      0x2c7 d:/altera/12.1sp1b243/nios2eds/bin/gnu/h-i686-mingw32/bin/../lib/gcc/nios2-elf/4.1.2/../../../../nios2-elf/lib\libc.a(lib_a-strchr.o)
 .debug_line    0x0000b940      0x2d5 d:/altera/12.1sp1b243/nios2eds/bin/gnu/h-i686-mingw32/bin/../lib/gcc/nios2-elf/4.1.2/../../../../nios2-elf/lib\libc.a(lib_a-strcmp.o)
 .debug_line    0x0000bc15      0x287 d:/altera/12.1sp1b243/nios2eds/bin/gnu/h-i686-mingw32/bin/../lib/gcc/nios2-elf/4.1.2/../../../../nios2-elf/lib\libc.a(lib_a-strcpy.o)
 .debug_line    0x0000be9c      0x4e1 d:/altera/12.1sp1b243/nios2eds/bin/gnu/h-i686-mingw32/bin/../lib/gcc/nios2-elf/4.1.2/../../../../nios2-elf/lib\libc.a(lib_a-strerror.o)
 .debug_line    0x0000c37d      0x26d d:/altera/12.1sp1b243/nios2eds/bin/gnu/h-i686-mingw32/bin/../lib/gcc/nios2-elf/4.1.2/../../../../nios2-elf/lib\libc.a(lib_a-strlen.o)
 .debug_line    0x0000c5ea      0x2fe d:/altera/12.1sp1b243/nios2eds/bin/gnu/h-i686-mingw32/bin/../lib/gcc/nios2-elf/4.1.2/../../../../nios2-elf/lib\libc.a(lib_a-strncmp.o)
 .debug_line    0x0000c8e8      0x2d0 d:/altera/12.1sp1b243/nios2eds/bin/gnu/h-i686-mingw32/bin/../lib/gcc/nios2-elf/4.1.2/../../../../nios2-elf/lib\libc.a(lib_a-strncpy.o)
 .debug_line    0x0000cbb8      0x6cd d:/altera/12.1sp1b243/nios2eds/bin/gnu/h-i686-mingw32/bin/../lib/gcc/nios2-elf/4.1.2/../../../../nios2-elf/lib\libc.a(lib_a-strstr.o)
 .debug_line    0x0000d285      0x250 d:/altera/12.1sp1b243/nios2eds/bin/gnu/h-i686-mingw32/bin/../lib/gcc/nios2-elf/4.1.2/../../../../nios2-elf/lib\libc.a(lib_a-strtok.o)
 .debug_line    0x0000d4d5      0x30b d:/altera/12.1sp1b243/nios2eds/bin/gnu/h-i686-mingw32/bin/../lib/gcc/nios2-elf/4.1.2/../../../../nios2-elf/lib\libc.a(lib_a-strtok_r.o)
 .debug_line    0x0000d7e0      0x403 d:/altera/12.1sp1b243/nios2eds/bin/gnu/h-i686-mingw32/bin/../lib/gcc/nios2-elf/4.1.2/../../../../nios2-elf/lib\libc.a(lib_a-strtol.o)
 .debug_line    0x0000dbe3       0x91 d:/altera/12.1sp1b243/nios2eds/bin/gnu/h-i686-mingw32/bin/../lib/gcc/nios2-elf/4.1.2/../../../../nios2-elf/lib\libc.a(lib_a-u_strerr.o)
 .debug_line    0x0000dc74     0x110c d:/altera/12.1sp1b243/nios2eds/bin/gnu/h-i686-mingw32/bin/../lib/gcc/nios2-elf/4.1.2/../../../../nios2-elf/lib\libc.a(lib_a-vfprintf.o)
 .debug_line    0x0000ed80     0x103d d:/altera/12.1sp1b243/nios2eds/bin/gnu/h-i686-mingw32/bin/../lib/gcc/nios2-elf/4.1.2/../../../../nios2-elf/lib\libc.a(lib_a-vfscanf.o)
 .debug_line    0x0000fdbd      0x2d9 d:/altera/12.1sp1b243/nios2eds/bin/gnu/h-i686-mingw32/bin/../lib/gcc/nios2-elf/4.1.2/../../../../nios2-elf/lib\libc.a(lib_a-vsprintf.o)
 .debug_line    0x00010096      0x350 d:/altera/12.1sp1b243/nios2eds/bin/gnu/h-i686-mingw32/bin/../lib/gcc/nios2-elf/4.1.2/../../../../nios2-elf/lib\libc.a(lib_a-wbuf.o)
 .debug_line    0x000103e6      0x29a d:/altera/12.1sp1b243/nios2eds/bin/gnu/h-i686-mingw32/bin/../lib/gcc/nios2-elf/4.1.2/../../../../nios2-elf/lib\libc.a(lib_a-writer.o)
 .debug_line    0x00010680      0x2f0 d:/altera/12.1sp1b243/nios2eds/bin/gnu/h-i686-mingw32/bin/../lib/gcc/nios2-elf/4.1.2/../../../../nios2-elf/lib\libc.a(lib_a-wsetup.o)
 .debug_line    0x00010970      0x29a d:/altera/12.1sp1b243/nios2eds/bin/gnu/h-i686-mingw32/bin/../lib/gcc/nios2-elf/4.1.2/../../../../nios2-elf/lib\libc.a(lib_a-closer.o)
 .debug_line    0x00010c0a     0x12c6 d:/altera/12.1sp1b243/nios2eds/bin/gnu/h-i686-mingw32/bin/../lib/gcc/nios2-elf/4.1.2/../../../../nios2-elf/lib\libc.a(lib_a-dtoa.o)
 .debug_line    0x00011ed0      0x296 d:/altera/12.1sp1b243/nios2eds/bin/gnu/h-i686-mingw32/bin/../lib/gcc/nios2-elf/4.1.2/../../../../nios2-elf/lib\libc.a(lib_a-flags.o)
 .debug_line    0x00012166      0x285 d:/altera/12.1sp1b243/nios2eds/bin/gnu/h-i686-mingw32/bin/../lib/gcc/nios2-elf/4.1.2/../../../../nios2-elf/lib\libc.a(lib_a-fputc.o)
 .debug_line    0x000123eb      0x2c8 d:/altera/12.1sp1b243/nios2eds/bin/gnu/h-i686-mingw32/bin/../lib/gcc/nios2-elf/4.1.2/../../../../nios2-elf/lib\libc.a(lib_a-fputs.o)
 .debug_line    0x000126b3      0x641 d:/altera/12.1sp1b243/nios2eds/bin/gnu/h-i686-mingw32/bin/../lib/gcc/nios2-elf/4.1.2/../../../../nios2-elf/lib\libc.a(lib_a-fvwrite.o)
 .debug_line    0x00012cf4      0x29b d:/altera/12.1sp1b243/nios2eds/bin/gnu/h-i686-mingw32/bin/../lib/gcc/nios2-elf/4.1.2/../../../../nios2-elf/lib\libc.a(lib_a-isattyr.o)
 .debug_line    0x00012f8f      0x1fb d:/altera/12.1sp1b243/nios2eds/bin/gnu/h-i686-mingw32/bin/../lib/gcc/nios2-elf/4.1.2/../../../../nios2-elf/lib\libc.a(lib_a-iswspace.o)
 .debug_line    0x0001318a      0x2c8 d:/altera/12.1sp1b243/nios2eds/bin/gnu/h-i686-mingw32/bin/../lib/gcc/nios2-elf/4.1.2/../../../../nios2-elf/lib\libc.a(lib_a-locale.o)
 .debug_line    0x00013452      0x29a d:/altera/12.1sp1b243/nios2eds/bin/gnu/h-i686-mingw32/bin/../lib/gcc/nios2-elf/4.1.2/../../../../nios2-elf/lib\libc.a(lib_a-lseekr.o)
 .debug_line    0x000136ec      0x2c6 d:/altera/12.1sp1b243/nios2eds/bin/gnu/h-i686-mingw32/bin/../lib/gcc/nios2-elf/4.1.2/../../../../nios2-elf/lib\libc.a(lib_a-mbrtowc.o)
 .debug_line    0x000139b2      0x236 d:/altera/12.1sp1b243/nios2eds/bin/gnu/h-i686-mingw32/bin/../lib/gcc/nios2-elf/4.1.2/../../../../nios2-elf/lib\libc.a(lib_a-mbtowc_r.o)
 .debug_line    0x00013be8     0x1243 d:/altera/12.1sp1b243/nios2eds/bin/gnu/h-i686-mingw32/bin/../lib/gcc/nios2-elf/4.1.2/../../../../nios2-elf/lib\libc.a(lib_a-mprec.o)
 .debug_line    0x00014e2b      0x299 d:/altera/12.1sp1b243/nios2eds/bin/gnu/h-i686-mingw32/bin/../lib/gcc/nios2-elf/4.1.2/../../../../nios2-elf/lib\libc.a(lib_a-readr.o)
 .debug_line    0x000150c4      0x58a d:/altera/12.1sp1b243/nios2eds/bin/gnu/h-i686-mingw32/bin/../lib/gcc/nios2-elf/4.1.2/../../../../nios2-elf/lib\libc.a(lib_a-reallocr.o)
 .debug_line    0x0001564e      0x222 d:/altera/12.1sp1b243/nios2eds/bin/gnu/h-i686-mingw32/bin/../lib/gcc/nios2-elf/4.1.2/../../../../nios2-elf/lib\libc.a(lib_a-s_isinfd.o)
 .debug_line    0x00015870      0x21a d:/altera/12.1sp1b243/nios2eds/bin/gnu/h-i686-mingw32/bin/../lib/gcc/nios2-elf/4.1.2/../../../../nios2-elf/lib\libc.a(lib_a-s_isnand.o)
 .debug_line    0x00015a8a      0x2c9 d:/altera/12.1sp1b243/nios2eds/bin/gnu/h-i686-mingw32/bin/../lib/gcc/nios2-elf/4.1.2/../../../../nios2-elf/lib\libc.a(lib_a-sccl.o)
 .debug_line    0x00015d53      0x208 d:/altera/12.1sp1b243/nios2eds/bin/gnu/h-i686-mingw32/bin/../lib/gcc/nios2-elf/4.1.2/../../../../nios2-elf/lib\libc.a(lib_a-sf_nan.o)
 .debug_line    0x00015f5b      0xfe4 d:/altera/12.1sp1b243/nios2eds/bin/gnu/h-i686-mingw32/bin/../lib/gcc/nios2-elf/4.1.2/../../../../nios2-elf/lib\libc.a(lib_a-strtod.o)
 .debug_line    0x00016f3f      0x406 d:/altera/12.1sp1b243/nios2eds/bin/gnu/h-i686-mingw32/bin/../lib/gcc/nios2-elf/4.1.2/../../../../nios2-elf/lib\libc.a(lib_a-strtoll_r.o)
 .debug_line    0x00017345      0x3ba d:/altera/12.1sp1b243/nios2eds/bin/gnu/h-i686-mingw32/bin/../lib/gcc/nios2-elf/4.1.2/../../../../nios2-elf/lib\libc.a(lib_a-strtoul.o)
 .debug_line    0x000176ff      0x3af d:/altera/12.1sp1b243/nios2eds/bin/gnu/h-i686-mingw32/bin/../lib/gcc/nios2-elf/4.1.2/../../../../nios2-elf/lib\libc.a(lib_a-strtoull_r.o)
 .debug_line    0x00017aae      0x49f d:/altera/12.1sp1b243/nios2eds/bin/gnu/h-i686-mingw32/bin/../lib/gcc/nios2-elf/4.1.2/../../../../nios2-elf/lib\libc.a(lib_a-ungetc.o)
 .debug_line    0x00017f4d      0x8c5 d:/altera/12.1sp1b243/nios2eds/bin/gnu/h-i686-mingw32/bin/../lib/gcc/nios2-elf/4.1.2/../../../../nios2-elf/lib\libc.a(lib_a-gdtoa-gethex.o)
 .debug_line    0x00018812      0x47b d:/altera/12.1sp1b243/nios2eds/bin/gnu/h-i686-mingw32/bin/../lib/gcc/nios2-elf/4.1.2/../../../../nios2-elf/lib\libc.a(lib_a-gdtoa-hexnan.o)
 .debug_line    0x00018c8d      0x11f d:/altera/12.1sp1b243/nios2eds/bin/gnu/h-i686-mingw32/bin/../lib/gcc/nios2-elf/4.1.2\libgcc.a(_muldi3.o)
 .debug_line    0x00018dac       0xff d:/altera/12.1sp1b243/nios2eds/bin/gnu/h-i686-mingw32/bin/../lib/gcc/nios2-elf/4.1.2\libgcc.a(_fixunsdfsi.o)
 .debug_line    0x00018eab      0x2f2 d:/altera/12.1sp1b243/nios2eds/bin/gnu/h-i686-mingw32/bin/../lib/gcc/nios2-elf/4.1.2\libgcc.a(_udivdi3.o)
 .debug_line    0x0001919d      0x37d d:/altera/12.1sp1b243/nios2eds/bin/gnu/h-i686-mingw32/bin/../lib/gcc/nios2-elf/4.1.2\libgcc.a(_umoddi3.o)
 .debug_line    0x0001951a      0x121 d:/altera/12.1sp1b243/nios2eds/bin/gnu/h-i686-mingw32/bin/../lib/gcc/nios2-elf/4.1.2\libgcc.a(_ne_sf.o)
 .debug_line    0x0001963b      0x121 d:/altera/12.1sp1b243/nios2eds/bin/gnu/h-i686-mingw32/bin/../lib/gcc/nios2-elf/4.1.2\libgcc.a(_gt_sf.o)
 .debug_line    0x0001975c      0x121 d:/altera/12.1sp1b243/nios2eds/bin/gnu/h-i686-mingw32/bin/../lib/gcc/nios2-elf/4.1.2\libgcc.a(_lt_sf.o)
 .debug_line    0x0001987d      0x430 d:/altera/12.1sp1b243/nios2eds/bin/gnu/h-i686-mingw32/bin/../lib/gcc/nios2-elf/4.1.2\libgcc.a(_addsub_df.o)
 .debug_line    0x00019cad      0x3e5 d:/altera/12.1sp1b243/nios2eds/bin/gnu/h-i686-mingw32/bin/../lib/gcc/nios2-elf/4.1.2\libgcc.a(_mul_df.o)
 .debug_line    0x0001a092      0x301 d:/altera/12.1sp1b243/nios2eds/bin/gnu/h-i686-mingw32/bin/../lib/gcc/nios2-elf/4.1.2\libgcc.a(_div_df.o)
 .debug_line    0x0001a393      0x129 d:/altera/12.1sp1b243/nios2eds/bin/gnu/h-i686-mingw32/bin/../lib/gcc/nios2-elf/4.1.2\libgcc.a(_eq_df.o)
 .debug_line    0x0001a4bc      0x129 d:/altera/12.1sp1b243/nios2eds/bin/gnu/h-i686-mingw32/bin/../lib/gcc/nios2-elf/4.1.2\libgcc.a(_ne_df.o)
 .debug_line    0x0001a5e5      0x129 d:/altera/12.1sp1b243/nios2eds/bin/gnu/h-i686-mingw32/bin/../lib/gcc/nios2-elf/4.1.2\libgcc.a(_gt_df.o)
 .debug_line    0x0001a70e      0x129 d:/altera/12.1sp1b243/nios2eds/bin/gnu/h-i686-mingw32/bin/../lib/gcc/nios2-elf/4.1.2\libgcc.a(_ge_df.o)
 .debug_line    0x0001a837      0x129 d:/altera/12.1sp1b243/nios2eds/bin/gnu/h-i686-mingw32/bin/../lib/gcc/nios2-elf/4.1.2\libgcc.a(_lt_df.o)
 .debug_line    0x0001a960      0x129 d:/altera/12.1sp1b243/nios2eds/bin/gnu/h-i686-mingw32/bin/../lib/gcc/nios2-elf/4.1.2\libgcc.a(_le_df.o)
 .debug_line    0x0001aa89      0x175 d:/altera/12.1sp1b243/nios2eds/bin/gnu/h-i686-mingw32/bin/../lib/gcc/nios2-elf/4.1.2\libgcc.a(_si_to_df.o)
 .debug_line    0x0001abfe      0x149 d:/altera/12.1sp1b243/nios2eds/bin/gnu/h-i686-mingw32/bin/../lib/gcc/nios2-elf/4.1.2\libgcc.a(_df_to_si.o)
 .debug_line    0x0001ad47      0x121 d:/altera/12.1sp1b243/nios2eds/bin/gnu/h-i686-mingw32/bin/../lib/gcc/nios2-elf/4.1.2\libgcc.a(_df_to_sf.o)
 .debug_line    0x0001ae68       0x94 d:/altera/12.1sp1b243/nios2eds/bin/gnu/h-i686-mingw32/bin/../lib/gcc/nios2-elf/4.1.2\libgcc.a(_thenan_df.o)
 .debug_line    0x0001aefc      0x189 d:/altera/12.1sp1b243/nios2eds/bin/gnu/h-i686-mingw32/bin/../lib/gcc/nios2-elf/4.1.2\libgcc.a(_usi_to_df.o)
 .debug_line    0x0001b085       0xaa d:/altera/12.1sp1b243/nios2eds/bin/gnu/h-i686-mingw32/bin/../lib/gcc/nios2-elf/4.1.2\libgcc.a(_clz.o)
 .debug_line    0x0001b12f      0x105 d:/altera/12.1sp1b243/nios2eds/bin/gnu/h-i686-mingw32/bin/../lib/gcc/nios2-elf/4.1.2\libgcc.a(_clzsi2.o)
 .debug_line    0x0001b234      0x197 d:/altera/12.1sp1b243/nios2eds/bin/gnu/h-i686-mingw32/bin/../lib/gcc/nios2-elf/4.1.2\libgcc.a(_unpack_sf.o)
 .debug_line    0x0001b3cb      0x177 d:/altera/12.1sp1b243/nios2eds/bin/gnu/h-i686-mingw32/bin/../lib/gcc/nios2-elf/4.1.2\libgcc.a(_fpcmp_parts_sf.o)
 .debug_line    0x0001b542       0xe1 d:/altera/12.1sp1b243/nios2eds/bin/gnu/h-i686-mingw32/bin/../lib/gcc/nios2-elf/4.1.2\libgcc.a(_make_sf.o)
 .debug_line    0x0001b623      0x222 d:/altera/12.1sp1b243/nios2eds/bin/gnu/h-i686-mingw32/bin/../lib/gcc/nios2-elf/4.1.2\libgcc.a(_pack_df.o)
 .debug_line    0x0001b845      0x1e4 d:/altera/12.1sp1b243/nios2eds/bin/gnu/h-i686-mingw32/bin/../lib/gcc/nios2-elf/4.1.2\libgcc.a(_unpack_df.o)
 .debug_line    0x0001ba29      0x187 d:/altera/12.1sp1b243/nios2eds/bin/gnu/h-i686-mingw32/bin/../lib/gcc/nios2-elf/4.1.2\libgcc.a(_fpcmp_parts_df.o)
 .debug_line    0x0001bbb0      0x1ca d:/altera/12.1sp1b243/nios2eds/bin/gnu/h-i686-mingw32/bin/../lib/gcc/nios2-elf/4.1.2\libgcc.a(_pack_sf.o)
 .debug_line    0x0001bd7a      0x309 ../../bsp/ucosii_net_rozipfs/\libucosii_bsp.a(alt_fstat.o)
 .debug_line    0x0001c083      0x30a ../../bsp/ucosii_net_rozipfs/\libucosii_bsp.a(alt_isatty.o)
 .debug_line    0x0001c38d      0x309 ../../bsp/ucosii_net_rozipfs/\libucosii_bsp.a(alt_lseek.o)
 .debug_line    0x0001c696      0x351 ../../bsp/ucosii_net_rozipfs/\libucosii_bsp.a(alt_main.o)
 .debug_line    0x0001c9e7      0x367 ../../bsp/ucosii_net_rozipfs/\libucosii_bsp.a(alt_open.o)
 .debug_line    0x0001cd4e      0x281 ../../bsp/ucosii_net_rozipfs/\libucosii_bsp.a(alt_release_fd.o)
 .debug_line    0x0001cfcf      0x269 ../../bsp/ucosii_net_rozipfs/\libucosii_bsp.a(alt_sbrk.o)
 .debug_line    0x0001d238      0x31e ../../bsp/ucosii_net_rozipfs/\libucosii_bsp.a(alt_tick.o)
 .debug_line    0x0001d556      0x2b5 ../../bsp/ucosii_net_rozipfs/\libucosii_bsp.a(alt_usleep.o)
 .debug_line    0x0001d80b      0x2c7 ../../bsp/ucosii_net_rozipfs/\libucosii_bsp.a(alt_env_lock.o)
 .debug_line    0x0001dad2      0x383 ../../bsp/ucosii_net_rozipfs/\libucosii_bsp.a(alt_malloc_lock.o)
 .debug_line    0x0001de55     0x166b ../../bsp/ucosii_net_rozipfs/\libucosii_bsp.a(os_core.o)
 .debug_line    0x0001f4c0      0x390 ../../bsp/ucosii_net_rozipfs/\libucosii_bsp.a(os_dbg.o)
 .debug_line    0x0001f850     0x11ef ../../bsp/ucosii_net_rozipfs/\libucosii_bsp.a(os_flag.o)
 .debug_line    0x00020a3f      0xabe ../../bsp/ucosii_net_rozipfs/\libucosii_bsp.a(os_mbox.o)
 .debug_line    0x000214fd      0x792 ../../bsp/ucosii_net_rozipfs/\libucosii_bsp.a(os_mem.o)
 .debug_line    0x00021c8f      0xe73 ../../bsp/ucosii_net_rozipfs/\libucosii_bsp.a(os_q.o)
 .debug_line    0x00022b02      0xa2b ../../bsp/ucosii_net_rozipfs/\libucosii_bsp.a(os_sem.o)
 .debug_line    0x0002352d     0x1134 ../../bsp/ucosii_net_rozipfs/\libucosii_bsp.a(os_task.o)
 .debug_line    0x00024661      0x537 ../../bsp/ucosii_net_rozipfs/\libucosii_bsp.a(os_time.o)
 .debug_line    0x00024b98      0x5b4 ../../bsp/ucosii_net_rozipfs/\libucosii_bsp.a(alt_sys_init.o)
 .debug_line    0x0002514c      0x57b ../../bsp/ucosii_net_rozipfs/\libucosii_bsp.a(altera_avalon_cfi_flash.o)
 .debug_line    0x000256c7      0x981 ../../bsp/ucosii_net_rozipfs/\libucosii_bsp.a(altera_avalon_cfi_flash_table.o)
 .debug_line    0x00026048      0x321 ../../bsp/ucosii_net_rozipfs/\libucosii_bsp.a(altera_avalon_jtag_uart_fd.o)
 .debug_line    0x00026369      0x5a0 ../../bsp/ucosii_net_rozipfs/\libucosii_bsp.a(altera_avalon_jtag_uart_init.o)
 .debug_line    0x00026909      0x35e ../../bsp/ucosii_net_rozipfs/\libucosii_bsp.a(altera_avalon_jtag_uart_ioctl.o)
 .debug_line    0x00026c67      0x49c ../../bsp/ucosii_net_rozipfs/\libucosii_bsp.a(altera_avalon_jtag_uart_read.o)
 .debug_line    0x00027103      0x4aa ../../bsp/ucosii_net_rozipfs/\libucosii_bsp.a(altera_avalon_jtag_uart_write.o)
 .debug_line    0x000275ad      0x948 ../../bsp/ucosii_net_rozipfs/\libucosii_bsp.a(altera_avalon_lcd_16207.o)
 .debug_line    0x00027ef5      0x2c1 ../../bsp/ucosii_net_rozipfs/\libucosii_bsp.a(altera_avalon_lcd_16207_fd.o)
 .debug_line    0x000281b6      0x676 ../../bsp/ucosii_net_rozipfs/\libucosii_bsp.a(altera_avalon_sgdma.o)
 .debug_line    0x0002882c      0x2bb ../../bsp/ucosii_net_rozipfs/\libucosii_bsp.a(altera_avalon_timer_sc.o)
 .debug_line    0x00028ae7     0x209f ../../bsp/ucosii_net_rozipfs/\libucosii_bsp.a(altera_avalon_tse.o)
 .debug_line    0x0002ab86      0x82a ../../bsp/ucosii_net_rozipfs/\libucosii_bsp.a(altera_ro_zipfs.o)
 .debug_line    0x0002b3b0      0xc37 ../../bsp/ucosii_net_rozipfs/\libucosii_bsp.a(ins_tse_mac.o)
 .debug_line    0x0002bfe7      0x34f ../../bsp/ucosii_net_rozipfs/\libucosii_bsp.a(alt_iniche_close.o)
 .debug_line    0x0002c336      0x3f2 ../../bsp/ucosii_net_rozipfs/\libucosii_bsp.a(alt_iniche_dev.o)
 .debug_line    0x0002c728      0x34e ../../bsp/ucosii_net_rozipfs/\libucosii_bsp.a(alt_iniche_read.o)
 .debug_line    0x0002ca76      0x35f ../../bsp/ucosii_net_rozipfs/\libucosii_bsp.a(alt_iniche_write.o)
 .debug_line    0x0002cdd5      0x7ae ../../bsp/ucosii_net_rozipfs/\libucosii_bsp.a(ipnet.o)
 .debug_line    0x0002d583      0x4ef ../../bsp/ucosii_net_rozipfs/\libucosii_bsp.a(ipstart.o)
 .debug_line    0x0002da72      0x924 ../../bsp/ucosii_net_rozipfs/\libucosii_bsp.a(igmp_cmn.o)
 .debug_line    0x0002e396      0x6cf ../../bsp/ucosii_net_rozipfs/\libucosii_bsp.a(bsdsock.o)
 .debug_line    0x0002ea65      0x312 ../../bsp/ucosii_net_rozipfs/\libucosii_bsp.a(cksum.o)
 .debug_line    0x0002ed77      0x7b1 ../../bsp/ucosii_net_rozipfs/\libucosii_bsp.a(in_utils.o)
 .debug_line    0x0002f528      0x447 ../../bsp/ucosii_net_rozipfs/\libucosii_bsp.a(netmain.o)
 .debug_line    0x0002f96f      0x5b0 ../../bsp/ucosii_net_rozipfs/\libucosii_bsp.a(tk_crnos.o)
 .debug_line    0x0002ff1f     0x1133 ../../bsp/ucosii_net_rozipfs/\libucosii_bsp.a(dhcpclnt.o)
 .debug_line    0x00031052      0x307 ../../bsp/ucosii_net_rozipfs/\libucosii_bsp.a(dhcputil.o)
 .debug_line    0x00031359      0x651 ../../bsp/ucosii_net_rozipfs/\libucosii_bsp.a(pktalloc.o)
 .debug_line    0x000319aa      0x3e3 ../../bsp/ucosii_net_rozipfs/\libucosii_bsp.a(q.o)
 .debug_line    0x00031d8d      0x476 ../../bsp/ucosii_net_rozipfs/\libucosii_bsp.a(udp_open.o)
 .debug_line    0x00032203       0xaf ../../bsp/ucosii_net_rozipfs/\libucosii_bsp.a(asm_cksum.o)
 .debug_line    0x000322b2      0x47a ../../bsp/ucosii_net_rozipfs/\libucosii_bsp.a(brdutils.o)
 .debug_line    0x0003272c      0x507 ../../bsp/ucosii_net_rozipfs/\libucosii_bsp.a(osportco.o)
 .debug_line    0x00032c33      0x646 ../../bsp/ucosii_net_rozipfs/\libucosii_bsp.a(targnios.o)
 .debug_line    0x00033279     0x125c ../../bsp/ucosii_net_rozipfs/\libucosii_bsp.a(nptcp.o)
 .debug_line    0x000344d5      0x850 ../../bsp/ucosii_net_rozipfs/\libucosii_bsp.a(rawsock.o)
 .debug_line    0x00034d25      0xe3e ../../bsp/ucosii_net_rozipfs/\libucosii_bsp.a(sockcall.o)
 .debug_line    0x00035b63     0x12c0 ../../bsp/ucosii_net_rozipfs/\libucosii_bsp.a(socket.o)
 .debug_line    0x00036e23      0xbf4 ../../bsp/ucosii_net_rozipfs/\libucosii_bsp.a(socket2.o)
 .debug_line    0x00037a17      0x735 ../../bsp/ucosii_net_rozipfs/\libucosii_bsp.a(soselect.o)
 .debug_line    0x0003814c     0x15f6 ../../bsp/ucosii_net_rozipfs/\libucosii_bsp.a(tcp_in.o)
 .debug_line    0x00039742      0xa61 ../../bsp/ucosii_net_rozipfs/\libucosii_bsp.a(tcp_out.o)
 .debug_line    0x0003a1a3      0x7cb ../../bsp/ucosii_net_rozipfs/\libucosii_bsp.a(tcp_subr.o)
 .debug_line    0x0003a96e      0x61b ../../bsp/ucosii_net_rozipfs/\libucosii_bsp.a(tcp_timr.o)
 .debug_line    0x0003af89      0x8aa ../../bsp/ucosii_net_rozipfs/\libucosii_bsp.a(tcp_usr.o)
 .debug_line    0x0003b833      0x347 ../../bsp/ucosii_net_rozipfs/\libucosii_bsp.a(tcpport.o)
 .debug_line    0x0003bb7a      0x961 ../../bsp/ucosii_net_rozipfs/\libucosii_bsp.a(udpsock.o)
 .debug_line    0x0003c4db      0x2e4 ../../bsp/ucosii_net_rozipfs/\libucosii_bsp.a(alt_alarm_start.o)
 .debug_line    0x0003c7bf      0x268 ../../bsp/ucosii_net_rozipfs/\libucosii_bsp.a(alt_busy_sleep.o)
 .debug_line    0x0003ca27      0x301 ../../bsp/ucosii_net_rozipfs/\libucosii_bsp.a(alt_close.o)
 .debug_line    0x0003cd28      0x1e9 ../../bsp/ucosii_net_rozipfs/\libucosii_bsp.a(alt_dcache_flush.o)
 .debug_line    0x0003cf11      0x2c2 ../../bsp/ucosii_net_rozipfs/\libucosii_bsp.a(alt_dev.o)
 .debug_line    0x0003d1d3      0x262 ../../bsp/ucosii_net_rozipfs/\libucosii_bsp.a(alt_dev_llist_insert.o)
 .debug_line    0x0003d435       0x83 ../../bsp/ucosii_net_rozipfs/\libucosii_bsp.a(alt_do_ctors.o)
 .debug_line    0x0003d4b8       0x83 ../../bsp/ucosii_net_rozipfs/\libucosii_bsp.a(alt_do_dtors.o)
 .debug_line    0x0003d53b      0x1b2 ../../bsp/ucosii_net_rozipfs/\libucosii_bsp.a(alt_errno.o)
 .debug_line    0x0003d6ed      0x2e2 ../../bsp/ucosii_net_rozipfs/\libucosii_bsp.a(alt_find_dev.o)
 .debug_line    0x0003d9cf      0x2f3 ../../bsp/ucosii_net_rozipfs/\libucosii_bsp.a(alt_find_file.o)
 .debug_line    0x0003dcc2      0x2d0 ../../bsp/ucosii_net_rozipfs/\libucosii_bsp.a(alt_flash_dev.o)
 .debug_line    0x0003df92      0x2ab ../../bsp/ucosii_net_rozipfs/\libucosii_bsp.a(alt_fs_reg.o)
 .debug_line    0x0003e23d      0x323 ../../bsp/ucosii_net_rozipfs/\libucosii_bsp.a(alt_get_fd.o)
 .debug_line    0x0003e560      0x2d0 ../../bsp/ucosii_net_rozipfs/\libucosii_bsp.a(alt_iic.o)
 .debug_line    0x0003e830      0x251 ../../bsp/ucosii_net_rozipfs/\libucosii_bsp.a(alt_iic_isr_register.o)
 .debug_line    0x0003ea81      0x32b ../../bsp/ucosii_net_rozipfs/\libucosii_bsp.a(alt_io_redirect.o)
 .debug_line    0x0003edac       0x6b ../../bsp/ucosii_net_rozipfs/\libucosii_bsp.a(alt_irq_entry.o)
 .debug_line    0x0003ee17      0x2cc ../../bsp/ucosii_net_rozipfs/\libucosii_bsp.a(alt_irq_handler.o)
 .debug_line    0x0003f0e3       0x72 ../../bsp/ucosii_net_rozipfs/\libucosii_bsp.a(alt_irq_vars.o)
 .debug_line    0x0003f155      0x330 ../../bsp/ucosii_net_rozipfs/\libucosii_bsp.a(alt_read.o)
 .debug_line    0x0003f485      0x1c1 ../../bsp/ucosii_net_rozipfs/\libucosii_bsp.a(alt_remap_cached.o)
 .debug_line    0x0003f646      0x1cb ../../bsp/ucosii_net_rozipfs/\libucosii_bsp.a(alt_remap_uncached.o)
 .debug_line    0x0003f811      0x1d4 ../../bsp/ucosii_net_rozipfs/\libucosii_bsp.a(alt_uncached_malloc.o)
 .debug_line    0x0003f9e5      0x331 ../../bsp/ucosii_net_rozipfs/\libucosii_bsp.a(alt_write.o)
 .debug_line    0x0003fd16      0x1d6 ../../bsp/ucosii_net_rozipfs/\libucosii_bsp.a(altera_nios2_qsys_irq.o)
 .debug_line    0x0003feec       0x86 ../../bsp/ucosii_net_rozipfs/\libucosii_bsp.a(os_cpu_a.o)
 .debug_line    0x0003ff72      0x338 ../../bsp/ucosii_net_rozipfs/\libucosii_bsp.a(os_cpu_c.o)
 .debug_line    0x000402aa      0x44d ../../bsp/ucosii_net_rozipfs/\libucosii_bsp.a(altera_avalon_cfi_flash_amd.o)
 .debug_line    0x000406f7      0x43f ../../bsp/ucosii_net_rozipfs/\libucosii_bsp.a(altera_avalon_cfi_flash_intel.o)
 .debug_line    0x00040b36      0x527 ../../bsp/ucosii_net_rozipfs/\libucosii_bsp.a(allports.o)
 .debug_line    0x0004105d      0x48b ../../bsp/ucosii_net_rozipfs/\libucosii_bsp.a(timeouts.o)
 .debug_line    0x000414e8      0x378 ../../bsp/ucosii_net_rozipfs/\libucosii_bsp.a(tk_misc.o)
 .debug_line    0x00041860      0x397 ../../bsp/ucosii_net_rozipfs/\libucosii_bsp.a(alt_iniche_fcntl.o)
 .debug_line    0x00041bf7      0xd4c ../../bsp/ucosii_net_rozipfs/\libucosii_bsp.a(et_arp.o)
 .debug_line    0x00042943      0x481 ../../bsp/ucosii_net_rozipfs/\libucosii_bsp.a(iface.o)
 .debug_line    0x00042dc4      0xf9d ../../bsp/ucosii_net_rozipfs/\libucosii_bsp.a(ip.o)
 .debug_line    0x00043d61      0xf84 ../../bsp/ucosii_net_rozipfs/\libucosii_bsp.a(ip_reasm.o)
 .debug_line    0x00044ce5      0x7ee ../../bsp/ucosii_net_rozipfs/\libucosii_bsp.a(ipdemux.o)
 .debug_line    0x000454d3      0x470 ../../bsp/ucosii_net_rozipfs/\libucosii_bsp.a(ipmc.o)
 .debug_line    0x00045943      0x340 ../../bsp/ucosii_net_rozipfs/\libucosii_bsp.a(ipport.o)
 .debug_line    0x00045c83      0x5c1 ../../bsp/ucosii_net_rozipfs/\libucosii_bsp.a(ipraw.o)
 .debug_line    0x00046244      0x5c3 ../../bsp/ucosii_net_rozipfs/\libucosii_bsp.a(iproute.o)
 .debug_line    0x00046807      0x8e8 ../../bsp/ucosii_net_rozipfs/\libucosii_bsp.a(udp.o)
 .debug_line    0x000470ef      0x442 ../../bsp/ucosii_net_rozipfs/\libucosii_bsp.a(igmp.o)
 .debug_line    0x00047531      0x635 ../../bsp/ucosii_net_rozipfs/\libucosii_bsp.a(igmp2.o)
 .debug_line    0x00047b66      0x719 ../../bsp/ucosii_net_rozipfs/\libucosii_bsp.a(ipopt.o)
 .debug_line    0x0004827f      0x603 ../../bsp/ucosii_net_rozipfs/\libucosii_bsp.a(u_mctest.o)
 .debug_line    0x00048882      0x447 ../../bsp/ucosii_net_rozipfs/\libucosii_bsp.a(dhcsetup.o)
 .debug_line    0x00048cc9      0x451 ../../bsp/ucosii_net_rozipfs/\libucosii_bsp.a(memdev.o)
 .debug_line    0x0004911a      0x655 ../../bsp/ucosii_net_rozipfs/\libucosii_bsp.a(parseip.o)
 .debug_line    0x0004976f      0x3c1 ../../bsp/ucosii_net_rozipfs/\libucosii_bsp.a(tcpcksum.o)
 .debug_line    0x00049b30      0x775 ../../bsp/ucosii_net_rozipfs/\libucosii_bsp.a(in_pcb.o)
 .debug_line    0x0004a2a5      0xfff ../../bsp/ucosii_net_rozipfs/\libucosii_bsp.a(vfsfiles.o)
 .debug_line    0x0004b2a4      0x2cc ../../bsp/ucosii_net_rozipfs/\libucosii_bsp.a(vfsport.o)
 .debug_line    0x0004b570       0xab ../../bsp/ucosii_net_rozipfs/\libucosii_bsp.a(alt_exception_entry.o)
 .debug_line    0x0004b61b      0x360 ../../bsp/ucosii_net_rozipfs/\libucosii_bsp.a(alt_fcntl.o)
 .debug_line    0x0004b97b      0x9c0 ../../bsp/ucosii_net_rozipfs/\libucosii_bsp.a(icmp.o)
 .debug_line    0x0004c33b      0x200 d:/altera/12.1sp1b243/nios2eds/bin/gnu/h-i686-mingw32/bin/../lib/gcc/nios2-elf/4.1.2/../../../../nios2-elf/lib\libc.a(lib_a-atexit.o)
 .debug_line    0x0004c53b      0x238 d:/altera/12.1sp1b243/nios2eds/bin/gnu/h-i686-mingw32/bin/../lib/gcc/nios2-elf/4.1.2/../../../../nios2-elf/lib\libc.a(lib_a-exit.o)
 .debug_line    0x0004c773      0x26f d:/altera/12.1sp1b243/nios2eds/bin/gnu/h-i686-mingw32/bin/../lib/gcc/nios2-elf/4.1.2/../../../../nios2-elf/lib\libc.a(lib_a-vprintf.o)
 .debug_line    0x0004c9e2      0x313 d:/altera/12.1sp1b243/nios2eds/bin/gnu/h-i686-mingw32/bin/../lib/gcc/nios2-elf/4.1.2/../../../../nios2-elf/lib\libc.a(lib_a-__atexit.o)
 .debug_line    0x0004ccf5      0x367 d:/altera/12.1sp1b243/nios2eds/bin/gnu/h-i686-mingw32/bin/../lib/gcc/nios2-elf/4.1.2/../../../../nios2-elf/lib\libc.a(lib_a-__call_atexit.o)
 .debug_line    0x0004d05c      0x27e ../../bsp/ucosii_net_rozipfs/\libucosii_bsp.a(alt_exit.o)

.debug_frame    0x00000000     0x79c0
 *(.debug_frame)
 .debug_frame   0x00000000      0x248 obj/default/src/flash_intel_p30/flash_intel_p30.o
 .debug_frame   0x00000248       0x84 obj/default/src/main.o
 .debug_frame   0x000002cc       0x64 obj/default/src/os_utils.o
 .debug_frame   0x00000330       0x48 obj/default/src/reconfig_utils.o
 .debug_frame   0x00000378       0x64 obj/default/src/srec/srec.o
 .debug_frame   0x000003dc      0x4b8 obj/default/src/webserver.o
 .debug_frame   0x00000894       0x70 d:/altera/12.1sp1b243/nios2eds/bin/gnu/h-i686-mingw32/bin/../lib/gcc/nios2-elf/4.1.2\libgcc.a(lib2-divmod.o)
 .debug_frame   0x00000904       0x30 d:/altera/12.1sp1b243/nios2eds/bin/gnu/h-i686-mingw32/bin/../lib/gcc/nios2-elf/4.1.2/../../../../nios2-elf/lib\libc.a(lib_a-atoi.o)
 .debug_frame   0x00000934       0x20 d:/altera/12.1sp1b243/nios2eds/bin/gnu/h-i686-mingw32/bin/../lib/gcc/nios2-elf/4.1.2/../../../../nios2-elf/lib\libc.a(lib_a-calloc.o)
 .debug_frame   0x00000954       0x28 d:/altera/12.1sp1b243/nios2eds/bin/gnu/h-i686-mingw32/bin/../lib/gcc/nios2-elf/4.1.2/../../../../nios2-elf/lib\libc.a(lib_a-callocr.o)
 .debug_frame   0x0000097c       0x3c d:/altera/12.1sp1b243/nios2eds/bin/gnu/h-i686-mingw32/bin/../lib/gcc/nios2-elf/4.1.2/../../../../nios2-elf/lib\libc.a(lib_a-fclose.o)
 .debug_frame   0x000009b8       0x40 d:/altera/12.1sp1b243/nios2eds/bin/gnu/h-i686-mingw32/bin/../lib/gcc/nios2-elf/4.1.2/../../../../nios2-elf/lib\libc.a(lib_a-fflush.o)
 .debug_frame   0x000009f8       0x38 d:/altera/12.1sp1b243/nios2eds/bin/gnu/h-i686-mingw32/bin/../lib/gcc/nios2-elf/4.1.2/../../../../nios2-elf/lib\libc.a(lib_a-fgetpos.o)
 .debug_frame   0x00000a30      0x118 d:/altera/12.1sp1b243/nios2eds/bin/gnu/h-i686-mingw32/bin/../lib/gcc/nios2-elf/4.1.2/../../../../nios2-elf/lib\libc.a(lib_a-findfp.o)
 .debug_frame   0x00000b48       0x40 d:/altera/12.1sp1b243/nios2eds/bin/gnu/h-i686-mingw32/bin/../lib/gcc/nios2-elf/4.1.2/../../../../nios2-elf/lib\libc.a(lib_a-fopen.o)
 .debug_frame   0x00000b88       0x54 d:/altera/12.1sp1b243/nios2eds/bin/gnu/h-i686-mingw32/bin/../lib/gcc/nios2-elf/4.1.2/../../../../nios2-elf/lib\libc.a(lib_a-fread.o)
 .debug_frame   0x00000bdc       0x4c d:/altera/12.1sp1b243/nios2eds/bin/gnu/h-i686-mingw32/bin/../lib/gcc/nios2-elf/4.1.2/../../../../nios2-elf/lib\libc.a(lib_a-freer.o)
 .debug_frame   0x00000c28       0x48 d:/altera/12.1sp1b243/nios2eds/bin/gnu/h-i686-mingw32/bin/../lib/gcc/nios2-elf/4.1.2/../../../../nios2-elf/lib\libc.a(lib_a-fseek.o)
 .debug_frame   0x00000c70       0x2c d:/altera/12.1sp1b243/nios2eds/bin/gnu/h-i686-mingw32/bin/../lib/gcc/nios2-elf/4.1.2/../../../../nios2-elf/lib\libc.a(lib_a-fstatr.o)
 .debug_frame   0x00000c9c       0x3c d:/altera/12.1sp1b243/nios2eds/bin/gnu/h-i686-mingw32/bin/../lib/gcc/nios2-elf/4.1.2/../../../../nios2-elf/lib\libc.a(lib_a-ftell.o)
 .debug_frame   0x00000cd8       0x60 d:/altera/12.1sp1b243/nios2eds/bin/gnu/h-i686-mingw32/bin/../lib/gcc/nios2-elf/4.1.2/../../../../nios2-elf/lib\libc.a(lib_a-fwalk.o)
 .debug_frame   0x00000d38       0x48 d:/altera/12.1sp1b243/nios2eds/bin/gnu/h-i686-mingw32/bin/../lib/gcc/nios2-elf/4.1.2/../../../../nios2-elf/lib\libc.a(lib_a-fwrite.o)
 .debug_frame   0x00000d80       0x48 d:/altera/12.1sp1b243/nios2eds/bin/gnu/h-i686-mingw32/bin/../lib/gcc/nios2-elf/4.1.2/../../../../nios2-elf/lib\libc.a(lib_a-getc.o)
 .debug_frame   0x00000dc8       0x2c d:/altera/12.1sp1b243/nios2eds/bin/gnu/h-i686-mingw32/bin/../lib/gcc/nios2-elf/4.1.2/../../../../nios2-elf/lib\libc.a(lib_a-makebuf.o)
 .debug_frame   0x00000df4       0x30 d:/altera/12.1sp1b243/nios2eds/bin/gnu/h-i686-mingw32/bin/../lib/gcc/nios2-elf/4.1.2/../../../../nios2-elf/lib\libc.a(lib_a-malloc.o)
 .debug_frame   0x00000e24       0x38 d:/altera/12.1sp1b243/nios2eds/bin/gnu/h-i686-mingw32/bin/../lib/gcc/nios2-elf/4.1.2/../../../../nios2-elf/lib\libc.a(lib_a-mallocr.o)
 .debug_frame   0x00000e5c       0x20 d:/altera/12.1sp1b243/nios2eds/bin/gnu/h-i686-mingw32/bin/../lib/gcc/nios2-elf/4.1.2/../../../../nios2-elf/lib\libc.a(lib_a-memchr.o)
 .debug_frame   0x00000e7c       0x20 d:/altera/12.1sp1b243/nios2eds/bin/gnu/h-i686-mingw32/bin/../lib/gcc/nios2-elf/4.1.2/../../../../nios2-elf/lib\libc.a(lib_a-memcmp.o)
 .debug_frame   0x00000e9c       0x20 d:/altera/12.1sp1b243/nios2eds/bin/gnu/h-i686-mingw32/bin/../lib/gcc/nios2-elf/4.1.2/../../../../nios2-elf/lib\libc.a(lib_a-memcpy.o)
 .debug_frame   0x00000ebc       0x20 d:/altera/12.1sp1b243/nios2eds/bin/gnu/h-i686-mingw32/bin/../lib/gcc/nios2-elf/4.1.2/../../../../nios2-elf/lib\libc.a(lib_a-memmove.o)
 .debug_frame   0x00000edc       0x20 d:/altera/12.1sp1b243/nios2eds/bin/gnu/h-i686-mingw32/bin/../lib/gcc/nios2-elf/4.1.2/../../../../nios2-elf/lib\libc.a(lib_a-memset.o)
 .debug_frame   0x00000efc       0x2c d:/altera/12.1sp1b243/nios2eds/bin/gnu/h-i686-mingw32/bin/../lib/gcc/nios2-elf/4.1.2/../../../../nios2-elf/lib\libc.a(lib_a-openr.o)
 .debug_frame   0x00000f28       0x38 d:/altera/12.1sp1b243/nios2eds/bin/gnu/h-i686-mingw32/bin/../lib/gcc/nios2-elf/4.1.2/../../../../nios2-elf/lib\libc.a(lib_a-perror.o)
 .debug_frame   0x00000f60       0x4c d:/altera/12.1sp1b243/nios2eds/bin/gnu/h-i686-mingw32/bin/../lib/gcc/nios2-elf/4.1.2/../../../../nios2-elf/lib\libc.a(lib_a-putc.o)
 .debug_frame   0x00000fac       0x3c d:/altera/12.1sp1b243/nios2eds/bin/gnu/h-i686-mingw32/bin/../lib/gcc/nios2-elf/4.1.2/../../../../nios2-elf/lib\libc.a(lib_a-puts.o)
 .debug_frame   0x00000fe8       0x3c d:/altera/12.1sp1b243/nios2eds/bin/gnu/h-i686-mingw32/bin/../lib/gcc/nios2-elf/4.1.2/../../../../nios2-elf/lib\libc.a(lib_a-refill.o)
 .debug_frame   0x00001024       0x38 d:/altera/12.1sp1b243/nios2eds/bin/gnu/h-i686-mingw32/bin/../lib/gcc/nios2-elf/4.1.2/../../../../nios2-elf/lib\libc.a(lib_a-rget.o)
 .debug_frame   0x0000105c       0x2c d:/altera/12.1sp1b243/nios2eds/bin/gnu/h-i686-mingw32/bin/../lib/gcc/nios2-elf/4.1.2/../../../../nios2-elf/lib\libc.a(lib_a-sbrkr.o)
 .debug_frame   0x00001088       0x40 d:/altera/12.1sp1b243/nios2eds/bin/gnu/h-i686-mingw32/bin/../lib/gcc/nios2-elf/4.1.2/../../../../nios2-elf/lib\libc.a(lib_a-sprintf.o)
 .debug_frame   0x000010c8       0x54 d:/altera/12.1sp1b243/nios2eds/bin/gnu/h-i686-mingw32/bin/../lib/gcc/nios2-elf/4.1.2/../../../../nios2-elf/lib\libc.a(lib_a-sscanf.o)
 .debug_frame   0x0000111c       0x78 d:/altera/12.1sp1b243/nios2eds/bin/gnu/h-i686-mingw32/bin/../lib/gcc/nios2-elf/4.1.2/../../../../nios2-elf/lib\libc.a(lib_a-stdio.o)
 .debug_frame   0x00001194       0x20 d:/altera/12.1sp1b243/nios2eds/bin/gnu/h-i686-mingw32/bin/../lib/gcc/nios2-elf/4.1.2/../../../../nios2-elf/lib\libc.a(lib_a-strcasecmp.o)
 .debug_frame   0x000011b4       0x20 d:/altera/12.1sp1b243/nios2eds/bin/gnu/h-i686-mingw32/bin/../lib/gcc/nios2-elf/4.1.2/../../../../nios2-elf/lib\libc.a(lib_a-strchr.o)
 .debug_frame   0x000011d4       0x20 d:/altera/12.1sp1b243/nios2eds/bin/gnu/h-i686-mingw32/bin/../lib/gcc/nios2-elf/4.1.2/../../../../nios2-elf/lib\libc.a(lib_a-strcmp.o)
 .debug_frame   0x000011f4       0x20 d:/altera/12.1sp1b243/nios2eds/bin/gnu/h-i686-mingw32/bin/../lib/gcc/nios2-elf/4.1.2/../../../../nios2-elf/lib\libc.a(lib_a-strcpy.o)
 .debug_frame   0x00001214       0x28 d:/altera/12.1sp1b243/nios2eds/bin/gnu/h-i686-mingw32/bin/../lib/gcc/nios2-elf/4.1.2/../../../../nios2-elf/lib\libc.a(lib_a-strerror.o)
 .debug_frame   0x0000123c       0x20 d:/altera/12.1sp1b243/nios2eds/bin/gnu/h-i686-mingw32/bin/../lib/gcc/nios2-elf/4.1.2/../../../../nios2-elf/lib\libc.a(lib_a-strlen.o)
 .debug_frame   0x0000125c       0x20 d:/altera/12.1sp1b243/nios2eds/bin/gnu/h-i686-mingw32/bin/../lib/gcc/nios2-elf/4.1.2/../../../../nios2-elf/lib\libc.a(lib_a-strncmp.o)
 .debug_frame   0x0000127c       0x20 d:/altera/12.1sp1b243/nios2eds/bin/gnu/h-i686-mingw32/bin/../lib/gcc/nios2-elf/4.1.2/../../../../nios2-elf/lib\libc.a(lib_a-strncpy.o)
 .debug_frame   0x0000129c       0x4c d:/altera/12.1sp1b243/nios2eds/bin/gnu/h-i686-mingw32/bin/../lib/gcc/nios2-elf/4.1.2/../../../../nios2-elf/lib\libc.a(lib_a-strstr.o)
 .debug_frame   0x000012e8       0x20 d:/altera/12.1sp1b243/nios2eds/bin/gnu/h-i686-mingw32/bin/../lib/gcc/nios2-elf/4.1.2/../../../../nios2-elf/lib\libc.a(lib_a-strtok.o)
 .debug_frame   0x00001308       0x30 d:/altera/12.1sp1b243/nios2eds/bin/gnu/h-i686-mingw32/bin/../lib/gcc/nios2-elf/4.1.2/../../../../nios2-elf/lib\libc.a(lib_a-strtok_r.o)
 .debug_frame   0x00001338       0x4c d:/altera/12.1sp1b243/nios2eds/bin/gnu/h-i686-mingw32/bin/../lib/gcc/nios2-elf/4.1.2/../../../../nios2-elf/lib\libc.a(lib_a-strtol.o)
 .debug_frame   0x00001384       0x20 d:/altera/12.1sp1b243/nios2eds/bin/gnu/h-i686-mingw32/bin/../lib/gcc/nios2-elf/4.1.2/../../../../nios2-elf/lib\libc.a(lib_a-u_strerr.o)
 .debug_frame   0x000013a4       0x64 d:/altera/12.1sp1b243/nios2eds/bin/gnu/h-i686-mingw32/bin/../lib/gcc/nios2-elf/4.1.2/../../../../nios2-elf/lib\libc.a(lib_a-vfprintf.o)
 .debug_frame   0x00001408       0x8c d:/altera/12.1sp1b243/nios2eds/bin/gnu/h-i686-mingw32/bin/../lib/gcc/nios2-elf/4.1.2/../../../../nios2-elf/lib\libc.a(lib_a-vfscanf.o)
 .debug_frame   0x00001494       0x38 d:/altera/12.1sp1b243/nios2eds/bin/gnu/h-i686-mingw32/bin/../lib/gcc/nios2-elf/4.1.2/../../../../nios2-elf/lib\libc.a(lib_a-vsprintf.o)
 .debug_frame   0x000014cc       0x3c d:/altera/12.1sp1b243/nios2eds/bin/gnu/h-i686-mingw32/bin/../lib/gcc/nios2-elf/4.1.2/../../../../nios2-elf/lib\libc.a(lib_a-wbuf.o)
 .debug_frame   0x00001508       0x2c d:/altera/12.1sp1b243/nios2eds/bin/gnu/h-i686-mingw32/bin/../lib/gcc/nios2-elf/4.1.2/../../../../nios2-elf/lib\libc.a(lib_a-writer.o)
 .debug_frame   0x00001534       0x2c d:/altera/12.1sp1b243/nios2eds/bin/gnu/h-i686-mingw32/bin/../lib/gcc/nios2-elf/4.1.2/../../../../nios2-elf/lib\libc.a(lib_a-wsetup.o)
 .debug_frame   0x00001560       0x2c d:/altera/12.1sp1b243/nios2eds/bin/gnu/h-i686-mingw32/bin/../lib/gcc/nios2-elf/4.1.2/../../../../nios2-elf/lib\libc.a(lib_a-closer.o)
 .debug_frame   0x0000158c       0x64 d:/altera/12.1sp1b243/nios2eds/bin/gnu/h-i686-mingw32/bin/../lib/gcc/nios2-elf/4.1.2/../../../../nios2-elf/lib\libc.a(lib_a-dtoa.o)
 .debug_frame   0x000015f0       0x20 d:/altera/12.1sp1b243/nios2eds/bin/gnu/h-i686-mingw32/bin/../lib/gcc/nios2-elf/4.1.2/../../../../nios2-elf/lib\libc.a(lib_a-flags.o)
 .debug_frame   0x00001610       0x4c d:/altera/12.1sp1b243/nios2eds/bin/gnu/h-i686-mingw32/bin/../lib/gcc/nios2-elf/4.1.2/../../../../nios2-elf/lib\libc.a(lib_a-fputc.o)
 .debug_frame   0x0000165c       0x3c d:/altera/12.1sp1b243/nios2eds/bin/gnu/h-i686-mingw32/bin/../lib/gcc/nios2-elf/4.1.2/../../../../nios2-elf/lib\libc.a(lib_a-fputs.o)
 .debug_frame   0x00001698       0x38 d:/altera/12.1sp1b243/nios2eds/bin/gnu/h-i686-mingw32/bin/../lib/gcc/nios2-elf/4.1.2/../../../../nios2-elf/lib\libc.a(lib_a-fvwrite.o)
 .debug_frame   0x000016d0       0x2c d:/altera/12.1sp1b243/nios2eds/bin/gnu/h-i686-mingw32/bin/../lib/gcc/nios2-elf/4.1.2/../../../../nios2-elf/lib\libc.a(lib_a-isattyr.o)
 .debug_frame   0x000016fc       0x20 d:/altera/12.1sp1b243/nios2eds/bin/gnu/h-i686-mingw32/bin/../lib/gcc/nios2-elf/4.1.2/../../../../nios2-elf/lib\libc.a(lib_a-iswspace.o)
 .debug_frame   0x0000171c       0x70 d:/altera/12.1sp1b243/nios2eds/bin/gnu/h-i686-mingw32/bin/../lib/gcc/nios2-elf/4.1.2/../../../../nios2-elf/lib\libc.a(lib_a-locale.o)
 .debug_frame   0x0000178c       0x2c d:/altera/12.1sp1b243/nios2eds/bin/gnu/h-i686-mingw32/bin/../lib/gcc/nios2-elf/4.1.2/../../../../nios2-elf/lib\libc.a(lib_a-lseekr.o)
 .debug_frame   0x000017b8       0x44 d:/altera/12.1sp1b243/nios2eds/bin/gnu/h-i686-mingw32/bin/../lib/gcc/nios2-elf/4.1.2/../../../../nios2-elf/lib\libc.a(lib_a-mbrtowc.o)
 .debug_frame   0x000017fc       0x24 d:/altera/12.1sp1b243/nios2eds/bin/gnu/h-i686-mingw32/bin/../lib/gcc/nios2-elf/4.1.2/../../../../nios2-elf/lib\libc.a(lib_a-mbtowc_r.o)
 .debug_frame   0x00001820      0x218 d:/altera/12.1sp1b243/nios2eds/bin/gnu/h-i686-mingw32/bin/../lib/gcc/nios2-elf/4.1.2/../../../../nios2-elf/lib\libc.a(lib_a-mprec.o)
 .debug_frame   0x00001a38       0x2c d:/altera/12.1sp1b243/nios2eds/bin/gnu/h-i686-mingw32/bin/../lib/gcc/nios2-elf/4.1.2/../../../../nios2-elf/lib\libc.a(lib_a-readr.o)
 .debug_frame   0x00001a64       0x38 d:/altera/12.1sp1b243/nios2eds/bin/gnu/h-i686-mingw32/bin/../lib/gcc/nios2-elf/4.1.2/../../../../nios2-elf/lib\libc.a(lib_a-reallocr.o)
 .debug_frame   0x00001a9c       0x20 d:/altera/12.1sp1b243/nios2eds/bin/gnu/h-i686-mingw32/bin/../lib/gcc/nios2-elf/4.1.2/../../../../nios2-elf/lib\libc.a(lib_a-s_isinfd.o)
 .debug_frame   0x00001abc       0x20 d:/altera/12.1sp1b243/nios2eds/bin/gnu/h-i686-mingw32/bin/../lib/gcc/nios2-elf/4.1.2/../../../../nios2-elf/lib\libc.a(lib_a-s_isnand.o)
 .debug_frame   0x00001adc       0x20 d:/altera/12.1sp1b243/nios2eds/bin/gnu/h-i686-mingw32/bin/../lib/gcc/nios2-elf/4.1.2/../../../../nios2-elf/lib\libc.a(lib_a-sccl.o)
 .debug_frame   0x00001afc       0x20 d:/altera/12.1sp1b243/nios2eds/bin/gnu/h-i686-mingw32/bin/../lib/gcc/nios2-elf/4.1.2/../../../../nios2-elf/lib\libc.a(lib_a-sf_nan.o)
 .debug_frame   0x00001b1c       0x80 d:/altera/12.1sp1b243/nios2eds/bin/gnu/h-i686-mingw32/bin/../lib/gcc/nios2-elf/4.1.2/../../../../nios2-elf/lib\libc.a(lib_a-strtod.o)
 .debug_frame   0x00001b9c       0x3c d:/altera/12.1sp1b243/nios2eds/bin/gnu/h-i686-mingw32/bin/../lib/gcc/nios2-elf/4.1.2/../../../../nios2-elf/lib\libc.a(lib_a-strtoll_r.o)
 .debug_frame   0x00001bd8       0x4c d:/altera/12.1sp1b243/nios2eds/bin/gnu/h-i686-mingw32/bin/../lib/gcc/nios2-elf/4.1.2/../../../../nios2-elf/lib\libc.a(lib_a-strtoul.o)
 .debug_frame   0x00001c24       0x3c d:/altera/12.1sp1b243/nios2eds/bin/gnu/h-i686-mingw32/bin/../lib/gcc/nios2-elf/4.1.2/../../../../nios2-elf/lib\libc.a(lib_a-strtoull_r.o)
 .debug_frame   0x00001c60       0x60 d:/altera/12.1sp1b243/nios2eds/bin/gnu/h-i686-mingw32/bin/../lib/gcc/nios2-elf/4.1.2/../../../../nios2-elf/lib\libc.a(lib_a-ungetc.o)
 .debug_frame   0x00001cc0       0x74 d:/altera/12.1sp1b243/nios2eds/bin/gnu/h-i686-mingw32/bin/../lib/gcc/nios2-elf/4.1.2/../../../../nios2-elf/lib\libc.a(lib_a-gdtoa-gethex.o)
 .debug_frame   0x00001d34       0x4c d:/altera/12.1sp1b243/nios2eds/bin/gnu/h-i686-mingw32/bin/../lib/gcc/nios2-elf/4.1.2/../../../../nios2-elf/lib\libc.a(lib_a-gdtoa-hexnan.o)
 .debug_frame   0x00001d80       0x2c d:/altera/12.1sp1b243/nios2eds/bin/gnu/h-i686-mingw32/bin/../lib/gcc/nios2-elf/4.1.2\libgcc.a(_muldi3.o)
 .debug_frame   0x00001dac       0x30 d:/altera/12.1sp1b243/nios2eds/bin/gnu/h-i686-mingw32/bin/../lib/gcc/nios2-elf/4.1.2\libgcc.a(_fixunsdfsi.o)
 .debug_frame   0x00001ddc       0x38 d:/altera/12.1sp1b243/nios2eds/bin/gnu/h-i686-mingw32/bin/../lib/gcc/nios2-elf/4.1.2\libgcc.a(_udivdi3.o)
 .debug_frame   0x00001e14       0x38 d:/altera/12.1sp1b243/nios2eds/bin/gnu/h-i686-mingw32/bin/../lib/gcc/nios2-elf/4.1.2\libgcc.a(_umoddi3.o)
 .debug_frame   0x00001e4c       0x2c d:/altera/12.1sp1b243/nios2eds/bin/gnu/h-i686-mingw32/bin/../lib/gcc/nios2-elf/4.1.2\libgcc.a(_ne_sf.o)
 .debug_frame   0x00001e78       0x2c d:/altera/12.1sp1b243/nios2eds/bin/gnu/h-i686-mingw32/bin/../lib/gcc/nios2-elf/4.1.2\libgcc.a(_gt_sf.o)
 .debug_frame   0x00001ea4       0x2c d:/altera/12.1sp1b243/nios2eds/bin/gnu/h-i686-mingw32/bin/../lib/gcc/nios2-elf/4.1.2\libgcc.a(_lt_sf.o)
 .debug_frame   0x00001ed0       0x70 d:/altera/12.1sp1b243/nios2eds/bin/gnu/h-i686-mingw32/bin/../lib/gcc/nios2-elf/4.1.2\libgcc.a(_addsub_df.o)
 .debug_frame   0x00001f40       0x3c d:/altera/12.1sp1b243/nios2eds/bin/gnu/h-i686-mingw32/bin/../lib/gcc/nios2-elf/4.1.2\libgcc.a(_mul_df.o)
 .debug_frame   0x00001f7c       0x30 d:/altera/12.1sp1b243/nios2eds/bin/gnu/h-i686-mingw32/bin/../lib/gcc/nios2-elf/4.1.2\libgcc.a(_div_df.o)
 .debug_frame   0x00001fac       0x2c d:/altera/12.1sp1b243/nios2eds/bin/gnu/h-i686-mingw32/bin/../lib/gcc/nios2-elf/4.1.2\libgcc.a(_eq_df.o)
 .debug_frame   0x00001fd8       0x2c d:/altera/12.1sp1b243/nios2eds/bin/gnu/h-i686-mingw32/bin/../lib/gcc/nios2-elf/4.1.2\libgcc.a(_ne_df.o)
 .debug_frame   0x00002004       0x2c d:/altera/12.1sp1b243/nios2eds/bin/gnu/h-i686-mingw32/bin/../lib/gcc/nios2-elf/4.1.2\libgcc.a(_gt_df.o)
 .debug_frame   0x00002030       0x2c d:/altera/12.1sp1b243/nios2eds/bin/gnu/h-i686-mingw32/bin/../lib/gcc/nios2-elf/4.1.2\libgcc.a(_ge_df.o)
 .debug_frame   0x0000205c       0x2c d:/altera/12.1sp1b243/nios2eds/bin/gnu/h-i686-mingw32/bin/../lib/gcc/nios2-elf/4.1.2\libgcc.a(_lt_df.o)
 .debug_frame   0x00002088       0x2c d:/altera/12.1sp1b243/nios2eds/bin/gnu/h-i686-mingw32/bin/../lib/gcc/nios2-elf/4.1.2\libgcc.a(_le_df.o)
 .debug_frame   0x000020b4       0x30 d:/altera/12.1sp1b243/nios2eds/bin/gnu/h-i686-mingw32/bin/../lib/gcc/nios2-elf/4.1.2\libgcc.a(_si_to_df.o)
 .debug_frame   0x000020e4       0x28 d:/altera/12.1sp1b243/nios2eds/bin/gnu/h-i686-mingw32/bin/../lib/gcc/nios2-elf/4.1.2\libgcc.a(_df_to_si.o)
 .debug_frame   0x0000210c       0x28 d:/altera/12.1sp1b243/nios2eds/bin/gnu/h-i686-mingw32/bin/../lib/gcc/nios2-elf/4.1.2\libgcc.a(_df_to_sf.o)
 .debug_frame   0x00002134       0x38 d:/altera/12.1sp1b243/nios2eds/bin/gnu/h-i686-mingw32/bin/../lib/gcc/nios2-elf/4.1.2\libgcc.a(_usi_to_df.o)
 .debug_frame   0x0000216c       0x20 d:/altera/12.1sp1b243/nios2eds/bin/gnu/h-i686-mingw32/bin/../lib/gcc/nios2-elf/4.1.2\libgcc.a(_clzsi2.o)
 .debug_frame   0x0000218c       0x20 d:/altera/12.1sp1b243/nios2eds/bin/gnu/h-i686-mingw32/bin/../lib/gcc/nios2-elf/4.1.2\libgcc.a(_unpack_sf.o)
 .debug_frame   0x000021ac       0x20 d:/altera/12.1sp1b243/nios2eds/bin/gnu/h-i686-mingw32/bin/../lib/gcc/nios2-elf/4.1.2\libgcc.a(_fpcmp_parts_sf.o)
 .debug_frame   0x000021cc       0x28 d:/altera/12.1sp1b243/nios2eds/bin/gnu/h-i686-mingw32/bin/../lib/gcc/nios2-elf/4.1.2\libgcc.a(_make_sf.o)
 .debug_frame   0x000021f4       0x2c d:/altera/12.1sp1b243/nios2eds/bin/gnu/h-i686-mingw32/bin/../lib/gcc/nios2-elf/4.1.2\libgcc.a(_pack_df.o)
 .debug_frame   0x00002220       0x20 d:/altera/12.1sp1b243/nios2eds/bin/gnu/h-i686-mingw32/bin/../lib/gcc/nios2-elf/4.1.2\libgcc.a(_unpack_df.o)
 .debug_frame   0x00002240       0x20 d:/altera/12.1sp1b243/nios2eds/bin/gnu/h-i686-mingw32/bin/../lib/gcc/nios2-elf/4.1.2\libgcc.a(_fpcmp_parts_df.o)
 .debug_frame   0x00002260       0x20 d:/altera/12.1sp1b243/nios2eds/bin/gnu/h-i686-mingw32/bin/../lib/gcc/nios2-elf/4.1.2\libgcc.a(_pack_sf.o)
 .debug_frame   0x00002280       0x48 ../../bsp/ucosii_net_rozipfs/\libucosii_bsp.a(alt_fstat.o)
 .debug_frame   0x000022c8       0x48 ../../bsp/ucosii_net_rozipfs/\libucosii_bsp.a(alt_isatty.o)
 .debug_frame   0x00002310       0x48 ../../bsp/ucosii_net_rozipfs/\libucosii_bsp.a(alt_lseek.o)
 .debug_frame   0x00002358       0x2c ../../bsp/ucosii_net_rozipfs/\libucosii_bsp.a(alt_main.o)
 .debug_frame   0x00002384       0x64 ../../bsp/ucosii_net_rozipfs/\libucosii_bsp.a(alt_open.o)
 .debug_frame   0x000023e8       0x2c ../../bsp/ucosii_net_rozipfs/\libucosii_bsp.a(alt_release_fd.o)
 .debug_frame   0x00002414       0x2c ../../bsp/ucosii_net_rozipfs/\libucosii_bsp.a(alt_sbrk.o)
 .debug_frame   0x00002440       0x48 ../../bsp/ucosii_net_rozipfs/\libucosii_bsp.a(alt_tick.o)
 .debug_frame   0x00002488       0x30 ../../bsp/ucosii_net_rozipfs/\libucosii_bsp.a(alt_usleep.o)
 .debug_frame   0x000024b8       0x4c ../../bsp/ucosii_net_rozipfs/\libucosii_bsp.a(alt_env_lock.o)
 .debug_frame   0x00002504       0x4c ../../bsp/ucosii_net_rozipfs/\libucosii_bsp.a(alt_malloc_lock.o)
 .debug_frame   0x00002550      0x3e4 ../../bsp/ucosii_net_rozipfs/\libucosii_bsp.a(os_core.o)
 .debug_frame   0x00002934       0x2c ../../bsp/ucosii_net_rozipfs/\libucosii_bsp.a(os_dbg.o)
 .debug_frame   0x00002960      0x180 ../../bsp/ucosii_net_rozipfs/\libucosii_bsp.a(os_flag.o)
 .debug_frame   0x00002ae0       0xf0 ../../bsp/ucosii_net_rozipfs/\libucosii_bsp.a(os_mbox.o)
 .debug_frame   0x00002bd0       0xd4 ../../bsp/ucosii_net_rozipfs/\libucosii_bsp.a(os_mem.o)
 .debug_frame   0x00002ca4      0x144 ../../bsp/ucosii_net_rozipfs/\libucosii_bsp.a(os_q.o)
 .debug_frame   0x00002de8       0xf0 ../../bsp/ucosii_net_rozipfs/\libucosii_bsp.a(os_sem.o)
 .debug_frame   0x00002ed8      0x160 ../../bsp/ucosii_net_rozipfs/\libucosii_bsp.a(os_task.o)
 .debug_frame   0x00003038       0xa0 ../../bsp/ucosii_net_rozipfs/\libucosii_bsp.a(os_time.o)
 .debug_frame   0x000030d8       0x64 ../../bsp/ucosii_net_rozipfs/\libucosii_bsp.a(alt_sys_init.o)
 .debug_frame   0x0000313c       0xd4 ../../bsp/ucosii_net_rozipfs/\libucosii_bsp.a(altera_avalon_cfi_flash.o)
 .debug_frame   0x00003210      0x210 ../../bsp/ucosii_net_rozipfs/\libucosii_bsp.a(altera_avalon_cfi_flash_table.o)
 .debug_frame   0x00003420       0x80 ../../bsp/ucosii_net_rozipfs/\libucosii_bsp.a(altera_avalon_jtag_uart_fd.o)
 .debug_frame   0x000034a0       0x80 ../../bsp/ucosii_net_rozipfs/\libucosii_bsp.a(altera_avalon_jtag_uart_init.o)
 .debug_frame   0x00003520       0x2c ../../bsp/ucosii_net_rozipfs/\libucosii_bsp.a(altera_avalon_jtag_uart_ioctl.o)
 .debug_frame   0x0000354c       0x2c ../../bsp/ucosii_net_rozipfs/\libucosii_bsp.a(altera_avalon_jtag_uart_read.o)
 .debug_frame   0x00003578       0x2c ../../bsp/ucosii_net_rozipfs/\libucosii_bsp.a(altera_avalon_jtag_uart_write.o)
 .debug_frame   0x000035a4      0x114 ../../bsp/ucosii_net_rozipfs/\libucosii_bsp.a(altera_avalon_lcd_16207.o)
 .debug_frame   0x000036b8       0x2c ../../bsp/ucosii_net_rozipfs/\libucosii_bsp.a(altera_avalon_lcd_16207_fd.o)
 .debug_frame   0x000036e4      0x240 ../../bsp/ucosii_net_rozipfs/\libucosii_bsp.a(altera_avalon_sgdma.o)
 .debug_frame   0x00003924       0x48 ../../bsp/ucosii_net_rozipfs/\libucosii_bsp.a(altera_avalon_timer_sc.o)
 .debug_frame   0x0000396c      0x4d8 ../../bsp/ucosii_net_rozipfs/\libucosii_bsp.a(altera_avalon_tse.o)
 .debug_frame   0x00003e44      0x1b4 ../../bsp/ucosii_net_rozipfs/\libucosii_bsp.a(altera_ro_zipfs.o)
 .debug_frame   0x00003ff8      0x114 ../../bsp/ucosii_net_rozipfs/\libucosii_bsp.a(ins_tse_mac.o)
 .debug_frame   0x0000410c       0x2c ../../bsp/ucosii_net_rozipfs/\libucosii_bsp.a(alt_iniche_close.o)
 .debug_frame   0x00004138       0x2c ../../bsp/ucosii_net_rozipfs/\libucosii_bsp.a(alt_iniche_dev.o)
 .debug_frame   0x00004164       0x2c ../../bsp/ucosii_net_rozipfs/\libucosii_bsp.a(alt_iniche_read.o)
 .debug_frame   0x00004190       0x2c ../../bsp/ucosii_net_rozipfs/\libucosii_bsp.a(alt_iniche_write.o)
 .debug_frame   0x000041bc       0xb8 ../../bsp/ucosii_net_rozipfs/\libucosii_bsp.a(ipnet.o)
 .debug_frame   0x00004274       0x80 ../../bsp/ucosii_net_rozipfs/\libucosii_bsp.a(ipstart.o)
 .debug_frame   0x000042f4       0xf4 ../../bsp/ucosii_net_rozipfs/\libucosii_bsp.a(igmp_cmn.o)
 .debug_frame   0x000043e8      0x128 ../../bsp/ucosii_net_rozipfs/\libucosii_bsp.a(bsdsock.o)
 .debug_frame   0x00004510       0x48 ../../bsp/ucosii_net_rozipfs/\libucosii_bsp.a(cksum.o)
 .debug_frame   0x00004558      0x164 ../../bsp/ucosii_net_rozipfs/\libucosii_bsp.a(in_utils.o)
 .debug_frame   0x000046bc       0x64 ../../bsp/ucosii_net_rozipfs/\libucosii_bsp.a(netmain.o)
 .debug_frame   0x00004720       0xd4 ../../bsp/ucosii_net_rozipfs/\libucosii_bsp.a(tk_crnos.o)
 .debug_frame   0x000047f4      0x268 ../../bsp/ucosii_net_rozipfs/\libucosii_bsp.a(dhcpclnt.o)
 .debug_frame   0x00004a5c       0x2c ../../bsp/ucosii_net_rozipfs/\libucosii_bsp.a(dhcputil.o)
 .debug_frame   0x00004a88       0xb8 ../../bsp/ucosii_net_rozipfs/\libucosii_bsp.a(pktalloc.o)
 .debug_frame   0x00004b40       0x64 ../../bsp/ucosii_net_rozipfs/\libucosii_bsp.a(q.o)
 .debug_frame   0x00004ba4       0x48 ../../bsp/ucosii_net_rozipfs/\libucosii_bsp.a(udp_open.o)
 .debug_frame   0x00004bec       0xf0 ../../bsp/ucosii_net_rozipfs/\libucosii_bsp.a(brdutils.o)
 .debug_frame   0x00004cdc       0x9c ../../bsp/ucosii_net_rozipfs/\libucosii_bsp.a(osportco.o)
 .debug_frame   0x00004d78      0x110 ../../bsp/ucosii_net_rozipfs/\libucosii_bsp.a(targnios.o)
 .debug_frame   0x00004e88      0x304 ../../bsp/ucosii_net_rozipfs/\libucosii_bsp.a(nptcp.o)
 .debug_frame   0x0000518c       0x68 ../../bsp/ucosii_net_rozipfs/\libucosii_bsp.a(rawsock.o)
 .debug_frame   0x000051f4      0x224 ../../bsp/ucosii_net_rozipfs/\libucosii_bsp.a(sockcall.o)
 .debug_frame   0x00005418      0x1d0 ../../bsp/ucosii_net_rozipfs/\libucosii_bsp.a(socket.o)
 .debug_frame   0x000055e8      0x294 ../../bsp/ucosii_net_rozipfs/\libucosii_bsp.a(socket2.o)
 .debug_frame   0x0000587c      0x110 ../../bsp/ucosii_net_rozipfs/\libucosii_bsp.a(soselect.o)
 .debug_frame   0x0000598c       0xd8 ../../bsp/ucosii_net_rozipfs/\libucosii_bsp.a(tcp_in.o)
 .debug_frame   0x00005a64       0x68 ../../bsp/ucosii_net_rozipfs/\libucosii_bsp.a(tcp_out.o)
 .debug_frame   0x00005acc      0x10c ../../bsp/ucosii_net_rozipfs/\libucosii_bsp.a(tcp_subr.o)
 .debug_frame   0x00005bd8       0x64 ../../bsp/ucosii_net_rozipfs/\libucosii_bsp.a(tcp_timr.o)
 .debug_frame   0x00005c3c       0x80 ../../bsp/ucosii_net_rozipfs/\libucosii_bsp.a(tcp_usr.o)
 .debug_frame   0x00005cbc       0x2c ../../bsp/ucosii_net_rozipfs/\libucosii_bsp.a(tcpport.o)
 .debug_frame   0x00005ce8       0xbc ../../bsp/ucosii_net_rozipfs/\libucosii_bsp.a(udpsock.o)
 .debug_frame   0x00005da4       0x2c ../../bsp/ucosii_net_rozipfs/\libucosii_bsp.a(alt_alarm_start.o)
 .debug_frame   0x00005dd0       0x2c ../../bsp/ucosii_net_rozipfs/\libucosii_bsp.a(alt_busy_sleep.o)
 .debug_frame   0x00005dfc       0x48 ../../bsp/ucosii_net_rozipfs/\libucosii_bsp.a(alt_close.o)
 .debug_frame   0x00005e44       0x2c ../../bsp/ucosii_net_rozipfs/\libucosii_bsp.a(alt_dcache_flush.o)
 .debug_frame   0x00005e70       0x2c ../../bsp/ucosii_net_rozipfs/\libucosii_bsp.a(alt_dev.o)
 .debug_frame   0x00005e9c       0x48 ../../bsp/ucosii_net_rozipfs/\libucosii_bsp.a(alt_dev_llist_insert.o)
 .debug_frame   0x00005ee4       0x2c ../../bsp/ucosii_net_rozipfs/\libucosii_bsp.a(alt_do_ctors.o)
 .debug_frame   0x00005f10       0x2c ../../bsp/ucosii_net_rozipfs/\libucosii_bsp.a(alt_do_dtors.o)
 .debug_frame   0x00005f3c       0x2c ../../bsp/ucosii_net_rozipfs/\libucosii_bsp.a(alt_find_dev.o)
 .debug_frame   0x00005f68       0x2c ../../bsp/ucosii_net_rozipfs/\libucosii_bsp.a(alt_find_file.o)
 .debug_frame   0x00005f94       0x48 ../../bsp/ucosii_net_rozipfs/\libucosii_bsp.a(alt_flash_dev.o)
 .debug_frame   0x00005fdc       0x2c ../../bsp/ucosii_net_rozipfs/\libucosii_bsp.a(alt_fs_reg.o)
 .debug_frame   0x00006008       0x2c ../../bsp/ucosii_net_rozipfs/\libucosii_bsp.a(alt_get_fd.o)
 .debug_frame   0x00006034       0x80 ../../bsp/ucosii_net_rozipfs/\libucosii_bsp.a(alt_iic.o)
 .debug_frame   0x000060b4       0x2c ../../bsp/ucosii_net_rozipfs/\libucosii_bsp.a(alt_iic_isr_register.o)
 .debug_frame   0x000060e0       0x48 ../../bsp/ucosii_net_rozipfs/\libucosii_bsp.a(alt_io_redirect.o)
 .debug_frame   0x00006128       0x2c ../../bsp/ucosii_net_rozipfs/\libucosii_bsp.a(alt_irq_handler.o)
 .debug_frame   0x00006154       0x48 ../../bsp/ucosii_net_rozipfs/\libucosii_bsp.a(alt_read.o)
 .debug_frame   0x0000619c       0x2c ../../bsp/ucosii_net_rozipfs/\libucosii_bsp.a(alt_remap_cached.o)
 .debug_frame   0x000061c8       0x2c ../../bsp/ucosii_net_rozipfs/\libucosii_bsp.a(alt_remap_uncached.o)
 .debug_frame   0x000061f4       0x2c ../../bsp/ucosii_net_rozipfs/\libucosii_bsp.a(alt_uncached_malloc.o)
 .debug_frame   0x00006220       0x48 ../../bsp/ucosii_net_rozipfs/\libucosii_bsp.a(alt_write.o)
 .debug_frame   0x00006268       0x2c ../../bsp/ucosii_net_rozipfs/\libucosii_bsp.a(altera_nios2_qsys_irq.o)
 .debug_frame   0x00006294      0x128 ../../bsp/ucosii_net_rozipfs/\libucosii_bsp.a(os_cpu_c.o)
 .debug_frame   0x000063bc       0x80 ../../bsp/ucosii_net_rozipfs/\libucosii_bsp.a(altera_avalon_cfi_flash_amd.o)
 .debug_frame   0x0000643c       0x80 ../../bsp/ucosii_net_rozipfs/\libucosii_bsp.a(altera_avalon_cfi_flash_intel.o)
 .debug_frame   0x000064bc       0xe0 ../../bsp/ucosii_net_rozipfs/\libucosii_bsp.a(allports.o)
 .debug_frame   0x0000659c       0x84 ../../bsp/ucosii_net_rozipfs/\libucosii_bsp.a(timeouts.o)
 .debug_frame   0x00006620       0x48 ../../bsp/ucosii_net_rozipfs/\libucosii_bsp.a(tk_misc.o)
 .debug_frame   0x00006668       0x2c ../../bsp/ucosii_net_rozipfs/\libucosii_bsp.a(alt_iniche_fcntl.o)
 .debug_frame   0x00006694      0x17c ../../bsp/ucosii_net_rozipfs/\libucosii_bsp.a(et_arp.o)
 .debug_frame   0x00006810       0x80 ../../bsp/ucosii_net_rozipfs/\libucosii_bsp.a(iface.o)
 .debug_frame   0x00006890      0x160 ../../bsp/ucosii_net_rozipfs/\libucosii_bsp.a(ip.o)
 .debug_frame   0x000069f0      0x1d4 ../../bsp/ucosii_net_rozipfs/\libucosii_bsp.a(ip_reasm.o)
 .debug_frame   0x00006bc4       0x84 ../../bsp/ucosii_net_rozipfs/\libucosii_bsp.a(ipdemux.o)
 .debug_frame   0x00006c48       0x64 ../../bsp/ucosii_net_rozipfs/\libucosii_bsp.a(ipmc.o)
 .debug_frame   0x00006cac       0x64 ../../bsp/ucosii_net_rozipfs/\libucosii_bsp.a(ipport.o)
 .debug_frame   0x00006d10       0xb8 ../../bsp/ucosii_net_rozipfs/\libucosii_bsp.a(ipraw.o)
 .debug_frame   0x00006dc8       0x64 ../../bsp/ucosii_net_rozipfs/\libucosii_bsp.a(iproute.o)
 .debug_frame   0x00006e2c      0x10c ../../bsp/ucosii_net_rozipfs/\libucosii_bsp.a(udp.o)
 .debug_frame   0x00006f38       0x2c ../../bsp/ucosii_net_rozipfs/\libucosii_bsp.a(igmp.o)
 .debug_frame   0x00006f64       0x9c ../../bsp/ucosii_net_rozipfs/\libucosii_bsp.a(igmp2.o)
 .debug_frame   0x00007000       0x84 ../../bsp/ucosii_net_rozipfs/\libucosii_bsp.a(ipopt.o)
 .debug_frame   0x00007084       0x4c ../../bsp/ucosii_net_rozipfs/\libucosii_bsp.a(u_mctest.o)
 .debug_frame   0x000070d0       0x48 ../../bsp/ucosii_net_rozipfs/\libucosii_bsp.a(dhcsetup.o)
 .debug_frame   0x00007118      0x10c ../../bsp/ucosii_net_rozipfs/\libucosii_bsp.a(memdev.o)
 .debug_frame   0x00007224      0x10c ../../bsp/ucosii_net_rozipfs/\libucosii_bsp.a(parseip.o)
 .debug_frame   0x00007330       0x2c ../../bsp/ucosii_net_rozipfs/\libucosii_bsp.a(tcpcksum.o)
 .debug_frame   0x0000735c       0xf0 ../../bsp/ucosii_net_rozipfs/\libucosii_bsp.a(in_pcb.o)
 .debug_frame   0x0000744c      0x320 ../../bsp/ucosii_net_rozipfs/\libucosii_bsp.a(vfsfiles.o)
 .debug_frame   0x0000776c       0x2c ../../bsp/ucosii_net_rozipfs/\libucosii_bsp.a(vfsport.o)
 .debug_frame   0x00007798       0x48 ../../bsp/ucosii_net_rozipfs/\libucosii_bsp.a(alt_fcntl.o)
 .debug_frame   0x000077e0       0xa0 ../../bsp/ucosii_net_rozipfs/\libucosii_bsp.a(icmp.o)
 .debug_frame   0x00007880       0x20 d:/altera/12.1sp1b243/nios2eds/bin/gnu/h-i686-mingw32/bin/../lib/gcc/nios2-elf/4.1.2/../../../../nios2-elf/lib\libc.a(lib_a-atexit.o)
 .debug_frame   0x000078a0       0x28 d:/altera/12.1sp1b243/nios2eds/bin/gnu/h-i686-mingw32/bin/../lib/gcc/nios2-elf/4.1.2/../../../../nios2-elf/lib\libc.a(lib_a-exit.o)
 .debug_frame   0x000078c8       0x30 d:/altera/12.1sp1b243/nios2eds/bin/gnu/h-i686-mingw32/bin/../lib/gcc/nios2-elf/4.1.2/../../../../nios2-elf/lib\libc.a(lib_a-vprintf.o)
 .debug_frame   0x000078f8       0x34 d:/altera/12.1sp1b243/nios2eds/bin/gnu/h-i686-mingw32/bin/../lib/gcc/nios2-elf/4.1.2/../../../../nios2-elf/lib\libc.a(lib_a-__atexit.o)
 .debug_frame   0x0000792c       0x4c d:/altera/12.1sp1b243/nios2eds/bin/gnu/h-i686-mingw32/bin/../lib/gcc/nios2-elf/4.1.2/../../../../nios2-elf/lib\libc.a(lib_a-__call_atexit.o)
 .debug_frame   0x00007978       0x48 ../../bsp/ucosii_net_rozipfs/\libucosii_bsp.a(alt_exit.o)

.debug_str      0x00000000     0x4542
 *(.debug_str)
 .debug_str     0x00000000       0xcf obj/default/src/flash_intel_p30/flash_intel_p30.o
 .debug_str     0x000000cf       0x42 obj/default/src/main.o
 .debug_str     0x00000111       0x3f obj/default/src/os_utils.o
 .debug_str     0x00000150       0x12 obj/default/src/reconfig_utils.o
 .debug_str     0x00000162       0x12 obj/default/src/srec/srec.o
 .debug_str     0x00000174      0x121 obj/default/src/webserver.o
 .debug_str     0x00000295      0x167 d:/altera/12.1sp1b243/nios2eds/bin/gnu/h-i686-mingw32/bin/../lib/gcc/nios2-elf/4.1.2\libgcc.a(lib2-divmod.o)
                                0x1b4 (size before relaxing)
 .debug_str     0x000003fc      0x433 d:/altera/12.1sp1b243/nios2eds/bin/gnu/h-i686-mingw32/bin/../lib/gcc/nios2-elf/4.1.2/../../../../nios2-elf/lib\libc.a(lib_a-atoi.o)
                                0x4fc (size before relaxing)
 .debug_str     0x0000082f       0x42 d:/altera/12.1sp1b243/nios2eds/bin/gnu/h-i686-mingw32/bin/../lib/gcc/nios2-elf/4.1.2/../../../../nios2-elf/lib\libc.a(lib_a-calloc.o)
                                0x510 (size before relaxing)
 .debug_str     0x00000871       0x80 d:/altera/12.1sp1b243/nios2eds/bin/gnu/h-i686-mingw32/bin/../lib/gcc/nios2-elf/4.1.2/../../../../nios2-elf/lib\libc.a(lib_a-callocr.o)
                                0x542 (size before relaxing)
 .debug_str     0x000008f1       0xe2 d:/altera/12.1sp1b243/nios2eds/bin/gnu/h-i686-mingw32/bin/../lib/gcc/nios2-elf/4.1.2/../../../../nios2-elf/lib\libc.a(lib_a-ctype_.o)
                                0x105 (size before relaxing)
 .debug_str     0x000009d3       0xdb d:/altera/12.1sp1b243/nios2eds/bin/gnu/h-i686-mingw32/bin/../lib/gcc/nios2-elf/4.1.2/../../../../nios2-elf/lib\libc.a(lib_a-fclose.o)
                                0x516 (size before relaxing)
 .debug_str     0x00000aae       0x65 d:/altera/12.1sp1b243/nios2eds/bin/gnu/h-i686-mingw32/bin/../lib/gcc/nios2-elf/4.1.2/../../../../nios2-elf/lib\libc.a(lib_a-fflush.o)
                                0x532 (size before relaxing)
 .debug_str     0x00000b13       0x4e d:/altera/12.1sp1b243/nios2eds/bin/gnu/h-i686-mingw32/bin/../lib/gcc/nios2-elf/4.1.2/../../../../nios2-elf/lib\libc.a(lib_a-fgetpos.o)
                                0x514 (size before relaxing)
 .debug_str     0x00000b61      0x102 d:/altera/12.1sp1b243/nios2eds/bin/gnu/h-i686-mingw32/bin/../lib/gcc/nios2-elf/4.1.2/../../../../nios2-elf/lib\libc.a(lib_a-findfp.o)
                                0x5f4 (size before relaxing)
 .debug_str     0x00000c63       0x4f d:/altera/12.1sp1b243/nios2eds/bin/gnu/h-i686-mingw32/bin/../lib/gcc/nios2-elf/4.1.2/../../../../nios2-elf/lib\libc.a(lib_a-fopen.o)
                                0x525 (size before relaxing)
 .debug_str     0x00000cb2       0x6a d:/altera/12.1sp1b243/nios2eds/bin/gnu/h-i686-mingw32/bin/../lib/gcc/nios2-elf/4.1.2/../../../../nios2-elf/lib\libc.a(lib_a-fread.o)
                                0x54e (size before relaxing)
 .debug_str     0x00000d1c       0xf4 d:/altera/12.1sp1b243/nios2eds/bin/gnu/h-i686-mingw32/bin/../lib/gcc/nios2-elf/4.1.2/../../../../nios2-elf/lib\libc.a(lib_a-freer.o)
                                0x643 (size before relaxing)
 .debug_str     0x00000e10      0x13a d:/altera/12.1sp1b243/nios2eds/bin/gnu/h-i686-mingw32/bin/../lib/gcc/nios2-elf/4.1.2/../../../../nios2-elf/lib\libc.a(lib_a-fseek.o)
                                0x632 (size before relaxing)
 .debug_str     0x00000f4a       0xd4 d:/altera/12.1sp1b243/nios2eds/bin/gnu/h-i686-mingw32/bin/../lib/gcc/nios2-elf/4.1.2/../../../../nios2-elf/lib\libc.a(lib_a-fstatr.o)
                                0x5f1 (size before relaxing)
 .debug_str     0x0000101e       0x48 d:/altera/12.1sp1b243/nios2eds/bin/gnu/h-i686-mingw32/bin/../lib/gcc/nios2-elf/4.1.2/../../../../nios2-elf/lib\libc.a(lib_a-ftell.o)
                                0x50e (size before relaxing)
 .debug_str     0x00001066       0x5e d:/altera/12.1sp1b243/nios2eds/bin/gnu/h-i686-mingw32/bin/../lib/gcc/nios2-elf/4.1.2/../../../../nios2-elf/lib\libc.a(lib_a-fwalk.o)
                                0x535 (size before relaxing)
 .debug_str     0x000010c4       0x87 d:/altera/12.1sp1b243/nios2eds/bin/gnu/h-i686-mingw32/bin/../lib/gcc/nios2-elf/4.1.2/../../../../nios2-elf/lib\libc.a(lib_a-fwrite.o)
                                0x55f (size before relaxing)
 .debug_str     0x0000114b       0x40 d:/altera/12.1sp1b243/nios2eds/bin/gnu/h-i686-mingw32/bin/../lib/gcc/nios2-elf/4.1.2/../../../../nios2-elf/lib\libc.a(lib_a-getc.o)
                                0x512 (size before relaxing)
 .debug_str     0x0000118b       0x46 d:/altera/12.1sp1b243/nios2eds/bin/gnu/h-i686-mingw32/bin/../lib/gcc/nios2-elf/4.1.2/../../../../nios2-elf/lib\libc.a(lib_a-impure.o)
                                0x51a (size before relaxing)
 .debug_str     0x000011d1       0x3d d:/altera/12.1sp1b243/nios2eds/bin/gnu/h-i686-mingw32/bin/../lib/gcc/nios2-elf/4.1.2/../../../../nios2-elf/lib\libc.a(lib_a-int_errno.o)
                                0x163 (size before relaxing)
 .debug_str     0x0000120e       0x53 d:/altera/12.1sp1b243/nios2eds/bin/gnu/h-i686-mingw32/bin/../lib/gcc/nios2-elf/4.1.2/../../../../nios2-elf/lib\libc.a(lib_a-makebuf.o)
                                0x606 (size before relaxing)
 .debug_str     0x00001261       0x47 d:/altera/12.1sp1b243/nios2eds/bin/gnu/h-i686-mingw32/bin/../lib/gcc/nios2-elf/4.1.2/../../../../nios2-elf/lib\libc.a(lib_a-malloc.o)
                                0x51c (size before relaxing)
 .debug_str     0x000012a8       0xe9 d:/altera/12.1sp1b243/nios2eds/bin/gnu/h-i686-mingw32/bin/../lib/gcc/nios2-elf/4.1.2/../../../../nios2-elf/lib\libc.a(lib_a-mallocr.o)
                                0x6f1 (size before relaxing)
 .debug_str     0x00001391       0xef d:/altera/12.1sp1b243/nios2eds/bin/gnu/h-i686-mingw32/bin/../lib/gcc/nios2-elf/4.1.2/../../../../nios2-elf/lib\libc.a(lib_a-memchr.o)
                                0x18b (size before relaxing)
 .debug_str     0x00001480       0x42 d:/altera/12.1sp1b243/nios2eds/bin/gnu/h-i686-mingw32/bin/../lib/gcc/nios2-elf/4.1.2/../../../../nios2-elf/lib\libc.a(lib_a-memcmp.o)
                                0x16a (size before relaxing)
 .debug_str     0x000014c2       0x69 d:/altera/12.1sp1b243/nios2eds/bin/gnu/h-i686-mingw32/bin/../lib/gcc/nios2-elf/4.1.2/../../../../nios2-elf/lib\libc.a(lib_a-memcpy.o)
                                0x128 (size before relaxing)
 .debug_str     0x0000152b       0x4d d:/altera/12.1sp1b243/nios2eds/bin/gnu/h-i686-mingw32/bin/../lib/gcc/nios2-elf/4.1.2/../../../../nios2-elf/lib\libc.a(lib_a-memmove.o)
                                0x19d (size before relaxing)
 .debug_str     0x00001578       0x4f d:/altera/12.1sp1b243/nios2eds/bin/gnu/h-i686-mingw32/bin/../lib/gcc/nios2-elf/4.1.2/../../../../nios2-elf/lib\libc.a(lib_a-memset.o)
                                0x17e (size before relaxing)
 .debug_str     0x000015c7       0x41 d:/altera/12.1sp1b243/nios2eds/bin/gnu/h-i686-mingw32/bin/../lib/gcc/nios2-elf/4.1.2/../../../../nios2-elf/lib\libc.a(lib_a-openr.o)
                                0x50c (size before relaxing)
 .debug_str     0x00001608       0x4b d:/altera/12.1sp1b243/nios2eds/bin/gnu/h-i686-mingw32/bin/../lib/gcc/nios2-elf/4.1.2/../../../../nios2-elf/lib\libc.a(lib_a-perror.o)
                                0x512 (size before relaxing)
 .debug_str     0x00001653       0x40 d:/altera/12.1sp1b243/nios2eds/bin/gnu/h-i686-mingw32/bin/../lib/gcc/nios2-elf/4.1.2/../../../../nios2-elf/lib\libc.a(lib_a-putc.o)
                                0x512 (size before relaxing)
 .debug_str     0x00001693       0x40 d:/altera/12.1sp1b243/nios2eds/bin/gnu/h-i686-mingw32/bin/../lib/gcc/nios2-elf/4.1.2/../../../../nios2-elf/lib\libc.a(lib_a-puts.o)
                                0x549 (size before relaxing)
 .debug_str     0x000016d3       0x4d d:/altera/12.1sp1b243/nios2eds/bin/gnu/h-i686-mingw32/bin/../lib/gcc/nios2-elf/4.1.2/../../../../nios2-elf/lib\libc.a(lib_a-refill.o)
                                0x51a (size before relaxing)
 .debug_str     0x00001720       0x4a d:/altera/12.1sp1b243/nios2eds/bin/gnu/h-i686-mingw32/bin/../lib/gcc/nios2-elf/4.1.2/../../../../nios2-elf/lib\libc.a(lib_a-rget.o)
                                0x510 (size before relaxing)
 .debug_str     0x0000176a       0x50 d:/altera/12.1sp1b243/nios2eds/bin/gnu/h-i686-mingw32/bin/../lib/gcc/nios2-elf/4.1.2/../../../../nios2-elf/lib\libc.a(lib_a-sbrkr.o)
                                0x50b (size before relaxing)
 .debug_str     0x000017ba       0x55 d:/altera/12.1sp1b243/nios2eds/bin/gnu/h-i686-mingw32/bin/../lib/gcc/nios2-elf/4.1.2/../../../../nios2-elf/lib\libc.a(lib_a-sprintf.o)
                                0x52b (size before relaxing)
 .debug_str     0x0000180f       0x53 d:/altera/12.1sp1b243/nios2eds/bin/gnu/h-i686-mingw32/bin/../lib/gcc/nios2-elf/4.1.2/../../../../nios2-elf/lib\libc.a(lib_a-sscanf.o)
                                0x537 (size before relaxing)
 .debug_str     0x00001862       0x5b d:/altera/12.1sp1b243/nios2eds/bin/gnu/h-i686-mingw32/bin/../lib/gcc/nios2-elf/4.1.2/../../../../nios2-elf/lib\libc.a(lib_a-stdio.o)
                                0x531 (size before relaxing)
 .debug_str     0x000018bd       0x4a d:/altera/12.1sp1b243/nios2eds/bin/gnu/h-i686-mingw32/bin/../lib/gcc/nios2-elf/4.1.2/../../../../nios2-elf/lib\libc.a(lib_a-strcasecmp.o)
                                0x177 (size before relaxing)
 .debug_str     0x00001907       0x42 d:/altera/12.1sp1b243/nios2eds/bin/gnu/h-i686-mingw32/bin/../lib/gcc/nios2-elf/4.1.2/../../../../nios2-elf/lib\libc.a(lib_a-strchr.o)
                                0x175 (size before relaxing)
 .debug_str     0x00001949       0x42 d:/altera/12.1sp1b243/nios2eds/bin/gnu/h-i686-mingw32/bin/../lib/gcc/nios2-elf/4.1.2/../../../../nios2-elf/lib\libc.a(lib_a-strcmp.o)
                                0x163 (size before relaxing)
 .debug_str     0x0000198b       0x42 d:/altera/12.1sp1b243/nios2eds/bin/gnu/h-i686-mingw32/bin/../lib/gcc/nios2-elf/4.1.2/../../../../nios2-elf/lib\libc.a(lib_a-strcpy.o)
                                0x185 (size before relaxing)
 .debug_str     0x000019cd       0x44 d:/altera/12.1sp1b243/nios2eds/bin/gnu/h-i686-mingw32/bin/../lib/gcc/nios2-elf/4.1.2/../../../../nios2-elf/lib\libc.a(lib_a-strerror.o)
                                0x174 (size before relaxing)
 .debug_str     0x00001a11       0x42 d:/altera/12.1sp1b243/nios2eds/bin/gnu/h-i686-mingw32/bin/../lib/gcc/nios2-elf/4.1.2/../../../../nios2-elf/lib\libc.a(lib_a-strlen.o)
                                0x17d (size before relaxing)
 .debug_str     0x00001a53       0x44 d:/altera/12.1sp1b243/nios2eds/bin/gnu/h-i686-mingw32/bin/../lib/gcc/nios2-elf/4.1.2/../../../../nios2-elf/lib\libc.a(lib_a-strncmp.o)
                                0x16c (size before relaxing)
 .debug_str     0x00001a97       0x44 d:/altera/12.1sp1b243/nios2eds/bin/gnu/h-i686-mingw32/bin/../lib/gcc/nios2-elf/4.1.2/../../../../nios2-elf/lib\libc.a(lib_a-strncpy.o)
                                0x194 (size before relaxing)
 .debug_str     0x00001adb       0xe8 d:/altera/12.1sp1b243/nios2eds/bin/gnu/h-i686-mingw32/bin/../lib/gcc/nios2-elf/4.1.2/../../../../nios2-elf/lib\libc.a(lib_a-strstr.o)
                                0x224 (size before relaxing)
 .debug_str     0x00001bc3       0x42 d:/altera/12.1sp1b243/nios2eds/bin/gnu/h-i686-mingw32/bin/../lib/gcc/nios2-elf/4.1.2/../../../../nios2-elf/lib\libc.a(lib_a-strtok.o)
                                0x50a (size before relaxing)
 .debug_str     0x00001c05       0x6c d:/altera/12.1sp1b243/nios2eds/bin/gnu/h-i686-mingw32/bin/../lib/gcc/nios2-elf/4.1.2/../../../../nios2-elf/lib\libc.a(lib_a-strtok_r.o)
                                0x19c (size before relaxing)
 .debug_str     0x00001c71       0x61 d:/altera/12.1sp1b243/nios2eds/bin/gnu/h-i686-mingw32/bin/../lib/gcc/nios2-elf/4.1.2/../../../../nios2-elf/lib\libc.a(lib_a-strtol.o)
                                0x53e (size before relaxing)
 .debug_str     0x00001cd2       0x4c d:/altera/12.1sp1b243/nios2eds/bin/gnu/h-i686-mingw32/bin/../lib/gcc/nios2-elf/4.1.2/../../../../nios2-elf/lib\libc.a(lib_a-u_strerr.o)
                                 0xf0 (size before relaxing)
 .debug_str     0x00001d1e      0x167 d:/altera/12.1sp1b243/nios2eds/bin/gnu/h-i686-mingw32/bin/../lib/gcc/nios2-elf/4.1.2/../../../../nios2-elf/lib\libc.a(lib_a-vfprintf.o)
                                0x6f8 (size before relaxing)
 .debug_str     0x00001e85      0x13d d:/altera/12.1sp1b243/nios2eds/bin/gnu/h-i686-mingw32/bin/../lib/gcc/nios2-elf/4.1.2/../../../../nios2-elf/lib\libc.a(lib_a-vfscanf.o)
                                0x691 (size before relaxing)
 .debug_str     0x00001fc2       0x51 d:/altera/12.1sp1b243/nios2eds/bin/gnu/h-i686-mingw32/bin/../lib/gcc/nios2-elf/4.1.2/../../../../nios2-elf/lib\libc.a(lib_a-vsprintf.o)
                                0x52e (size before relaxing)
 .debug_str     0x00002013       0x4a d:/altera/12.1sp1b243/nios2eds/bin/gnu/h-i686-mingw32/bin/../lib/gcc/nios2-elf/4.1.2/../../../../nios2-elf/lib\libc.a(lib_a-wbuf.o)
                                0x510 (size before relaxing)
 .debug_str     0x0000205d       0x4c d:/altera/12.1sp1b243/nios2eds/bin/gnu/h-i686-mingw32/bin/../lib/gcc/nios2-elf/4.1.2/../../../../nios2-elf/lib\libc.a(lib_a-writer.o)
                                0x50e (size before relaxing)
 .debug_str     0x000020a9       0x46 d:/altera/12.1sp1b243/nios2eds/bin/gnu/h-i686-mingw32/bin/../lib/gcc/nios2-elf/4.1.2/../../../../nios2-elf/lib\libc.a(lib_a-wsetup.o)
                                0x50c (size before relaxing)
 .debug_str     0x000020ef       0x43 d:/altera/12.1sp1b243/nios2eds/bin/gnu/h-i686-mingw32/bin/../lib/gcc/nios2-elf/4.1.2/../../../../nios2-elf/lib\libc.a(lib_a-closer.o)
                                0x4fe (size before relaxing)
 .debug_str     0x00002132       0xfc d:/altera/12.1sp1b243/nios2eds/bin/gnu/h-i686-mingw32/bin/../lib/gcc/nios2-elf/4.1.2/../../../../nios2-elf/lib\libc.a(lib_a-dtoa.o)
                                0x601 (size before relaxing)
 .debug_str     0x0000222e       0x47 d:/altera/12.1sp1b243/nios2eds/bin/gnu/h-i686-mingw32/bin/../lib/gcc/nios2-elf/4.1.2/../../../../nios2-elf/lib\libc.a(lib_a-flags.o)
                                0x501 (size before relaxing)
 .debug_str     0x00002275       0x48 d:/altera/12.1sp1b243/nios2eds/bin/gnu/h-i686-mingw32/bin/../lib/gcc/nios2-elf/4.1.2/../../../../nios2-elf/lib\libc.a(lib_a-fputc.o)
                                0x51a (size before relaxing)
 .debug_str     0x000022bd       0x48 d:/altera/12.1sp1b243/nios2eds/bin/gnu/h-i686-mingw32/bin/../lib/gcc/nios2-elf/4.1.2/../../../../nios2-elf/lib\libc.a(lib_a-fputs.o)
                                0x558 (size before relaxing)
 .debug_str     0x00002305       0x66 d:/altera/12.1sp1b243/nios2eds/bin/gnu/h-i686-mingw32/bin/../lib/gcc/nios2-elf/4.1.2/../../../../nios2-elf/lib\libc.a(lib_a-fvwrite.o)
                                0x563 (size before relaxing)
 .debug_str     0x0000236b       0x45 d:/altera/12.1sp1b243/nios2eds/bin/gnu/h-i686-mingw32/bin/../lib/gcc/nios2-elf/4.1.2/../../../../nios2-elf/lib\libc.a(lib_a-isattyr.o)
                                0x500 (size before relaxing)
 .debug_str     0x000023b0       0x58 d:/altera/12.1sp1b243/nios2eds/bin/gnu/h-i686-mingw32/bin/../lib/gcc/nios2-elf/4.1.2/../../../../nios2-elf/lib\libc.a(lib_a-iswspace.o)
                                0x18b (size before relaxing)
 .debug_str     0x00002408      0x20d d:/altera/12.1sp1b243/nios2eds/bin/gnu/h-i686-mingw32/bin/../lib/gcc/nios2-elf/4.1.2/../../../../nios2-elf/lib\libc.a(lib_a-locale.o)
                                0x6a9 (size before relaxing)
 .debug_str     0x00002615       0x43 d:/altera/12.1sp1b243/nios2eds/bin/gnu/h-i686-mingw32/bin/../lib/gcc/nios2-elf/4.1.2/../../../../nios2-elf/lib\libc.a(lib_a-lseekr.o)
                                0x50c (size before relaxing)
 .debug_str     0x00002658       0x56 d:/altera/12.1sp1b243/nios2eds/bin/gnu/h-i686-mingw32/bin/../lib/gcc/nios2-elf/4.1.2/../../../../nios2-elf/lib\libc.a(lib_a-mbrtowc.o)
                                0x531 (size before relaxing)
 .debug_str     0x000026ae       0x4d d:/altera/12.1sp1b243/nios2eds/bin/gnu/h-i686-mingw32/bin/../lib/gcc/nios2-elf/4.1.2/../../../../nios2-elf/lib\libc.a(lib_a-mbtowc_r.o)
                                0x522 (size before relaxing)
 .debug_str     0x000026fb       0xf8 d:/altera/12.1sp1b243/nios2eds/bin/gnu/h-i686-mingw32/bin/../lib/gcc/nios2-elf/4.1.2/../../../../nios2-elf/lib\libc.a(lib_a-mprec.o)
                                0x60e (size before relaxing)
 .debug_str     0x000027f3       0x41 d:/altera/12.1sp1b243/nios2eds/bin/gnu/h-i686-mingw32/bin/../lib/gcc/nios2-elf/4.1.2/../../../../nios2-elf/lib\libc.a(lib_a-readr.o)
                                0x50c (size before relaxing)
 .debug_str     0x00002834       0x59 d:/altera/12.1sp1b243/nios2eds/bin/gnu/h-i686-mingw32/bin/../lib/gcc/nios2-elf/4.1.2/../../../../nios2-elf/lib\libc.a(lib_a-reallocr.o)
                                0x5c3 (size before relaxing)
 .debug_str     0x0000288d       0xdc d:/altera/12.1sp1b243/nios2eds/bin/gnu/h-i686-mingw32/bin/../lib/gcc/nios2-elf/4.1.2/../../../../nios2-elf/lib\libc.a(lib_a-s_isinfd.o)
                                0x18a (size before relaxing)
 .debug_str     0x00002969       0x46 d:/altera/12.1sp1b243/nios2eds/bin/gnu/h-i686-mingw32/bin/../lib/gcc/nios2-elf/4.1.2/../../../../nios2-elf/lib\libc.a(lib_a-s_isnand.o)
                                0x18a (size before relaxing)
 .debug_str     0x000029af       0x4f d:/altera/12.1sp1b243/nios2eds/bin/gnu/h-i686-mingw32/bin/../lib/gcc/nios2-elf/4.1.2/../../../../nios2-elf/lib\libc.a(lib_a-sccl.o)
                                0x16f (size before relaxing)
 .debug_str     0x000029fe       0x40 d:/altera/12.1sp1b243/nios2eds/bin/gnu/h-i686-mingw32/bin/../lib/gcc/nios2-elf/4.1.2/../../../../nios2-elf/lib\libc.a(lib_a-sf_nan.o)
                                0x181 (size before relaxing)
 .debug_str     0x00002a3e       0xef d:/altera/12.1sp1b243/nios2eds/bin/gnu/h-i686-mingw32/bin/../lib/gcc/nios2-elf/4.1.2/../../../../nios2-elf/lib\libc.a(lib_a-strtod.o)
                                0x621 (size before relaxing)
 .debug_str     0x00002b2d       0x49 d:/altera/12.1sp1b243/nios2eds/bin/gnu/h-i686-mingw32/bin/../lib/gcc/nios2-elf/4.1.2/../../../../nios2-elf/lib\libc.a(lib_a-strtoll_r.o)
                                0x52f (size before relaxing)
 .debug_str     0x00002b76       0x4f d:/altera/12.1sp1b243/nios2eds/bin/gnu/h-i686-mingw32/bin/../lib/gcc/nios2-elf/4.1.2/../../../../nios2-elf/lib\libc.a(lib_a-strtoul.o)
                                0x541 (size before relaxing)
 .debug_str     0x00002bc5       0x4b d:/altera/12.1sp1b243/nios2eds/bin/gnu/h-i686-mingw32/bin/../lib/gcc/nios2-elf/4.1.2/../../../../nios2-elf/lib\libc.a(lib_a-strtoull_r.o)
                                0x531 (size before relaxing)
 .debug_str     0x00002c10       0x55 d:/altera/12.1sp1b243/nios2eds/bin/gnu/h-i686-mingw32/bin/../lib/gcc/nios2-elf/4.1.2/../../../../nios2-elf/lib\libc.a(lib_a-ungetc.o)
                                0x520 (size before relaxing)
 .debug_str     0x00002c65       0x9e d:/altera/12.1sp1b243/nios2eds/bin/gnu/h-i686-mingw32/bin/../lib/gcc/nios2-elf/4.1.2/../../../../nios2-elf/lib\libc.a(lib_a-gdtoa-gethex.o)
                                0x5bc (size before relaxing)
 .debug_str     0x00002d03       0x52 d:/altera/12.1sp1b243/nios2eds/bin/gnu/h-i686-mingw32/bin/../lib/gcc/nios2-elf/4.1.2/../../../../nios2-elf/lib\libc.a(lib_a-gdtoa-hexnan.o)
                                0x1cf (size before relaxing)
 .debug_str     0x00002d55       0x67 d:/altera/12.1sp1b243/nios2eds/bin/gnu/h-i686-mingw32/bin/../lib/gcc/nios2-elf/4.1.2\libgcc.a(_muldi3.o)
                                0x1ac (size before relaxing)
 .debug_str     0x00002dbc       0x14 d:/altera/12.1sp1b243/nios2eds/bin/gnu/h-i686-mingw32/bin/../lib/gcc/nios2-elf/4.1.2\libgcc.a(_fixunsdfsi.o)
                                0x16b (size before relaxing)
 .debug_str     0x00002dd0       0x54 d:/altera/12.1sp1b243/nios2eds/bin/gnu/h-i686-mingw32/bin/../lib/gcc/nios2-elf/4.1.2\libgcc.a(_udivdi3.o)
                                0x1f7 (size before relaxing)
 .debug_str     0x00002e24        0xa d:/altera/12.1sp1b243/nios2eds/bin/gnu/h-i686-mingw32/bin/../lib/gcc/nios2-elf/4.1.2\libgcc.a(_umoddi3.o)
                                0x1f7 (size before relaxing)
 .debug_str     0x00002e2e       0xcd d:/altera/12.1sp1b243/nios2eds/bin/gnu/h-i686-mingw32/bin/../lib/gcc/nios2-elf/4.1.2\libgcc.a(_ne_sf.o)
                                0x1f8 (size before relaxing)
 .debug_str     0x00002efb        0x8 d:/altera/12.1sp1b243/nios2eds/bin/gnu/h-i686-mingw32/bin/../lib/gcc/nios2-elf/4.1.2\libgcc.a(_gt_sf.o)
                                0x1f8 (size before relaxing)
 .debug_str     0x00002f03        0x8 d:/altera/12.1sp1b243/nios2eds/bin/gnu/h-i686-mingw32/bin/../lib/gcc/nios2-elf/4.1.2\libgcc.a(_lt_sf.o)
                                0x1f8 (size before relaxing)
 .debug_str     0x00002f0b       0x8f d:/altera/12.1sp1b243/nios2eds/bin/gnu/h-i686-mingw32/bin/../lib/gcc/nios2-elf/4.1.2\libgcc.a(_addsub_df.o)
                                0x26f (size before relaxing)
 .debug_str     0x00002f9a       0x40 d:/altera/12.1sp1b243/nios2eds/bin/gnu/h-i686-mingw32/bin/../lib/gcc/nios2-elf/4.1.2\libgcc.a(_mul_df.o)
                                0x241 (size before relaxing)
 .debug_str     0x00002fda       0x35 d:/altera/12.1sp1b243/nios2eds/bin/gnu/h-i686-mingw32/bin/../lib/gcc/nios2-elf/4.1.2\libgcc.a(_div_df.o)
                                0x231 (size before relaxing)
 .debug_str     0x0000300f        0x8 d:/altera/12.1sp1b243/nios2eds/bin/gnu/h-i686-mingw32/bin/../lib/gcc/nios2-elf/4.1.2\libgcc.a(_eq_df.o)
                                0x1fe (size before relaxing)
 .debug_str     0x00003017        0x8 d:/altera/12.1sp1b243/nios2eds/bin/gnu/h-i686-mingw32/bin/../lib/gcc/nios2-elf/4.1.2\libgcc.a(_ne_df.o)
                                0x1fe (size before relaxing)
 .debug_str     0x0000301f        0x8 d:/altera/12.1sp1b243/nios2eds/bin/gnu/h-i686-mingw32/bin/../lib/gcc/nios2-elf/4.1.2\libgcc.a(_gt_df.o)
                                0x1fe (size before relaxing)
 .debug_str     0x00003027        0x8 d:/altera/12.1sp1b243/nios2eds/bin/gnu/h-i686-mingw32/bin/../lib/gcc/nios2-elf/4.1.2\libgcc.a(_ge_df.o)
                                0x1fe (size before relaxing)
 .debug_str     0x0000302f        0x8 d:/altera/12.1sp1b243/nios2eds/bin/gnu/h-i686-mingw32/bin/../lib/gcc/nios2-elf/4.1.2\libgcc.a(_lt_df.o)
                                0x1fe (size before relaxing)
 .debug_str     0x00003037        0x8 d:/altera/12.1sp1b243/nios2eds/bin/gnu/h-i686-mingw32/bin/../lib/gcc/nios2-elf/4.1.2\libgcc.a(_le_df.o)
                                0x1fe (size before relaxing)
 .debug_str     0x0000303f       0x18 d:/altera/12.1sp1b243/nios2eds/bin/gnu/h-i686-mingw32/bin/../lib/gcc/nios2-elf/4.1.2\libgcc.a(_si_to_df.o)
                                0x1de (size before relaxing)
 .debug_str     0x00003057        0xa d:/altera/12.1sp1b243/nios2eds/bin/gnu/h-i686-mingw32/bin/../lib/gcc/nios2-elf/4.1.2\libgcc.a(_df_to_si.o)
                                0x207 (size before relaxing)
 .debug_str     0x00003061       0x14 d:/altera/12.1sp1b243/nios2eds/bin/gnu/h-i686-mingw32/bin/../lib/gcc/nios2-elf/4.1.2\libgcc.a(_df_to_sf.o)
                                0x1fe (size before relaxing)
 .debug_str     0x00000000      0x1a3 d:/altera/12.1sp1b243/nios2eds/bin/gnu/h-i686-mingw32/bin/../lib/gcc/nios2-elf/4.1.2\libgcc.a(_thenan_df.o)
 .debug_str     0x00003075       0x14 d:/altera/12.1sp1b243/nios2eds/bin/gnu/h-i686-mingw32/bin/../lib/gcc/nios2-elf/4.1.2\libgcc.a(_usi_to_df.o)
                                0x1da (size before relaxing)
 .debug_str     0x00000000      0x161 d:/altera/12.1sp1b243/nios2eds/bin/gnu/h-i686-mingw32/bin/../lib/gcc/nios2-elf/4.1.2\libgcc.a(_clz.o)
 .debug_str     0x00003089        0x9 d:/altera/12.1sp1b243/nios2eds/bin/gnu/h-i686-mingw32/bin/../lib/gcc/nios2-elf/4.1.2\libgcc.a(_clzsi2.o)
                                0x17e (size before relaxing)
 .debug_str     0x00003092        0xb d:/altera/12.1sp1b243/nios2eds/bin/gnu/h-i686-mingw32/bin/../lib/gcc/nios2-elf/4.1.2\libgcc.a(_unpack_sf.o)
                                0x1e2 (size before relaxing)
 .debug_str     0x0000309d       0x10 d:/altera/12.1sp1b243/nios2eds/bin/gnu/h-i686-mingw32/bin/../lib/gcc/nios2-elf/4.1.2\libgcc.a(_fpcmp_parts_sf.o)
                                0x1c6 (size before relaxing)
 .debug_str     0x000030ad        0xa d:/altera/12.1sp1b243/nios2eds/bin/gnu/h-i686-mingw32/bin/../lib/gcc/nios2-elf/4.1.2\libgcc.a(_make_sf.o)
                                0x1b9 (size before relaxing)
 .debug_str     0x000030b7       0x10 d:/altera/12.1sp1b243/nios2eds/bin/gnu/h-i686-mingw32/bin/../lib/gcc/nios2-elf/4.1.2\libgcc.a(_pack_df.o)
                                0x206 (size before relaxing)
 .debug_str     0x000030c7        0xb d:/altera/12.1sp1b243/nios2eds/bin/gnu/h-i686-mingw32/bin/../lib/gcc/nios2-elf/4.1.2\libgcc.a(_unpack_df.o)
                                0x1e8 (size before relaxing)
 .debug_str     0x000030d2       0x10 d:/altera/12.1sp1b243/nios2eds/bin/gnu/h-i686-mingw32/bin/../lib/gcc/nios2-elf/4.1.2\libgcc.a(_fpcmp_parts_df.o)
                                0x1c6 (size before relaxing)
 .debug_str     0x000030e2        0x9 d:/altera/12.1sp1b243/nios2eds/bin/gnu/h-i686-mingw32/bin/../lib/gcc/nios2-elf/4.1.2\libgcc.a(_pack_sf.o)
                                0x200 (size before relaxing)
 .debug_str     0x000030eb       0x12 ../../bsp/ucosii_net_rozipfs/\libucosii_bsp.a(alt_fstat.o)
 .debug_str     0x000030fd       0x12 ../../bsp/ucosii_net_rozipfs/\libucosii_bsp.a(alt_isatty.o)
 .debug_str     0x0000310f       0x12 ../../bsp/ucosii_net_rozipfs/\libucosii_bsp.a(alt_lseek.o)
 .debug_str     0x00003121       0x12 ../../bsp/ucosii_net_rozipfs/\libucosii_bsp.a(alt_main.o)
 .debug_str     0x00003133       0x12 ../../bsp/ucosii_net_rozipfs/\libucosii_bsp.a(alt_open.o)
 .debug_str     0x00003145       0x12 ../../bsp/ucosii_net_rozipfs/\libucosii_bsp.a(alt_release_fd.o)
 .debug_str     0x00003157       0x1a ../../bsp/ucosii_net_rozipfs/\libucosii_bsp.a(alt_sbrk.o)
 .debug_str     0x00003171       0x1a ../../bsp/ucosii_net_rozipfs/\libucosii_bsp.a(alt_tick.o)
 .debug_str     0x0000318b       0x12 ../../bsp/ucosii_net_rozipfs/\libucosii_bsp.a(alt_usleep.o)
 .debug_str     0x0000319d       0x36 ../../bsp/ucosii_net_rozipfs/\libucosii_bsp.a(alt_env_lock.o)
 .debug_str     0x000031d3       0x36 ../../bsp/ucosii_net_rozipfs/\libucosii_bsp.a(alt_malloc_lock.o)
 .debug_str     0x00003209       0x46 ../../bsp/ucosii_net_rozipfs/\libucosii_bsp.a(os_core.o)
 .debug_str     0x0000324f       0x2b ../../bsp/ucosii_net_rozipfs/\libucosii_bsp.a(os_dbg.o)
 .debug_str     0x0000327a       0x4e ../../bsp/ucosii_net_rozipfs/\libucosii_bsp.a(os_flag.o)
 .debug_str     0x000032c8       0x36 ../../bsp/ucosii_net_rozipfs/\libucosii_bsp.a(os_mbox.o)
 .debug_str     0x000032fe       0x2c ../../bsp/ucosii_net_rozipfs/\libucosii_bsp.a(os_mem.o)
 .debug_str     0x0000332a       0x36 ../../bsp/ucosii_net_rozipfs/\libucosii_bsp.a(os_q.o)
 .debug_str     0x00003360       0x36 ../../bsp/ucosii_net_rozipfs/\libucosii_bsp.a(os_sem.o)
 .debug_str     0x00003396       0x23 ../../bsp/ucosii_net_rozipfs/\libucosii_bsp.a(os_task.o)
 .debug_str     0x000033b9       0x1f ../../bsp/ucosii_net_rozipfs/\libucosii_bsp.a(os_time.o)
 .debug_str     0x000033d8       0x67 ../../bsp/ucosii_net_rozipfs/\libucosii_bsp.a(alt_sys_init.o)
 .debug_str     0x0000343f       0x82 ../../bsp/ucosii_net_rozipfs/\libucosii_bsp.a(altera_avalon_cfi_flash.o)
 .debug_str     0x000034c1       0x6d ../../bsp/ucosii_net_rozipfs/\libucosii_bsp.a(altera_avalon_cfi_flash_table.o)
 .debug_str     0x0000352e       0x12 ../../bsp/ucosii_net_rozipfs/\libucosii_bsp.a(altera_avalon_jtag_uart_fd.o)
 .debug_str     0x00003540       0x1a ../../bsp/ucosii_net_rozipfs/\libucosii_bsp.a(altera_avalon_jtag_uart_init.o)
 .debug_str     0x0000355a       0x12 ../../bsp/ucosii_net_rozipfs/\libucosii_bsp.a(altera_avalon_jtag_uart_ioctl.o)
 .debug_str     0x0000356c       0x22 ../../bsp/ucosii_net_rozipfs/\libucosii_bsp.a(altera_avalon_jtag_uart_read.o)
 .debug_str     0x0000358e       0x22 ../../bsp/ucosii_net_rozipfs/\libucosii_bsp.a(altera_avalon_jtag_uart_write.o)
 .debug_str     0x000035b0       0x25 ../../bsp/ucosii_net_rozipfs/\libucosii_bsp.a(altera_avalon_lcd_16207.o)
 .debug_str     0x000035d5       0x12 ../../bsp/ucosii_net_rozipfs/\libucosii_bsp.a(altera_avalon_lcd_16207_fd.o)
 .debug_str     0x000035e7       0xe7 ../../bsp/ucosii_net_rozipfs/\libucosii_bsp.a(altera_avalon_sgdma.o)
 .debug_str     0x000036ce       0x12 ../../bsp/ucosii_net_rozipfs/\libucosii_bsp.a(altera_avalon_timer_sc.o)
 .debug_str     0x000036e0      0x328 ../../bsp/ucosii_net_rozipfs/\libucosii_bsp.a(altera_avalon_tse.o)
 .debug_str     0x00003a08       0x95 ../../bsp/ucosii_net_rozipfs/\libucosii_bsp.a(altera_ro_zipfs.o)
 .debug_str     0x00003a9d       0xac ../../bsp/ucosii_net_rozipfs/\libucosii_bsp.a(ins_tse_mac.o)
 .debug_str     0x00003b49       0x12 ../../bsp/ucosii_net_rozipfs/\libucosii_bsp.a(alt_iniche_close.o)
 .debug_str     0x00003b5b       0x12 ../../bsp/ucosii_net_rozipfs/\libucosii_bsp.a(alt_iniche_dev.o)
 .debug_str     0x00003b6d       0x12 ../../bsp/ucosii_net_rozipfs/\libucosii_bsp.a(alt_iniche_read.o)
 .debug_str     0x00003b7f       0x12 ../../bsp/ucosii_net_rozipfs/\libucosii_bsp.a(alt_iniche_write.o)
 .debug_str     0x00003b91       0x12 ../../bsp/ucosii_net_rozipfs/\libucosii_bsp.a(ipnet.o)
 .debug_str     0x00003ba3       0x12 ../../bsp/ucosii_net_rozipfs/\libucosii_bsp.a(ipstart.o)
 .debug_str     0x00003bb5       0x12 ../../bsp/ucosii_net_rozipfs/\libucosii_bsp.a(igmp_cmn.o)
 .debug_str     0x00003bc7       0x20 ../../bsp/ucosii_net_rozipfs/\libucosii_bsp.a(bsdsock.o)
 .debug_str     0x00003be7       0x12 ../../bsp/ucosii_net_rozipfs/\libucosii_bsp.a(cksum.o)
 .debug_str     0x00003bf9       0x12 ../../bsp/ucosii_net_rozipfs/\libucosii_bsp.a(in_utils.o)
 .debug_str     0x00003c0b       0x12 ../../bsp/ucosii_net_rozipfs/\libucosii_bsp.a(netmain.o)
 .debug_str     0x00003c1d       0x12 ../../bsp/ucosii_net_rozipfs/\libucosii_bsp.a(tk_crnos.o)
 .debug_str     0x00003c2f       0x2e ../../bsp/ucosii_net_rozipfs/\libucosii_bsp.a(dhcpclnt.o)
 .debug_str     0x00003c5d       0x12 ../../bsp/ucosii_net_rozipfs/\libucosii_bsp.a(dhcputil.o)
 .debug_str     0x00003c6f       0x12 ../../bsp/ucosii_net_rozipfs/\libucosii_bsp.a(pktalloc.o)
 .debug_str     0x00003c81       0x12 ../../bsp/ucosii_net_rozipfs/\libucosii_bsp.a(q.o)
 .debug_str     0x00003c93       0x12 ../../bsp/ucosii_net_rozipfs/\libucosii_bsp.a(udp_open.o)
 .debug_str     0x00003ca5       0x20 ../../bsp/ucosii_net_rozipfs/\libucosii_bsp.a(brdutils.o)
 .debug_str     0x00003cc5       0x22 ../../bsp/ucosii_net_rozipfs/\libucosii_bsp.a(osportco.o)
 .debug_str     0x00003ce7       0x12 ../../bsp/ucosii_net_rozipfs/\libucosii_bsp.a(targnios.o)
 .debug_str     0x00003cf9       0x1e ../../bsp/ucosii_net_rozipfs/\libucosii_bsp.a(nptcp.o)
 .debug_str     0x00003d17       0x12 ../../bsp/ucosii_net_rozipfs/\libucosii_bsp.a(rawsock.o)
 .debug_str     0x00003d29       0x34 ../../bsp/ucosii_net_rozipfs/\libucosii_bsp.a(sockcall.o)
 .debug_str     0x00003d5d       0x18 ../../bsp/ucosii_net_rozipfs/\libucosii_bsp.a(socket.o)
 .debug_str     0x00003d75       0x12 ../../bsp/ucosii_net_rozipfs/\libucosii_bsp.a(socket2.o)
 .debug_str     0x00003d87       0x12 ../../bsp/ucosii_net_rozipfs/\libucosii_bsp.a(soselect.o)
 .debug_str     0x00003d99       0x12 ../../bsp/ucosii_net_rozipfs/\libucosii_bsp.a(tcp_in.o)
 .debug_str     0x00003dab       0x12 ../../bsp/ucosii_net_rozipfs/\libucosii_bsp.a(tcp_out.o)
 .debug_str     0x00003dbd       0x12 ../../bsp/ucosii_net_rozipfs/\libucosii_bsp.a(tcp_subr.o)
 .debug_str     0x00003dcf       0x12 ../../bsp/ucosii_net_rozipfs/\libucosii_bsp.a(tcp_timr.o)
 .debug_str     0x00003de1       0x12 ../../bsp/ucosii_net_rozipfs/\libucosii_bsp.a(tcp_usr.o)
 .debug_str     0x00003df3       0x12 ../../bsp/ucosii_net_rozipfs/\libucosii_bsp.a(tcpport.o)
 .debug_str     0x00003e05       0x1a ../../bsp/ucosii_net_rozipfs/\libucosii_bsp.a(udpsock.o)
 .debug_str     0x00003e1f       0x23 ../../bsp/ucosii_net_rozipfs/\libucosii_bsp.a(alt_alarm_start.o)
 .debug_str     0x00003e42       0x12 ../../bsp/ucosii_net_rozipfs/\libucosii_bsp.a(alt_busy_sleep.o)
 .debug_str     0x00003e54       0x12 ../../bsp/ucosii_net_rozipfs/\libucosii_bsp.a(alt_close.o)
 .debug_str     0x00003e66       0x12 ../../bsp/ucosii_net_rozipfs/\libucosii_bsp.a(alt_dcache_flush.o)
 .debug_str     0x00003e78       0x12 ../../bsp/ucosii_net_rozipfs/\libucosii_bsp.a(alt_dev.o)
 .debug_str     0x00003e8a       0x12 ../../bsp/ucosii_net_rozipfs/\libucosii_bsp.a(alt_dev_llist_insert.o)
 .debug_str     0x00003e9c       0x12 ../../bsp/ucosii_net_rozipfs/\libucosii_bsp.a(alt_errno.o)
 .debug_str     0x00003eae       0x12 ../../bsp/ucosii_net_rozipfs/\libucosii_bsp.a(alt_find_dev.o)
 .debug_str     0x00003ec0       0x12 ../../bsp/ucosii_net_rozipfs/\libucosii_bsp.a(alt_find_file.o)
 .debug_str     0x00003ed2       0x2d ../../bsp/ucosii_net_rozipfs/\libucosii_bsp.a(alt_flash_dev.o)
 .debug_str     0x00003eff       0x12 ../../bsp/ucosii_net_rozipfs/\libucosii_bsp.a(alt_fs_reg.o)
 .debug_str     0x00003f11       0x12 ../../bsp/ucosii_net_rozipfs/\libucosii_bsp.a(alt_get_fd.o)
 .debug_str     0x00003f23       0x18 ../../bsp/ucosii_net_rozipfs/\libucosii_bsp.a(alt_iic.o)
 .debug_str     0x00003f3b       0x1a ../../bsp/ucosii_net_rozipfs/\libucosii_bsp.a(alt_iic_isr_register.o)
 .debug_str     0x00003f55       0x12 ../../bsp/ucosii_net_rozipfs/\libucosii_bsp.a(alt_io_redirect.o)
 .debug_str     0x00003f67       0x12 ../../bsp/ucosii_net_rozipfs/\libucosii_bsp.a(alt_irq_handler.o)
 .debug_str     0x00003f79       0x12 ../../bsp/ucosii_net_rozipfs/\libucosii_bsp.a(alt_read.o)
 .debug_str     0x00003f8b       0x12 ../../bsp/ucosii_net_rozipfs/\libucosii_bsp.a(alt_remap_cached.o)
 .debug_str     0x00003f9d       0x12 ../../bsp/ucosii_net_rozipfs/\libucosii_bsp.a(alt_remap_uncached.o)
 .debug_str     0x00003faf       0x12 ../../bsp/ucosii_net_rozipfs/\libucosii_bsp.a(alt_uncached_malloc.o)
 .debug_str     0x00003fc1       0x12 ../../bsp/ucosii_net_rozipfs/\libucosii_bsp.a(alt_write.o)
 .debug_str     0x00003fd3       0x12 ../../bsp/ucosii_net_rozipfs/\libucosii_bsp.a(altera_nios2_qsys_irq.o)
 .debug_str     0x00003fe5       0x20 ../../bsp/ucosii_net_rozipfs/\libucosii_bsp.a(os_cpu_c.o)
 .debug_str     0x00004005       0x76 ../../bsp/ucosii_net_rozipfs/\libucosii_bsp.a(altera_avalon_cfi_flash_amd.o)
 .debug_str     0x0000407b       0x7d ../../bsp/ucosii_net_rozipfs/\libucosii_bsp.a(altera_avalon_cfi_flash_intel.o)
 .debug_str     0x000040f8       0x12 ../../bsp/ucosii_net_rozipfs/\libucosii_bsp.a(allports.o)
 .debug_str     0x0000410a       0x1b ../../bsp/ucosii_net_rozipfs/\libucosii_bsp.a(timeouts.o)
 .debug_str     0x00004125       0x12 ../../bsp/ucosii_net_rozipfs/\libucosii_bsp.a(tk_misc.o)
 .debug_str     0x00004137       0x12 ../../bsp/ucosii_net_rozipfs/\libucosii_bsp.a(alt_iniche_fcntl.o)
 .debug_str     0x00004149       0x3d ../../bsp/ucosii_net_rozipfs/\libucosii_bsp.a(et_arp.o)
 .debug_str     0x00004186       0x12 ../../bsp/ucosii_net_rozipfs/\libucosii_bsp.a(iface.o)
 .debug_str     0x00004198       0x2c ../../bsp/ucosii_net_rozipfs/\libucosii_bsp.a(ip.o)
 .debug_str     0x000041c4       0x4e ../../bsp/ucosii_net_rozipfs/\libucosii_bsp.a(ip_reasm.o)
 .debug_str     0x00004212       0x12 ../../bsp/ucosii_net_rozipfs/\libucosii_bsp.a(ipdemux.o)
 .debug_str     0x00004224       0x12 ../../bsp/ucosii_net_rozipfs/\libucosii_bsp.a(ipmc.o)
 .debug_str     0x00004236       0x12 ../../bsp/ucosii_net_rozipfs/\libucosii_bsp.a(ipport.o)
 .debug_str     0x00004248       0x12 ../../bsp/ucosii_net_rozipfs/\libucosii_bsp.a(ipraw.o)
 .debug_str     0x0000425a       0x12 ../../bsp/ucosii_net_rozipfs/\libucosii_bsp.a(iproute.o)
 .debug_str     0x0000426c       0x12 ../../bsp/ucosii_net_rozipfs/\libucosii_bsp.a(udp.o)
 .debug_str     0x0000427e       0x12 ../../bsp/ucosii_net_rozipfs/\libucosii_bsp.a(igmp.o)
 .debug_str     0x00004290       0x20 ../../bsp/ucosii_net_rozipfs/\libucosii_bsp.a(igmp2.o)
 .debug_str     0x000042b0       0x12 ../../bsp/ucosii_net_rozipfs/\libucosii_bsp.a(ipopt.o)
 .debug_str     0x000042c2       0x12 ../../bsp/ucosii_net_rozipfs/\libucosii_bsp.a(u_mctest.o)
 .debug_str     0x000042d4       0x12 ../../bsp/ucosii_net_rozipfs/\libucosii_bsp.a(dhcsetup.o)
 .debug_str     0x000042e6       0x1b ../../bsp/ucosii_net_rozipfs/\libucosii_bsp.a(memdev.o)
 .debug_str     0x00004301       0x12 ../../bsp/ucosii_net_rozipfs/\libucosii_bsp.a(parseip.o)
 .debug_str     0x00004313       0x12 ../../bsp/ucosii_net_rozipfs/\libucosii_bsp.a(tcpcksum.o)
 .debug_str     0x00004325       0x12 ../../bsp/ucosii_net_rozipfs/\libucosii_bsp.a(in_pcb.o)
 .debug_str     0x00004337       0x2b ../../bsp/ucosii_net_rozipfs/\libucosii_bsp.a(vfsfiles.o)
 .debug_str     0x00004362       0x12 ../../bsp/ucosii_net_rozipfs/\libucosii_bsp.a(vfsport.o)
 .debug_str     0x00004374       0x12 ../../bsp/ucosii_net_rozipfs/\libucosii_bsp.a(alt_fcntl.o)
 .debug_str     0x00004386       0x12 ../../bsp/ucosii_net_rozipfs/\libucosii_bsp.a(icmp.o)
 .debug_str     0x00004398       0x3b d:/altera/12.1sp1b243/nios2eds/bin/gnu/h-i686-mingw32/bin/../lib/gcc/nios2-elf/4.1.2/../../../../nios2-elf/lib\libc.a(lib_a-atexit.o)
                                0x1bf (size before relaxing)
 .debug_str     0x000043d3       0x39 d:/altera/12.1sp1b243/nios2eds/bin/gnu/h-i686-mingw32/bin/../lib/gcc/nios2-elf/4.1.2/../../../../nios2-elf/lib\libc.a(lib_a-exit.o)
                                0x50c (size before relaxing)
 .debug_str     0x0000440c       0x4e d:/altera/12.1sp1b243/nios2eds/bin/gnu/h-i686-mingw32/bin/../lib/gcc/nios2-elf/4.1.2/../../../../nios2-elf/lib\libc.a(lib_a-vprintf.o)
                                0x526 (size before relaxing)
 .debug_str     0x0000445a       0x51 d:/altera/12.1sp1b243/nios2eds/bin/gnu/h-i686-mingw32/bin/../lib/gcc/nios2-elf/4.1.2/../../../../nios2-elf/lib\libc.a(lib_a-__atexit.o)
                                0x524 (size before relaxing)
 .debug_str     0x000044ab       0x7b d:/altera/12.1sp1b243/nios2eds/bin/gnu/h-i686-mingw32/bin/../lib/gcc/nios2-elf/4.1.2/../../../../nios2-elf/lib\libc.a(lib_a-__call_atexit.o)
                                0x54e (size before relaxing)
 .debug_str     0x00004526       0x1c ../../bsp/ucosii_net_rozipfs/\libucosii_bsp.a(alt_exit.o)

.debug_loc      0x00000000    0x1ba73
 *(.debug_loc)
 .debug_loc     0x00000000      0x360 obj/default/src/flash_intel_p30/flash_intel_p30.o
 .debug_loc     0x00000360       0xae obj/default/src/main.o
 .debug_loc     0x0000040e       0x81 obj/default/src/os_utils.o
 .debug_loc     0x0000048f       0x56 obj/default/src/reconfig_utils.o
 .debug_loc     0x000004e5       0x81 obj/default/src/srec/srec.o
 .debug_loc     0x00000566      0x6e9 obj/default/src/webserver.o
 .debug_loc     0x00000c4f      0x1d2 d:/altera/12.1sp1b243/nios2eds/bin/gnu/h-i686-mingw32/bin/../lib/gcc/nios2-elf/4.1.2\libgcc.a(lib2-divmod.o)
 .debug_loc     0x00000e21       0x39 d:/altera/12.1sp1b243/nios2eds/bin/gnu/h-i686-mingw32/bin/../lib/gcc/nios2-elf/4.1.2/../../../../nios2-elf/lib\libc.a(lib_a-atoi.o)
 .debug_loc     0x00000e5a       0x3c d:/altera/12.1sp1b243/nios2eds/bin/gnu/h-i686-mingw32/bin/../lib/gcc/nios2-elf/4.1.2/../../../../nios2-elf/lib\libc.a(lib_a-calloc.o)
 .debug_loc     0x00000e96       0xe9 d:/altera/12.1sp1b243/nios2eds/bin/gnu/h-i686-mingw32/bin/../lib/gcc/nios2-elf/4.1.2/../../../../nios2-elf/lib\libc.a(lib_a-callocr.o)
 .debug_loc     0x00000f7f       0xe4 d:/altera/12.1sp1b243/nios2eds/bin/gnu/h-i686-mingw32/bin/../lib/gcc/nios2-elf/4.1.2/../../../../nios2-elf/lib\libc.a(lib_a-fclose.o)
 .debug_loc     0x00001063      0x1f6 d:/altera/12.1sp1b243/nios2eds/bin/gnu/h-i686-mingw32/bin/../lib/gcc/nios2-elf/4.1.2/../../../../nios2-elf/lib\libc.a(lib_a-fflush.o)
 .debug_loc     0x00001259       0x9f d:/altera/12.1sp1b243/nios2eds/bin/gnu/h-i686-mingw32/bin/../lib/gcc/nios2-elf/4.1.2/../../../../nios2-elf/lib\libc.a(lib_a-fgetpos.o)
 .debug_loc     0x000012f8      0x19f d:/altera/12.1sp1b243/nios2eds/bin/gnu/h-i686-mingw32/bin/../lib/gcc/nios2-elf/4.1.2/../../../../nios2-elf/lib\libc.a(lib_a-findfp.o)
 .debug_loc     0x00001497      0x1c9 d:/altera/12.1sp1b243/nios2eds/bin/gnu/h-i686-mingw32/bin/../lib/gcc/nios2-elf/4.1.2/../../../../nios2-elf/lib\libc.a(lib_a-fopen.o)
 .debug_loc     0x00001660      0x303 d:/altera/12.1sp1b243/nios2eds/bin/gnu/h-i686-mingw32/bin/../lib/gcc/nios2-elf/4.1.2/../../../../nios2-elf/lib\libc.a(lib_a-fread.o)
 .debug_loc     0x00001963      0x4a7 d:/altera/12.1sp1b243/nios2eds/bin/gnu/h-i686-mingw32/bin/../lib/gcc/nios2-elf/4.1.2/../../../../nios2-elf/lib\libc.a(lib_a-freer.o)
 .debug_loc     0x00001e0a      0x348 d:/altera/12.1sp1b243/nios2eds/bin/gnu/h-i686-mingw32/bin/../lib/gcc/nios2-elf/4.1.2/../../../../nios2-elf/lib\libc.a(lib_a-fseek.o)
 .debug_loc     0x00002152       0x79 d:/altera/12.1sp1b243/nios2eds/bin/gnu/h-i686-mingw32/bin/../lib/gcc/nios2-elf/4.1.2/../../../../nios2-elf/lib\libc.a(lib_a-fstatr.o)
 .debug_loc     0x000021cb       0xe4 d:/altera/12.1sp1b243/nios2eds/bin/gnu/h-i686-mingw32/bin/../lib/gcc/nios2-elf/4.1.2/../../../../nios2-elf/lib\libc.a(lib_a-ftell.o)
 .debug_loc     0x000022af      0x1d2 d:/altera/12.1sp1b243/nios2eds/bin/gnu/h-i686-mingw32/bin/../lib/gcc/nios2-elf/4.1.2/../../../../nios2-elf/lib\libc.a(lib_a-fwalk.o)
 .debug_loc     0x00002481      0x18e d:/altera/12.1sp1b243/nios2eds/bin/gnu/h-i686-mingw32/bin/../lib/gcc/nios2-elf/4.1.2/../../../../nios2-elf/lib\libc.a(lib_a-fwrite.o)
 .debug_loc     0x0000260f      0x10b d:/altera/12.1sp1b243/nios2eds/bin/gnu/h-i686-mingw32/bin/../lib/gcc/nios2-elf/4.1.2/../../../../nios2-elf/lib\libc.a(lib_a-getc.o)
 .debug_loc     0x0000271a      0x11c d:/altera/12.1sp1b243/nios2eds/bin/gnu/h-i686-mingw32/bin/../lib/gcc/nios2-elf/4.1.2/../../../../nios2-elf/lib\libc.a(lib_a-makebuf.o)
 .debug_loc     0x00002836       0x3c d:/altera/12.1sp1b243/nios2eds/bin/gnu/h-i686-mingw32/bin/../lib/gcc/nios2-elf/4.1.2/../../../../nios2-elf/lib\libc.a(lib_a-malloc.o)
 .debug_loc     0x00002872      0xaeb d:/altera/12.1sp1b243/nios2eds/bin/gnu/h-i686-mingw32/bin/../lib/gcc/nios2-elf/4.1.2/../../../../nios2-elf/lib\libc.a(lib_a-mallocr.o)
 .debug_loc     0x0000335d      0x106 d:/altera/12.1sp1b243/nios2eds/bin/gnu/h-i686-mingw32/bin/../lib/gcc/nios2-elf/4.1.2/../../../../nios2-elf/lib\libc.a(lib_a-memchr.o)
 .debug_loc     0x00003463      0x114 d:/altera/12.1sp1b243/nios2eds/bin/gnu/h-i686-mingw32/bin/../lib/gcc/nios2-elf/4.1.2/../../../../nios2-elf/lib\libc.a(lib_a-memcmp.o)
 .debug_loc     0x00003577       0xca d:/altera/12.1sp1b243/nios2eds/bin/gnu/h-i686-mingw32/bin/../lib/gcc/nios2-elf/4.1.2/../../../../nios2-elf/lib\libc.a(lib_a-memcpy.o)
 .debug_loc     0x00003641      0x117 d:/altera/12.1sp1b243/nios2eds/bin/gnu/h-i686-mingw32/bin/../lib/gcc/nios2-elf/4.1.2/../../../../nios2-elf/lib\libc.a(lib_a-memmove.o)
 .debug_loc     0x00003758       0xa1 d:/altera/12.1sp1b243/nios2eds/bin/gnu/h-i686-mingw32/bin/../lib/gcc/nios2-elf/4.1.2/../../../../nios2-elf/lib\libc.a(lib_a-memset.o)
 .debug_loc     0x000037f9       0x97 d:/altera/12.1sp1b243/nios2eds/bin/gnu/h-i686-mingw32/bin/../lib/gcc/nios2-elf/4.1.2/../../../../nios2-elf/lib\libc.a(lib_a-openr.o)
 .debug_loc     0x00003890       0xa2 d:/altera/12.1sp1b243/nios2eds/bin/gnu/h-i686-mingw32/bin/../lib/gcc/nios2-elf/4.1.2/../../../../nios2-elf/lib\libc.a(lib_a-perror.o)
 .debug_loc     0x00003932      0x20d d:/altera/12.1sp1b243/nios2eds/bin/gnu/h-i686-mingw32/bin/../lib/gcc/nios2-elf/4.1.2/../../../../nios2-elf/lib\libc.a(lib_a-putc.o)
 .debug_loc     0x00003b3f       0xa2 d:/altera/12.1sp1b243/nios2eds/bin/gnu/h-i686-mingw32/bin/../lib/gcc/nios2-elf/4.1.2/../../../../nios2-elf/lib\libc.a(lib_a-puts.o)
 .debug_loc     0x00003be1       0xd1 d:/altera/12.1sp1b243/nios2eds/bin/gnu/h-i686-mingw32/bin/../lib/gcc/nios2-elf/4.1.2/../../../../nios2-elf/lib\libc.a(lib_a-refill.o)
 .debug_loc     0x00003cb2       0x6e d:/altera/12.1sp1b243/nios2eds/bin/gnu/h-i686-mingw32/bin/../lib/gcc/nios2-elf/4.1.2/../../../../nios2-elf/lib\libc.a(lib_a-rget.o)
 .debug_loc     0x00003d20       0x5b d:/altera/12.1sp1b243/nios2eds/bin/gnu/h-i686-mingw32/bin/../lib/gcc/nios2-elf/4.1.2/../../../../nios2-elf/lib\libc.a(lib_a-sbrkr.o)
 .debug_loc     0x00003d7b       0xc0 d:/altera/12.1sp1b243/nios2eds/bin/gnu/h-i686-mingw32/bin/../lib/gcc/nios2-elf/4.1.2/../../../../nios2-elf/lib\libc.a(lib_a-sprintf.o)
 .debug_loc     0x00003e3b       0xc0 d:/altera/12.1sp1b243/nios2eds/bin/gnu/h-i686-mingw32/bin/../lib/gcc/nios2-elf/4.1.2/../../../../nios2-elf/lib\libc.a(lib_a-sscanf.o)
 .debug_loc     0x00003efb      0x21f d:/altera/12.1sp1b243/nios2eds/bin/gnu/h-i686-mingw32/bin/../lib/gcc/nios2-elf/4.1.2/../../../../nios2-elf/lib\libc.a(lib_a-stdio.o)
 .debug_loc     0x0000411a       0x88 d:/altera/12.1sp1b243/nios2eds/bin/gnu/h-i686-mingw32/bin/../lib/gcc/nios2-elf/4.1.2/../../../../nios2-elf/lib\libc.a(lib_a-strcasecmp.o)
 .debug_loc     0x000041a2       0xf3 d:/altera/12.1sp1b243/nios2eds/bin/gnu/h-i686-mingw32/bin/../lib/gcc/nios2-elf/4.1.2/../../../../nios2-elf/lib\libc.a(lib_a-strchr.o)
 .debug_loc     0x00004295       0x65 d:/altera/12.1sp1b243/nios2eds/bin/gnu/h-i686-mingw32/bin/../lib/gcc/nios2-elf/4.1.2/../../../../nios2-elf/lib\libc.a(lib_a-strcmp.o)
 .debug_loc     0x000042fa       0x8b d:/altera/12.1sp1b243/nios2eds/bin/gnu/h-i686-mingw32/bin/../lib/gcc/nios2-elf/4.1.2/../../../../nios2-elf/lib\libc.a(lib_a-strcpy.o)
 .debug_loc     0x00004385      0x418 d:/altera/12.1sp1b243/nios2eds/bin/gnu/h-i686-mingw32/bin/../lib/gcc/nios2-elf/4.1.2/../../../../nios2-elf/lib\libc.a(lib_a-strerror.o)
 .debug_loc     0x0000479d       0x3c d:/altera/12.1sp1b243/nios2eds/bin/gnu/h-i686-mingw32/bin/../lib/gcc/nios2-elf/4.1.2/../../../../nios2-elf/lib\libc.a(lib_a-strlen.o)
 .debug_loc     0x000047d9       0x78 d:/altera/12.1sp1b243/nios2eds/bin/gnu/h-i686-mingw32/bin/../lib/gcc/nios2-elf/4.1.2/../../../../nios2-elf/lib\libc.a(lib_a-strncmp.o)
 .debug_loc     0x00004851       0xeb d:/altera/12.1sp1b243/nios2eds/bin/gnu/h-i686-mingw32/bin/../lib/gcc/nios2-elf/4.1.2/../../../../nios2-elf/lib\libc.a(lib_a-strncpy.o)
 .debug_loc     0x0000493c      0xa24 d:/altera/12.1sp1b243/nios2eds/bin/gnu/h-i686-mingw32/bin/../lib/gcc/nios2-elf/4.1.2/../../../../nios2-elf/lib\libc.a(lib_a-strstr.o)
 .debug_loc     0x00005360       0x26 d:/altera/12.1sp1b243/nios2eds/bin/gnu/h-i686-mingw32/bin/../lib/gcc/nios2-elf/4.1.2/../../../../nios2-elf/lib\libc.a(lib_a-strtok.o)
 .debug_loc     0x00005386       0xc7 d:/altera/12.1sp1b243/nios2eds/bin/gnu/h-i686-mingw32/bin/../lib/gcc/nios2-elf/4.1.2/../../../../nios2-elf/lib\libc.a(lib_a-strtok_r.o)
 .debug_loc     0x0000544d      0x346 d:/altera/12.1sp1b243/nios2eds/bin/gnu/h-i686-mingw32/bin/../lib/gcc/nios2-elf/4.1.2/../../../../nios2-elf/lib\libc.a(lib_a-strtol.o)
 .debug_loc     0x00005793     0x1e0d d:/altera/12.1sp1b243/nios2eds/bin/gnu/h-i686-mingw32/bin/../lib/gcc/nios2-elf/4.1.2/../../../../nios2-elf/lib\libc.a(lib_a-vfprintf.o)
 .debug_loc     0x000075a0     0x13ff d:/altera/12.1sp1b243/nios2eds/bin/gnu/h-i686-mingw32/bin/../lib/gcc/nios2-elf/4.1.2/../../../../nios2-elf/lib\libc.a(lib_a-vfscanf.o)
 .debug_loc     0x0000899f       0xd1 d:/altera/12.1sp1b243/nios2eds/bin/gnu/h-i686-mingw32/bin/../lib/gcc/nios2-elf/4.1.2/../../../../nios2-elf/lib\libc.a(lib_a-vsprintf.o)
 .debug_loc     0x00008a70      0x157 d:/altera/12.1sp1b243/nios2eds/bin/gnu/h-i686-mingw32/bin/../lib/gcc/nios2-elf/4.1.2/../../../../nios2-elf/lib\libc.a(lib_a-wbuf.o)
 .debug_loc     0x00008bc7       0x97 d:/altera/12.1sp1b243/nios2eds/bin/gnu/h-i686-mingw32/bin/../lib/gcc/nios2-elf/4.1.2/../../../../nios2-elf/lib\libc.a(lib_a-writer.o)
 .debug_loc     0x00008c5e       0x7c d:/altera/12.1sp1b243/nios2eds/bin/gnu/h-i686-mingw32/bin/../lib/gcc/nios2-elf/4.1.2/../../../../nios2-elf/lib\libc.a(lib_a-wsetup.o)
 .debug_loc     0x00008cda       0x5b d:/altera/12.1sp1b243/nios2eds/bin/gnu/h-i686-mingw32/bin/../lib/gcc/nios2-elf/4.1.2/../../../../nios2-elf/lib\libc.a(lib_a-closer.o)
 .debug_loc     0x00008d35     0x1dfa d:/altera/12.1sp1b243/nios2eds/bin/gnu/h-i686-mingw32/bin/../lib/gcc/nios2-elf/4.1.2/../../../../nios2-elf/lib\libc.a(lib_a-dtoa.o)
 .debug_loc     0x0000ab2f       0xa4 d:/altera/12.1sp1b243/nios2eds/bin/gnu/h-i686-mingw32/bin/../lib/gcc/nios2-elf/4.1.2/../../../../nios2-elf/lib\libc.a(lib_a-flags.o)
 .debug_loc     0x0000abd3      0x14d d:/altera/12.1sp1b243/nios2eds/bin/gnu/h-i686-mingw32/bin/../lib/gcc/nios2-elf/4.1.2/../../../../nios2-elf/lib\libc.a(lib_a-fputc.o)
 .debug_loc     0x0000ad20       0xcb d:/altera/12.1sp1b243/nios2eds/bin/gnu/h-i686-mingw32/bin/../lib/gcc/nios2-elf/4.1.2/../../../../nios2-elf/lib\libc.a(lib_a-fputs.o)
 .debug_loc     0x0000adeb      0x4e4 d:/altera/12.1sp1b243/nios2eds/bin/gnu/h-i686-mingw32/bin/../lib/gcc/nios2-elf/4.1.2/../../../../nios2-elf/lib\libc.a(lib_a-fvwrite.o)
 .debug_loc     0x0000b2cf       0x5b d:/altera/12.1sp1b243/nios2eds/bin/gnu/h-i686-mingw32/bin/../lib/gcc/nios2-elf/4.1.2/../../../../nios2-elf/lib\libc.a(lib_a-isattyr.o)
 .debug_loc     0x0000b32a       0xe1 d:/altera/12.1sp1b243/nios2eds/bin/gnu/h-i686-mingw32/bin/../lib/gcc/nios2-elf/4.1.2/../../../../nios2-elf/lib\libc.a(lib_a-locale.o)
 .debug_loc     0x0000b40b       0x97 d:/altera/12.1sp1b243/nios2eds/bin/gnu/h-i686-mingw32/bin/../lib/gcc/nios2-elf/4.1.2/../../../../nios2-elf/lib\libc.a(lib_a-lseekr.o)
 .debug_loc     0x0000b4a2      0x182 d:/altera/12.1sp1b243/nios2eds/bin/gnu/h-i686-mingw32/bin/../lib/gcc/nios2-elf/4.1.2/../../../../nios2-elf/lib\libc.a(lib_a-mbrtowc.o)
 .debug_loc     0x0000b624       0x1f d:/altera/12.1sp1b243/nios2eds/bin/gnu/h-i686-mingw32/bin/../lib/gcc/nios2-elf/4.1.2/../../../../nios2-elf/lib\libc.a(lib_a-mbtowc_r.o)
 .debug_loc     0x0000b643     0x14d6 d:/altera/12.1sp1b243/nios2eds/bin/gnu/h-i686-mingw32/bin/../lib/gcc/nios2-elf/4.1.2/../../../../nios2-elf/lib\libc.a(lib_a-mprec.o)
 .debug_loc     0x0000cb19       0x97 d:/altera/12.1sp1b243/nios2eds/bin/gnu/h-i686-mingw32/bin/../lib/gcc/nios2-elf/4.1.2/../../../../nios2-elf/lib\libc.a(lib_a-readr.o)
 .debug_loc     0x0000cbb0      0x8c0 d:/altera/12.1sp1b243/nios2eds/bin/gnu/h-i686-mingw32/bin/../lib/gcc/nios2-elf/4.1.2/../../../../nios2-elf/lib\libc.a(lib_a-reallocr.o)
 .debug_loc     0x0000d470       0x36 d:/altera/12.1sp1b243/nios2eds/bin/gnu/h-i686-mingw32/bin/../lib/gcc/nios2-elf/4.1.2/../../../../nios2-elf/lib\libc.a(lib_a-s_isinfd.o)
 .debug_loc     0x0000d4a6       0x18 d:/altera/12.1sp1b243/nios2eds/bin/gnu/h-i686-mingw32/bin/../lib/gcc/nios2-elf/4.1.2/../../../../nios2-elf/lib\libc.a(lib_a-s_isnand.o)
 .debug_loc     0x0000d4be       0xdb d:/altera/12.1sp1b243/nios2eds/bin/gnu/h-i686-mingw32/bin/../lib/gcc/nios2-elf/4.1.2/../../../../nios2-elf/lib\libc.a(lib_a-sccl.o)
 .debug_loc     0x0000d599     0x243e d:/altera/12.1sp1b243/nios2eds/bin/gnu/h-i686-mingw32/bin/../lib/gcc/nios2-elf/4.1.2/../../../../nios2-elf/lib\libc.a(lib_a-strtod.o)
 .debug_loc     0x0000f9d7      0x30f d:/altera/12.1sp1b243/nios2eds/bin/gnu/h-i686-mingw32/bin/../lib/gcc/nios2-elf/4.1.2/../../../../nios2-elf/lib\libc.a(lib_a-strtoll_r.o)
 .debug_loc     0x0000fce6      0x263 d:/altera/12.1sp1b243/nios2eds/bin/gnu/h-i686-mingw32/bin/../lib/gcc/nios2-elf/4.1.2/../../../../nios2-elf/lib\libc.a(lib_a-strtoul.o)
 .debug_loc     0x0000ff49      0x282 d:/altera/12.1sp1b243/nios2eds/bin/gnu/h-i686-mingw32/bin/../lib/gcc/nios2-elf/4.1.2/../../../../nios2-elf/lib\libc.a(lib_a-strtoull_r.o)
 .debug_loc     0x000101cb      0x207 d:/altera/12.1sp1b243/nios2eds/bin/gnu/h-i686-mingw32/bin/../lib/gcc/nios2-elf/4.1.2/../../../../nios2-elf/lib\libc.a(lib_a-ungetc.o)
 .debug_loc     0x000103d2      0xad2 d:/altera/12.1sp1b243/nios2eds/bin/gnu/h-i686-mingw32/bin/../lib/gcc/nios2-elf/4.1.2/../../../../nios2-elf/lib\libc.a(lib_a-gdtoa-gethex.o)
 .debug_loc     0x00010ea4      0x2a6 d:/altera/12.1sp1b243/nios2eds/bin/gnu/h-i686-mingw32/bin/../lib/gcc/nios2-elf/4.1.2/../../../../nios2-elf/lib\libc.a(lib_a-gdtoa-hexnan.o)
 .debug_loc     0x0001114a       0xc4 d:/altera/12.1sp1b243/nios2eds/bin/gnu/h-i686-mingw32/bin/../lib/gcc/nios2-elf/4.1.2\libgcc.a(_muldi3.o)
 .debug_loc     0x0001120e       0x87 d:/altera/12.1sp1b243/nios2eds/bin/gnu/h-i686-mingw32/bin/../lib/gcc/nios2-elf/4.1.2\libgcc.a(_fixunsdfsi.o)
 .debug_loc     0x00011295      0xc12 d:/altera/12.1sp1b243/nios2eds/bin/gnu/h-i686-mingw32/bin/../lib/gcc/nios2-elf/4.1.2\libgcc.a(_udivdi3.o)
 .debug_loc     0x00011ea7      0xc26 d:/altera/12.1sp1b243/nios2eds/bin/gnu/h-i686-mingw32/bin/../lib/gcc/nios2-elf/4.1.2\libgcc.a(_umoddi3.o)
 .debug_loc     0x00012acd       0x45 d:/altera/12.1sp1b243/nios2eds/bin/gnu/h-i686-mingw32/bin/../lib/gcc/nios2-elf/4.1.2\libgcc.a(_ne_sf.o)
 .debug_loc     0x00012b12       0x45 d:/altera/12.1sp1b243/nios2eds/bin/gnu/h-i686-mingw32/bin/../lib/gcc/nios2-elf/4.1.2\libgcc.a(_gt_sf.o)
 .debug_loc     0x00012b57       0x45 d:/altera/12.1sp1b243/nios2eds/bin/gnu/h-i686-mingw32/bin/../lib/gcc/nios2-elf/4.1.2\libgcc.a(_lt_sf.o)
 .debug_loc     0x00012b9c      0x47a d:/altera/12.1sp1b243/nios2eds/bin/gnu/h-i686-mingw32/bin/../lib/gcc/nios2-elf/4.1.2\libgcc.a(_addsub_df.o)
 .debug_loc     0x00013016      0x3b4 d:/altera/12.1sp1b243/nios2eds/bin/gnu/h-i686-mingw32/bin/../lib/gcc/nios2-elf/4.1.2\libgcc.a(_mul_df.o)
 .debug_loc     0x000133ca      0x1df d:/altera/12.1sp1b243/nios2eds/bin/gnu/h-i686-mingw32/bin/../lib/gcc/nios2-elf/4.1.2\libgcc.a(_div_df.o)
 .debug_loc     0x000135a9       0x70 d:/altera/12.1sp1b243/nios2eds/bin/gnu/h-i686-mingw32/bin/../lib/gcc/nios2-elf/4.1.2\libgcc.a(_eq_df.o)
 .debug_loc     0x00013619       0x70 d:/altera/12.1sp1b243/nios2eds/bin/gnu/h-i686-mingw32/bin/../lib/gcc/nios2-elf/4.1.2\libgcc.a(_ne_df.o)
 .debug_loc     0x00013689       0x70 d:/altera/12.1sp1b243/nios2eds/bin/gnu/h-i686-mingw32/bin/../lib/gcc/nios2-elf/4.1.2\libgcc.a(_gt_df.o)
 .debug_loc     0x000136f9       0x70 d:/altera/12.1sp1b243/nios2eds/bin/gnu/h-i686-mingw32/bin/../lib/gcc/nios2-elf/4.1.2\libgcc.a(_ge_df.o)
 .debug_loc     0x00013769       0x70 d:/altera/12.1sp1b243/nios2eds/bin/gnu/h-i686-mingw32/bin/../lib/gcc/nios2-elf/4.1.2\libgcc.a(_lt_df.o)
 .debug_loc     0x000137d9       0x70 d:/altera/12.1sp1b243/nios2eds/bin/gnu/h-i686-mingw32/bin/../lib/gcc/nios2-elf/4.1.2\libgcc.a(_le_df.o)
 .debug_loc     0x00013849       0x9a d:/altera/12.1sp1b243/nios2eds/bin/gnu/h-i686-mingw32/bin/../lib/gcc/nios2-elf/4.1.2\libgcc.a(_si_to_df.o)
 .debug_loc     0x000138e3       0x8b d:/altera/12.1sp1b243/nios2eds/bin/gnu/h-i686-mingw32/bin/../lib/gcc/nios2-elf/4.1.2\libgcc.a(_df_to_si.o)
 .debug_loc     0x0001396e       0x6a d:/altera/12.1sp1b243/nios2eds/bin/gnu/h-i686-mingw32/bin/../lib/gcc/nios2-elf/4.1.2\libgcc.a(_df_to_sf.o)
 .debug_loc     0x000139d8       0x5b d:/altera/12.1sp1b243/nios2eds/bin/gnu/h-i686-mingw32/bin/../lib/gcc/nios2-elf/4.1.2\libgcc.a(_usi_to_df.o)
 .debug_loc     0x00013a33       0x1e d:/altera/12.1sp1b243/nios2eds/bin/gnu/h-i686-mingw32/bin/../lib/gcc/nios2-elf/4.1.2\libgcc.a(_clzsi2.o)
 .debug_loc     0x00013a51       0x31 d:/altera/12.1sp1b243/nios2eds/bin/gnu/h-i686-mingw32/bin/../lib/gcc/nios2-elf/4.1.2\libgcc.a(_unpack_sf.o)
 .debug_loc     0x00013a82       0x3c d:/altera/12.1sp1b243/nios2eds/bin/gnu/h-i686-mingw32/bin/../lib/gcc/nios2-elf/4.1.2\libgcc.a(_fpcmp_parts_sf.o)
 .debug_loc     0x00013abe       0x6b d:/altera/12.1sp1b243/nios2eds/bin/gnu/h-i686-mingw32/bin/../lib/gcc/nios2-elf/4.1.2\libgcc.a(_make_sf.o)
 .debug_loc     0x00013b29      0x184 d:/altera/12.1sp1b243/nios2eds/bin/gnu/h-i686-mingw32/bin/../lib/gcc/nios2-elf/4.1.2\libgcc.a(_pack_df.o)
 .debug_loc     0x00013cad       0xe5 d:/altera/12.1sp1b243/nios2eds/bin/gnu/h-i686-mingw32/bin/../lib/gcc/nios2-elf/4.1.2\libgcc.a(_unpack_df.o)
 .debug_loc     0x00013d92       0xf9 d:/altera/12.1sp1b243/nios2eds/bin/gnu/h-i686-mingw32/bin/../lib/gcc/nios2-elf/4.1.2\libgcc.a(_pack_sf.o)
 .debug_loc     0x00013e8b       0x56 ../../bsp/ucosii_net_rozipfs/\libucosii_bsp.a(alt_fstat.o)
 .debug_loc     0x00013ee1       0x57 ../../bsp/ucosii_net_rozipfs/\libucosii_bsp.a(alt_isatty.o)
 .debug_loc     0x00013f38       0x56 ../../bsp/ucosii_net_rozipfs/\libucosii_bsp.a(alt_lseek.o)
 .debug_loc     0x00013f8e       0x2b ../../bsp/ucosii_net_rozipfs/\libucosii_bsp.a(alt_main.o)
 .debug_loc     0x00013fb9       0x81 ../../bsp/ucosii_net_rozipfs/\libucosii_bsp.a(alt_open.o)
 .debug_loc     0x0001403a       0x2b ../../bsp/ucosii_net_rozipfs/\libucosii_bsp.a(alt_release_fd.o)
 .debug_loc     0x00014065       0x2b ../../bsp/ucosii_net_rozipfs/\libucosii_bsp.a(alt_sbrk.o)
 .debug_loc     0x00014090       0x56 ../../bsp/ucosii_net_rozipfs/\libucosii_bsp.a(alt_tick.o)
 .debug_loc     0x000140e6       0x2b ../../bsp/ucosii_net_rozipfs/\libucosii_bsp.a(alt_usleep.o)
 .debug_loc     0x00014111       0x57 ../../bsp/ucosii_net_rozipfs/\libucosii_bsp.a(alt_env_lock.o)
 .debug_loc     0x00014168       0x57 ../../bsp/ucosii_net_rozipfs/\libucosii_bsp.a(alt_malloc_lock.o)
 .debug_loc     0x000141bf      0x5e2 ../../bsp/ucosii_net_rozipfs/\libucosii_bsp.a(os_core.o)
 .debug_loc     0x000147a1       0x2b ../../bsp/ucosii_net_rozipfs/\libucosii_bsp.a(os_dbg.o)
 .debug_loc     0x000147cc      0x232 ../../bsp/ucosii_net_rozipfs/\libucosii_bsp.a(os_flag.o)
 .debug_loc     0x000149fe      0x158 ../../bsp/ucosii_net_rozipfs/\libucosii_bsp.a(os_mbox.o)
 .debug_loc     0x00014b56      0x12d ../../bsp/ucosii_net_rozipfs/\libucosii_bsp.a(os_mem.o)
 .debug_loc     0x00014c83      0x1da ../../bsp/ucosii_net_rozipfs/\libucosii_bsp.a(os_q.o)
 .debug_loc     0x00014e5d      0x158 ../../bsp/ucosii_net_rozipfs/\libucosii_bsp.a(os_sem.o)
 .debug_loc     0x00014fb5      0x207 ../../bsp/ucosii_net_rozipfs/\libucosii_bsp.a(os_task.o)
 .debug_loc     0x000151bc       0xd7 ../../bsp/ucosii_net_rozipfs/\libucosii_bsp.a(os_time.o)
 .debug_loc     0x00015293       0x81 ../../bsp/ucosii_net_rozipfs/\libucosii_bsp.a(alt_sys_init.o)
 .debug_loc     0x00015314      0x12e ../../bsp/ucosii_net_rozipfs/\libucosii_bsp.a(altera_avalon_cfi_flash.o)
 .debug_loc     0x00015442      0x306 ../../bsp/ucosii_net_rozipfs/\libucosii_bsp.a(altera_avalon_cfi_flash_table.o)
 .debug_loc     0x00015748       0xac ../../bsp/ucosii_net_rozipfs/\libucosii_bsp.a(altera_avalon_jtag_uart_fd.o)
 .debug_loc     0x000157f4       0xac ../../bsp/ucosii_net_rozipfs/\libucosii_bsp.a(altera_avalon_jtag_uart_init.o)
 .debug_loc     0x000158a0       0x2b ../../bsp/ucosii_net_rozipfs/\libucosii_bsp.a(altera_avalon_jtag_uart_ioctl.o)
 .debug_loc     0x000158cb       0x2c ../../bsp/ucosii_net_rozipfs/\libucosii_bsp.a(altera_avalon_jtag_uart_read.o)
 .debug_loc     0x000158f7       0x2c ../../bsp/ucosii_net_rozipfs/\libucosii_bsp.a(altera_avalon_jtag_uart_write.o)
 .debug_loc     0x00015923      0x184 ../../bsp/ucosii_net_rozipfs/\libucosii_bsp.a(altera_avalon_lcd_16207.o)
 .debug_loc     0x00015aa7       0x2b ../../bsp/ucosii_net_rozipfs/\libucosii_bsp.a(altera_avalon_lcd_16207_fd.o)
 .debug_loc     0x00015ad2      0x35c ../../bsp/ucosii_net_rozipfs/\libucosii_bsp.a(altera_avalon_sgdma.o)
 .debug_loc     0x00015e2e       0x56 ../../bsp/ucosii_net_rozipfs/\libucosii_bsp.a(altera_avalon_timer_sc.o)
 .debug_loc     0x00015e84      0x73d ../../bsp/ucosii_net_rozipfs/\libucosii_bsp.a(altera_avalon_tse.o)
 .debug_loc     0x000165c1      0x285 ../../bsp/ucosii_net_rozipfs/\libucosii_bsp.a(altera_ro_zipfs.o)
 .debug_loc     0x00016846      0x185 ../../bsp/ucosii_net_rozipfs/\libucosii_bsp.a(ins_tse_mac.o)
 .debug_loc     0x000169cb       0x2b ../../bsp/ucosii_net_rozipfs/\libucosii_bsp.a(alt_iniche_close.o)
 .debug_loc     0x000169f6       0x2b ../../bsp/ucosii_net_rozipfs/\libucosii_bsp.a(alt_iniche_dev.o)
 .debug_loc     0x00016a21       0x2b ../../bsp/ucosii_net_rozipfs/\libucosii_bsp.a(alt_iniche_read.o)
 .debug_loc     0x00016a4c       0x2b ../../bsp/ucosii_net_rozipfs/\libucosii_bsp.a(alt_iniche_write.o)
 .debug_loc     0x00016a77      0x102 ../../bsp/ucosii_net_rozipfs/\libucosii_bsp.a(ipnet.o)
 .debug_loc     0x00016b79       0xac ../../bsp/ucosii_net_rozipfs/\libucosii_bsp.a(ipstart.o)
 .debug_loc     0x00016c25      0x159 ../../bsp/ucosii_net_rozipfs/\libucosii_bsp.a(igmp_cmn.o)
 .debug_loc     0x00016d7e      0x1af ../../bsp/ucosii_net_rozipfs/\libucosii_bsp.a(bsdsock.o)
 .debug_loc     0x00016f2d       0x56 ../../bsp/ucosii_net_rozipfs/\libucosii_bsp.a(cksum.o)
 .debug_loc     0x00016f83      0x204 ../../bsp/ucosii_net_rozipfs/\libucosii_bsp.a(in_utils.o)
 .debug_loc     0x00017187       0x81 ../../bsp/ucosii_net_rozipfs/\libucosii_bsp.a(netmain.o)
 .debug_loc     0x00017208      0x12f ../../bsp/ucosii_net_rozipfs/\libucosii_bsp.a(tk_crnos.o)
 .debug_loc     0x00017337      0x387 ../../bsp/ucosii_net_rozipfs/\libucosii_bsp.a(dhcpclnt.o)
 .debug_loc     0x000176be       0x2b ../../bsp/ucosii_net_rozipfs/\libucosii_bsp.a(dhcputil.o)
 .debug_loc     0x000176e9      0x102 ../../bsp/ucosii_net_rozipfs/\libucosii_bsp.a(pktalloc.o)
 .debug_loc     0x000177eb       0x81 ../../bsp/ucosii_net_rozipfs/\libucosii_bsp.a(q.o)
 .debug_loc     0x0001786c       0x56 ../../bsp/ucosii_net_rozipfs/\libucosii_bsp.a(udp_open.o)
 .debug_loc     0x000178c2      0x158 ../../bsp/ucosii_net_rozipfs/\libucosii_bsp.a(brdutils.o)
 .debug_loc     0x00017a1a       0xd8 ../../bsp/ucosii_net_rozipfs/\libucosii_bsp.a(osportco.o)
 .debug_loc     0x00017af2      0x183 ../../bsp/ucosii_net_rozipfs/\libucosii_bsp.a(targnios.o)
 .debug_loc     0x00017c75      0x489 ../../bsp/ucosii_net_rozipfs/\libucosii_bsp.a(nptcp.o)
 .debug_loc     0x000180fe       0x82 ../../bsp/ucosii_net_rozipfs/\libucosii_bsp.a(rawsock.o)
 .debug_loc     0x00018180      0x332 ../../bsp/ucosii_net_rozipfs/\libucosii_bsp.a(sockcall.o)
 .debug_loc     0x000184b2      0x2b1 ../../bsp/ucosii_net_rozipfs/\libucosii_bsp.a(socket.o)
 .debug_loc     0x00018763      0x3dd ../../bsp/ucosii_net_rozipfs/\libucosii_bsp.a(socket2.o)
 .debug_loc     0x00018b40      0x184 ../../bsp/ucosii_net_rozipfs/\libucosii_bsp.a(soselect.o)
 .debug_loc     0x00018cc4      0x12e ../../bsp/ucosii_net_rozipfs/\libucosii_bsp.a(tcp_in.o)
 .debug_loc     0x00018df2       0x82 ../../bsp/ucosii_net_rozipfs/\libucosii_bsp.a(tcp_out.o)
 .debug_loc     0x00018e74      0x183 ../../bsp/ucosii_net_rozipfs/\libucosii_bsp.a(tcp_subr.o)
 .debug_loc     0x00018ff7       0x81 ../../bsp/ucosii_net_rozipfs/\libucosii_bsp.a(tcp_timr.o)
 .debug_loc     0x00019078       0xac ../../bsp/ucosii_net_rozipfs/\libucosii_bsp.a(tcp_usr.o)
 .debug_loc     0x00019124       0x2b ../../bsp/ucosii_net_rozipfs/\libucosii_bsp.a(tcpport.o)
 .debug_loc     0x0001914f      0x102 ../../bsp/ucosii_net_rozipfs/\libucosii_bsp.a(udpsock.o)
 .debug_loc     0x00019251       0x2b ../../bsp/ucosii_net_rozipfs/\libucosii_bsp.a(alt_alarm_start.o)
 .debug_loc     0x0001927c       0x2b ../../bsp/ucosii_net_rozipfs/\libucosii_bsp.a(alt_busy_sleep.o)
 .debug_loc     0x000192a7       0x56 ../../bsp/ucosii_net_rozipfs/\libucosii_bsp.a(alt_close.o)
 .debug_loc     0x000192fd       0x2b ../../bsp/ucosii_net_rozipfs/\libucosii_bsp.a(alt_dcache_flush.o)
 .debug_loc     0x00019328       0x2b ../../bsp/ucosii_net_rozipfs/\libucosii_bsp.a(alt_dev.o)
 .debug_loc     0x00019353       0x56 ../../bsp/ucosii_net_rozipfs/\libucosii_bsp.a(alt_dev_llist_insert.o)
 .debug_loc     0x000193a9       0x2b ../../bsp/ucosii_net_rozipfs/\libucosii_bsp.a(alt_do_ctors.o)
 .debug_loc     0x000193d4       0x2b ../../bsp/ucosii_net_rozipfs/\libucosii_bsp.a(alt_do_dtors.o)
 .debug_loc     0x000193ff       0x2b ../../bsp/ucosii_net_rozipfs/\libucosii_bsp.a(alt_find_dev.o)
 .debug_loc     0x0001942a       0x2b ../../bsp/ucosii_net_rozipfs/\libucosii_bsp.a(alt_find_file.o)
 .debug_loc     0x00019455       0x56 ../../bsp/ucosii_net_rozipfs/\libucosii_bsp.a(alt_flash_dev.o)
 .debug_loc     0x000194ab       0x2b ../../bsp/ucosii_net_rozipfs/\libucosii_bsp.a(alt_fs_reg.o)
 .debug_loc     0x000194d6       0x2b ../../bsp/ucosii_net_rozipfs/\libucosii_bsp.a(alt_get_fd.o)
 .debug_loc     0x00019501       0xac ../../bsp/ucosii_net_rozipfs/\libucosii_bsp.a(alt_iic.o)
 .debug_loc     0x000195ad       0x2b ../../bsp/ucosii_net_rozipfs/\libucosii_bsp.a(alt_iic_isr_register.o)
 .debug_loc     0x000195d8       0x56 ../../bsp/ucosii_net_rozipfs/\libucosii_bsp.a(alt_io_redirect.o)
 .debug_loc     0x0001962e       0x2b ../../bsp/ucosii_net_rozipfs/\libucosii_bsp.a(alt_irq_handler.o)
 .debug_loc     0x00019659       0x56 ../../bsp/ucosii_net_rozipfs/\libucosii_bsp.a(alt_read.o)
 .debug_loc     0x000196af       0x2b ../../bsp/ucosii_net_rozipfs/\libucosii_bsp.a(alt_remap_cached.o)
 .debug_loc     0x000196da       0x2b ../../bsp/ucosii_net_rozipfs/\libucosii_bsp.a(alt_remap_uncached.o)
 .debug_loc     0x00019705       0x2b ../../bsp/ucosii_net_rozipfs/\libucosii_bsp.a(alt_uncached_malloc.o)
 .debug_loc     0x00019730       0x56 ../../bsp/ucosii_net_rozipfs/\libucosii_bsp.a(alt_write.o)
 .debug_loc     0x00019786       0x2b ../../bsp/ucosii_net_rozipfs/\libucosii_bsp.a(altera_nios2_qsys_irq.o)
 .debug_loc     0x000197b1      0x1ae ../../bsp/ucosii_net_rozipfs/\libucosii_bsp.a(os_cpu_c.o)
 .debug_loc     0x0001995f       0xac ../../bsp/ucosii_net_rozipfs/\libucosii_bsp.a(altera_avalon_cfi_flash_amd.o)
 .debug_loc     0x00019a0b       0xac ../../bsp/ucosii_net_rozipfs/\libucosii_bsp.a(altera_avalon_cfi_flash_intel.o)
 .debug_loc     0x00019ab7      0x12d ../../bsp/ucosii_net_rozipfs/\libucosii_bsp.a(allports.o)
 .debug_loc     0x00019be4       0xac ../../bsp/ucosii_net_rozipfs/\libucosii_bsp.a(timeouts.o)
 .debug_loc     0x00019c90       0x56 ../../bsp/ucosii_net_rozipfs/\libucosii_bsp.a(tk_misc.o)
 .debug_loc     0x00019ce6       0x2b ../../bsp/ucosii_net_rozipfs/\libucosii_bsp.a(alt_iniche_fcntl.o)
 .debug_loc     0x00019d11      0x22f ../../bsp/ucosii_net_rozipfs/\libucosii_bsp.a(et_arp.o)
 .debug_loc     0x00019f40       0xac ../../bsp/ucosii_net_rozipfs/\libucosii_bsp.a(iface.o)
 .debug_loc     0x00019fec      0x207 ../../bsp/ucosii_net_rozipfs/\libucosii_bsp.a(ip.o)
 .debug_loc     0x0001a1f3      0x2b2 ../../bsp/ucosii_net_rozipfs/\libucosii_bsp.a(ip_reasm.o)
 .debug_loc     0x0001a4a5       0xac ../../bsp/ucosii_net_rozipfs/\libucosii_bsp.a(ipdemux.o)
 .debug_loc     0x0001a551       0x81 ../../bsp/ucosii_net_rozipfs/\libucosii_bsp.a(ipmc.o)
 .debug_loc     0x0001a5d2       0x81 ../../bsp/ucosii_net_rozipfs/\libucosii_bsp.a(ipport.o)
 .debug_loc     0x0001a653      0x102 ../../bsp/ucosii_net_rozipfs/\libucosii_bsp.a(ipraw.o)
 .debug_loc     0x0001a755       0x81 ../../bsp/ucosii_net_rozipfs/\libucosii_bsp.a(iproute.o)
 .debug_loc     0x0001a7d6      0x185 ../../bsp/ucosii_net_rozipfs/\libucosii_bsp.a(udp.o)
 .debug_loc     0x0001a95b       0x2b ../../bsp/ucosii_net_rozipfs/\libucosii_bsp.a(igmp.o)
 .debug_loc     0x0001a986       0xd7 ../../bsp/ucosii_net_rozipfs/\libucosii_bsp.a(igmp2.o)
 .debug_loc     0x0001aa5d       0xac ../../bsp/ucosii_net_rozipfs/\libucosii_bsp.a(ipopt.o)
 .debug_loc     0x0001ab09       0x57 ../../bsp/ucosii_net_rozipfs/\libucosii_bsp.a(u_mctest.o)
 .debug_loc     0x0001ab60       0x56 ../../bsp/ucosii_net_rozipfs/\libucosii_bsp.a(dhcsetup.o)
 .debug_loc     0x0001abb6      0x183 ../../bsp/ucosii_net_rozipfs/\libucosii_bsp.a(memdev.o)
 .debug_loc     0x0001ad39      0x183 ../../bsp/ucosii_net_rozipfs/\libucosii_bsp.a(parseip.o)
 .debug_loc     0x0001aebc       0x2b ../../bsp/ucosii_net_rozipfs/\libucosii_bsp.a(tcpcksum.o)
 .debug_loc     0x0001aee7      0x158 ../../bsp/ucosii_net_rozipfs/\libucosii_bsp.a(in_pcb.o)
 .debug_loc     0x0001b03f      0x4b4 ../../bsp/ucosii_net_rozipfs/\libucosii_bsp.a(vfsfiles.o)
 .debug_loc     0x0001b4f3       0x2b ../../bsp/ucosii_net_rozipfs/\libucosii_bsp.a(vfsport.o)
 .debug_loc     0x0001b51e       0x56 ../../bsp/ucosii_net_rozipfs/\libucosii_bsp.a(alt_fcntl.o)
 .debug_loc     0x0001b574       0xd8 ../../bsp/ucosii_net_rozipfs/\libucosii_bsp.a(icmp.o)
 .debug_loc     0x0001b64c       0x1e d:/altera/12.1sp1b243/nios2eds/bin/gnu/h-i686-mingw32/bin/../lib/gcc/nios2-elf/4.1.2/../../../../nios2-elf/lib\libc.a(lib_a-atexit.o)
 .debug_loc     0x0001b66a       0x3d d:/altera/12.1sp1b243/nios2eds/bin/gnu/h-i686-mingw32/bin/../lib/gcc/nios2-elf/4.1.2/../../../../nios2-elf/lib\libc.a(lib_a-exit.o)
 .debug_loc     0x0001b6a7       0x8b d:/altera/12.1sp1b243/nios2eds/bin/gnu/h-i686-mingw32/bin/../lib/gcc/nios2-elf/4.1.2/../../../../nios2-elf/lib\libc.a(lib_a-vprintf.o)
 .debug_loc     0x0001b732      0x120 d:/altera/12.1sp1b243/nios2eds/bin/gnu/h-i686-mingw32/bin/../lib/gcc/nios2-elf/4.1.2/../../../../nios2-elf/lib\libc.a(lib_a-__atexit.o)
 .debug_loc     0x0001b852      0x1cb d:/altera/12.1sp1b243/nios2eds/bin/gnu/h-i686-mingw32/bin/../lib/gcc/nios2-elf/4.1.2/../../../../nios2-elf/lib\libc.a(lib_a-__call_atexit.o)
 .debug_loc     0x0001ba1d       0x56 ../../bsp/ucosii_net_rozipfs/\libucosii_bsp.a(alt_exit.o)

.debug_macinfo
 *(.debug_macinfo)

.debug_weaknames
 *(.debug_weaknames)

.debug_funcnames
 *(.debug_funcnames)

.debug_typenames
 *(.debug_typenames)

.debug_varnames
 *(.debug_varnames)

.debug_alt_sim_info
                0x00000000       0x50
 *(.debug_alt_sim_info)
 .debug_alt_sim_info
                0x00000000       0x20 ../../bsp/ucosii_net_rozipfs//obj/HAL/src/crt0.o
 .debug_alt_sim_info
                0x00000020       0x30 ../../bsp/ucosii_net_rozipfs/\libucosii_bsp.a(alt_busy_sleep.o)
                0x07200000                __alt_data_end = 0x7200000
                0x07200000                PROVIDE (__alt_stack_pointer, __alt_data_end)
                0x07090114                PROVIDE (__alt_stack_limit, __alt_stack_base)
                0x07090114                PROVIDE (__alt_heap_start, end)
                0x07200000                PROVIDE (__alt_heap_limit, 0x7200000)
OUTPUT(web_server.elf elf32-littlenios2)

.debug_ranges   0x00000000      0xce0
 .debug_ranges  0x00000000       0x38 d:/altera/12.1sp1b243/nios2eds/bin/gnu/h-i686-mingw32/bin/../lib/gcc/nios2-elf/4.1.2/../../../../nios2-elf/lib\libc.a(lib_a-callocr.o)
 .debug_ranges  0x00000038       0x20 d:/altera/12.1sp1b243/nios2eds/bin/gnu/h-i686-mingw32/bin/../lib/gcc/nios2-elf/4.1.2/../../../../nios2-elf/lib\libc.a(lib_a-fflush.o)
 .debug_ranges  0x00000058       0x18 d:/altera/12.1sp1b243/nios2eds/bin/gnu/h-i686-mingw32/bin/../lib/gcc/nios2-elf/4.1.2/../../../../nios2-elf/lib\libc.a(lib_a-fread.o)
 .debug_ranges  0x00000070       0xa0 d:/altera/12.1sp1b243/nios2eds/bin/gnu/h-i686-mingw32/bin/../lib/gcc/nios2-elf/4.1.2/../../../../nios2-elf/lib\libc.a(lib_a-fwalk.o)
 .debug_ranges  0x00000110       0x70 d:/altera/12.1sp1b243/nios2eds/bin/gnu/h-i686-mingw32/bin/../lib/gcc/nios2-elf/4.1.2/../../../../nios2-elf/lib\libc.a(lib_a-mallocr.o)
 .debug_ranges  0x00000180      0x1b8 d:/altera/12.1sp1b243/nios2eds/bin/gnu/h-i686-mingw32/bin/../lib/gcc/nios2-elf/4.1.2/../../../../nios2-elf/lib\libc.a(lib_a-strstr.o)
 .debug_ranges  0x00000338      0x168 d:/altera/12.1sp1b243/nios2eds/bin/gnu/h-i686-mingw32/bin/../lib/gcc/nios2-elf/4.1.2/../../../../nios2-elf/lib\libc.a(lib_a-vfprintf.o)
 .debug_ranges  0x000004a0       0xd0 d:/altera/12.1sp1b243/nios2eds/bin/gnu/h-i686-mingw32/bin/../lib/gcc/nios2-elf/4.1.2/../../../../nios2-elf/lib\libc.a(lib_a-vfscanf.o)
 .debug_ranges  0x00000570       0x28 d:/altera/12.1sp1b243/nios2eds/bin/gnu/h-i686-mingw32/bin/../lib/gcc/nios2-elf/4.1.2/../../../../nios2-elf/lib\libc.a(lib_a-fvwrite.o)
 .debug_ranges  0x00000598      0x110 d:/altera/12.1sp1b243/nios2eds/bin/gnu/h-i686-mingw32/bin/../lib/gcc/nios2-elf/4.1.2/../../../../nios2-elf/lib\libc.a(lib_a-reallocr.o)
 .debug_ranges  0x000006a8       0x68 d:/altera/12.1sp1b243/nios2eds/bin/gnu/h-i686-mingw32/bin/../lib/gcc/nios2-elf/4.1.2/../../../../nios2-elf/lib\libc.a(lib_a-strtod.o)
 .debug_ranges  0x00000710       0x50 d:/altera/12.1sp1b243/nios2eds/bin/gnu/h-i686-mingw32/bin/../lib/gcc/nios2-elf/4.1.2/../../../../nios2-elf/lib\libc.a(lib_a-gdtoa-gethex.o)
 .debug_ranges  0x00000760       0x68 d:/altera/12.1sp1b243/nios2eds/bin/gnu/h-i686-mingw32/bin/../lib/gcc/nios2-elf/4.1.2\libgcc.a(_muldi3.o)
 .debug_ranges  0x000007c8      0x188 d:/altera/12.1sp1b243/nios2eds/bin/gnu/h-i686-mingw32/bin/../lib/gcc/nios2-elf/4.1.2\libgcc.a(_udivdi3.o)
 .debug_ranges  0x00000950      0x198 d:/altera/12.1sp1b243/nios2eds/bin/gnu/h-i686-mingw32/bin/../lib/gcc/nios2-elf/4.1.2\libgcc.a(_umoddi3.o)
 .debug_ranges  0x00000ae8       0x30 d:/altera/12.1sp1b243/nios2eds/bin/gnu/h-i686-mingw32/bin/../lib/gcc/nios2-elf/4.1.2\libgcc.a(_addsub_df.o)
 .debug_ranges  0x00000b18       0x88 d:/altera/12.1sp1b243/nios2eds/bin/gnu/h-i686-mingw32/bin/../lib/gcc/nios2-elf/4.1.2\libgcc.a(_mul_df.o)
 .debug_ranges  0x00000ba0       0x50 d:/altera/12.1sp1b243/nios2eds/bin/gnu/h-i686-mingw32/bin/../lib/gcc/nios2-elf/4.1.2\libgcc.a(_div_df.o)
 .debug_ranges  0x00000bf0       0x18 d:/altera/12.1sp1b243/nios2eds/bin/gnu/h-i686-mingw32/bin/../lib/gcc/nios2-elf/4.1.2\libgcc.a(_usi_to_df.o)
 .debug_ranges  0x00000c08       0x28 d:/altera/12.1sp1b243/nios2eds/bin/gnu/h-i686-mingw32/bin/../lib/gcc/nios2-elf/4.1.2\libgcc.a(_clzsi2.o)
 .debug_ranges  0x00000c30       0x28 d:/altera/12.1sp1b243/nios2eds/bin/gnu/h-i686-mingw32/bin/../lib/gcc/nios2-elf/4.1.2\libgcc.a(_pack_df.o)
 .debug_ranges  0x00000c58       0x18 ../../bsp/ucosii_net_rozipfs/\libucosii_bsp.a(altera_avalon_jtag_uart_init.o)
 .debug_ranges  0x00000c70       0x28 ../../bsp/ucosii_net_rozipfs/\libucosii_bsp.a(alt_irq_entry.o)
 .debug_ranges  0x00000c98       0x30 ../../bsp/ucosii_net_rozipfs/\libucosii_bsp.a(alt_exception_entry.o)
 .debug_ranges  0x00000cc8       0x18 d:/altera/12.1sp1b243/nios2eds/bin/gnu/h-i686-mingw32/bin/../lib/gcc/nios2-elf/4.1.2/../../../../nios2-elf/lib\libc.a(lib_a-__call_atexit.o)
